C:/Users/mario/AppData/Roaming/UGBASIC-IDE/temp/bhoajessceffbhb.asm:
     1  0000  210000            	LD HL, DUFFDEVICEL0
     2  0003  110000            	LD DE, 35
     3  0006  19                	ADD HL, DE
     4  0007  110000            	LD DE, DUFFDEVICEL0
     5  000a  13                	INC DE
     6  000b  13                	INC DE
     7  000c  7323722b          	LD (HL), DE
     8                          org 32768
     9  0010  c30000            	jp startup_after
    10                          ; /*****************************************************************************
    11                          ;  * ugBASIC - an isomorphic BASIC language compiler for retrocomputers        *
    12                          ;  *****************************************************************************
    13                          ;  * Copyright 2021-2023 Marco Spedaletti (asimov@mclink.it)
    14                          ;  *
    15                          ;  * Licensed under the Apache License, Version 2.0 (the "License
    16                          ;  * you may not use this file except in compliance with the License.
    17                          ;  * You may obtain a copy of the License at
    18                          ;  *
    19                          ;  * http://www.apache.org/licenses/LICENSE-2.0
    20                          ;  *
    21                          ;  * Unless required by applicable law or agreed to in writing, software
    22                          ;  * distributed under the License is distributed on an "AS IS" BASIS,
    23                          ;  * WITHOUT WARRANTIES OR CONDITIONS OF ANY KIND, either express or implied.
    24                          ;  * See the License for the specific language governing permissions and
    25                          ;  * limitations under the License.
    26                          ;  *----------------------------------------------------------------------------
    27                          ;  * Concesso in licenza secondo i termini della Licenza Apache, versione 2.0
    28                          ;  * (la "Licenza è proibito usare questo file se non in conformità alla
    29                          ;  * Licenza. Una copia della Licenza è disponibile all'indirizzo:
    30                          ;  *
    31                          ;  * http://www.apache.org/licenses/LICENSE-2.0
    32                          ;  *
    33                          ;  * Se non richiesto dalla legislazione vigente o concordato per iscritto,
    34                          ;  * il software distribuito nei termini della Licenza è distribuito
    35                          ;  * "COSì COM'è", SENZA GARANZIE O CONDIZIONI DI ALCUN TIPO, esplicite o
    36                          ;  * implicite. Consultare la Licenza per il testo specifico che regola le
    37                          ;  * autorizzazioni e le limitazioni previste dalla medesima.
    38                          ;  ****************************************************************************/
    39                          ;* * * * * * * * * * * * * * * * * * * * * * * * * * * * * * * * * * * * * * * *
    40                          ;*                                                                             *
    41                          ;*                      STARTUP ROUTINE FOR ZX                                 *
    42                          ;*                                                                             *
    43                          ;*                             by Marco Spedaletti                             *
    44                          ;*                                                                             *
    45                          ;* * * * * * * * * * * * * * * * * * * * * * * * * * * * * * * * * * * * * * * *
    46                          ZXSTARTUP:
    47  0013  f3                	DI
    48  0014  210000            	LD HL, ZXIRQSVC
    49  0017  dd210000          	LD IX, $FFF0
    50  001b  dd360000          	LD (IX+$04), $C3
    51  001f  dd7500            	LD (IX+$05), L
    52  0022  dd7400            	LD (IX+06h), H
    53  0025  dd360000          	LD (IX+$0F), $18
    54  0029  3e00              	LD A, $39
    55  002b  ed47              	LD I, A
    56  002d  ed5e              	IM 2
    57  002f  fb                	EI
    58  0030  3e00              	LD A, 60
    59  0032  320000            	LD (TICKSPERSECOND), A
    60                          ; peephole(1): r228 (LD A, 0)->(XOR A)
    61                          ;    LD A, 0
    62  0035  af                	XOR A
    63  0036  320000            	LD ($5C08), A
    64  0039  c9                	RET
    65                          
    66                          ZXIRQSVC:
    67  003a  f3                	DI
    68  003b  f5                	PUSH AF
    69  003c  c5                	PUSH BC
    70  003d  d5                	PUSH DE
    71  003e  e5                	PUSH HL
    72  003f  dde5              	PUSH IX
    73  0041  d9                	EXX
    74  0042  08                	EX AF,AF'
    75  0043  f5                	PUSH AF
    76  0044  c5                	PUSH BC
    77  0045  d5                	PUSH DE
    78  0046  e5                	PUSH HL
    79  0047  fde5              	PUSH IY
    80  0049  2a0000            	LD HL, (ZXTIMER)
    81  004c  23                	INC HL
    82  004d  220000            	LD (ZXTIMER), HL
    83  0050  3a0000            	LD A, (IRQVECTORREADY)
    84  0053  fe00              	CMP 0
    85  0055  2800              	JR Z, IRQVECTORSKIP
    86  0057  cd0000            	CALL IRQVECTOR
    87                          IRQVECTORSKIP:
    88  005a  fde1              	POP IY
    89  005c  e1                	POP HL
    90  005d  d1                	POP DE
    91  005e  c1                	POP BC
    92  005f  f1                	POP AF
    93  0060  d9                	EXX
    94  0061  08                	EX AF,AF'
    95  0062  dde1              	POP IX
    96  0064  e1                	POP HL
    97  0065  d1                	POP DE
    98  0066  c1                	POP BC
    99  0067  f1                	POP AF
   100  0068  c30000            	JP $0038
   101  006b  fb                	EI
   102  006c  c9                	RET
   103                          startup_after:
   104  006d  cd0000            	CALL ZXSTARTUP
   105  0070  cd0000            	CALL VARINIT
   106  0073  cd0000            	CALL PROTOTHREADINIT
   107  0076  3a0000            	LD A, (CURRENTWIDTH)
   108  0079  320000            	LD (RESOLUTIONX), A
   109  007c  3a0000            	LD A, (CURRENTWIDTH+1)
   110  007f  320000            	LD (RESOLUTIONX+1), A
   111  0082  3a0000            	LD A, (CURRENTHEIGHT)
   112  0085  320000            	LD (RESOLUTIONY), A
   113  0088  3a0000            	LD A, (CURRENTHEIGHT+1)
   114  008b  320000            	LD (RESOLUTIONY+1), A
   115                          	; L:0
   116                          	; P:76
   117                          	; L:1
   118                          	_maxoptions = $0008
   119                          	; P:1
   120                          	; L:2
   121                          	_optionsy = $0003
   122                          	; P:1
   123                          	; L:3
   124                          	; P:0
   125                          	; L:4
   126                          	; P:0
   127                          	; L:5
   128                          	; P:0
   129                          	; L:6
   130                          	; P:0
   131                          	; L:7
   132                          	; P:0
   133                          	; L:8
   134                          	; P:0
   135                          	; L:9
   136                          	; P:0
   137                          	; L:10
   138                          	; P:0
   139                          	; L:11
   140                          	; P:0
   141                          	; L:12
   142  008e  3e00              	LD A, $00
   143  0090  320000            	LD (_Ttmp1), A
   144                          ; peephole(1): r250 (LD A, x; LD (x), A; LD A, x)->(LD A, x; LD (x), A)
   145                          ;	LD A, $00
   146  0093  320000            	LD (_Ttmp2), A
   147  0096  3e00              	LD A, $00
   148  0098  320000            	LD (_Ttmp6), A
   149                          ; peephole(1): r250 (LD A, x; LD (x), A; LD A, x)->(LD A, x; LD (x), A)
   150                          ;	LD A, $00
   151  009b  320000            	LD (_Ttmp6+1), A
   152  009e  3e00              	LD A, $00
   153  00a0  320000            	LD (_Ttmp7), A
   154                          ; peephole(1): r250 (LD A, x; LD (x), A; LD A, x)->(LD A, x; LD (x), A)
   155                          ;	LD A, $00
   156  00a3  320000            	LD (_Ttmp7+1), A
   157  00a6  3a0000            	LD A, (_Ttmp1)
   158  00a9  320000            	LD (_Ttmp7), A
   159  00ac  2a0000            	LD HL, (_Ttmp6)
   160  00af  ed5b0000          	LD DE, (_Ttmp7)
   161  00b3  19                	ADD HL, DE
   162  00b4  220000            	LD (_Ttmp6), HL
   163  00b7  3e00              	LD A, $03
   164  00b9  320000            	LD (_Ttmp5), A
   165  00bc  3e00              	LD A, $00
   166  00be  320000            	LD (_Ttmp5+1), A
   167                          ; peephole(1): r250 (LD A, x; LD (x), A; LD A, x)->(LD A, x; LD (x), A)
   168                          ;	LD A, $00
   169  00c1  320000            	LD (_Ttmp11), A
   170  00c4  3e00              	LD A, $00
   171  00c6  320000            	LD (_Ttmp11+1), A
   172  00c9  3a0000            	LD A, (_Ttmp2)
   173  00cc  320000            	LD (_Ttmp11), A
   174  00cf  ed4b0000          	LD BC, (_Ttmp11)
   175  00d3  ed5b0000          	LD DE, (_Ttmp5)
   176  00d7  79                	LD A, C
   177  00d8  48                	LD C, B
   178  00d9  210000            	LD HL, 0
   179  00dc  0600              	LD B, 16
   180                          _label16:
   181  00de  29                	ADD HL, HL
   182  00df  17                	RLA
   183  00e0  cb11              	RL C
   184  00e2  3000              	JR NC,_label16b2
   185  00e4  19                	ADD HL, DE
   186  00e5  ce00              	ADC A, 0
   187  00e7  d20000            	JP NC,_label16b2
   188  00ea  0c                	INC C
   189                          _label16b2:
   190  00eb  1000              	DJNZ _label16
   191  00ed  41                	LD B, C
   192  00ee  4f                	LD C, A
   193  00ef  220000            	LD (_Ttmp15), HL
   194  00f2  ed430000          	LD (_Ttmp15+2), BC
   195  00f6  3a0000            	LD A, (_Ttmp15)
   196  00f9  320000            	LD (_Ttmp17), A
   197  00fc  3a0000            	LD A, (_Ttmp15+1)
   198  00ff  320000            	LD (_Ttmp17+1), A
   199  0102  2a0000            	LD HL, (_Ttmp6)
   200  0105  ed5b0000          	LD DE, (_Ttmp17)
   201  0109  19                	ADD HL, DE
   202  010a  220000            	LD (_Ttmp6), HL
   203  010d  e600              	AND $0
   204  010f  2a0000            	LD HL, (_Ttmp6)
   205  0112  110000            	LD DE, _r
   206  0115  19                	ADD HL, DE
   207  0116  220000            	LD (_Ttmp6), HL
   208  0119  ed5b0000          	LD DE, (_Ttmp6)
   209  011d  1a                	LD A, (DE)
   210  011e  320000            	LD (_Ttmp19), A
   211  0121  3a0000            	LD A, (_Tstr3)
   212  0124  320000            	LD (_Ttmp21), A
   213  0127  210000            	LD HL, _Tstr3
   214  012a  220000            	LD (_Ttmp20), HL
   215  012d  2a0000            	LD HL, (_Ttmp20)
   216  0130  23                	INC HL
   217  0131  220000            	LD (_Ttmp20), HL
   218  0134  c30000            	jp dstring_after
   219                          ; /*****************************************************************************
   220                          ;  * ugBASIC - an isomorphic BASIC language compiler for retrocomputers        *
   221                          ;  *****************************************************************************
   222                          ;  * Copyright 2021-2023 Marco Spedaletti (asimov@mclink.it)
   223                          ;  *
   224                          ;  * Licensed under the Apache License, Version 2.0 (the "License");
   225                          ;  * you may not use this file except in compliance with the License.
   226                          ;  * You may obtain a copy of the License at
   227                          ;  *
   228                          ;  * http://www.apache.org/licenses/LICENSE-2.0
   229                          ;  *
   230                          ;  * Unless required by applicable law or agreed to in writing, software
   231                          ;  * distributed under the License is distributed on an "AS IS" BASIS,
   232                          ;  * WITHOUT WARRANTIES OR CONDITIONS OF ANY KIND, either express or implied.
   233                          ;  * See the License for the specific language governing permissions and
   234                          ;  * limitations under the License.
   235                          ;  *----------------------------------------------------------------------------
   236                          ;  * Concesso in licenza secondo i termini della Licenza Apache, versione 2.0
   237                          ;  * (la "Licenza"); è proibito usare questo file se non in conformità alla
   238                          ;  * Licenza. Una copia della Licenza è disponibile all'indirizzo:
   239                          ;  *
   240                          ;  * http://www.apache.org/licenses/LICENSE-2.0
   241                          ;  *
   242                          ;  * Se non richiesto dalla legislazione vigente o concordato per iscritto,
   243                          ;  * il software distribuito nei termini della Licenza è distribuito
   244                          ;  * "COSì COM'è", SENZA GARANZIE O CONDIZIONI DI ALCUN TIPO, esplicite o
   245                          ;  * implicite. Consultare la Licenza per il testo specifico che regola le
   246                          ;  * autorizzazioni e le limitazioni previste dalla medesima.
   247                          ;  ****************************************************************************/
   248                          ;* * * * * * * * * * * * * * * * * * * * * * * * * * * * * * * * * * * * * * * *
   249                          ;*                                                                             *
   250                          ;*                DINAMYC STRING MANAGEMENT WITH GARBAGE COLLECTION            *
   251                          ;*                                                                             *
   252                          ;*                             by Marco Spedaletti                             *
   253                          ;*                                                                             *
   254                          ;* * * * * * * * * * * * * * * * * * * * * * * * * * * * * * * * * * * * * * * *
   255                          ; DSDEFINE(HL) -> B
   256                          DSDEFINE:
   257  0137  cd0000            	CALL DSFINDFREE
   258  013a  cd0000            	CALL DSDESCRIPTOR
   259  013d  7e                	LD A, (HL)
   260  013e  23                	INC HL
   261  013f  dd7700            	LD (IX),A
   262  0142  dd7500            	LD (IX+1),L
   263  0145  dd7400            	LD (IX+2),H
   264  0148  3e00              	LD A, $C0
   265  014a  dd7700            	LD (IX+3),A
   266  014d  c9                	RET
   267                          ; DSALLOC(C) -> B
   268                          DSALLOC:
   269  014e  cd0000            	CALL DSFINDFREE
   270  0151  cd0000            	CALL DSDESCRIPTOR
   271  0154  dd7e00            	LD A, (IX+3)
   272  0157  f600              	OR A, $40
   273  0159  dd7700            	LD (IX+3),A
   274  015c  cd0000            	CALL DSCHECKFREE
   275                          DSALLOCOK:
   276  015f  cd0000            	CALL DSUSING
   277                          ; peephole(1): r383 (CALL+RET)->(JP)
   278                          ;    CALL DSMALLOC
   279  0162  c30000            	JP DSMALLOC
   280                          ;    RET
   281                          ; DSFREE(B)
   282                          DSFREE:
   283  0165  cd0000            	CALL DSDESCRIPTOR
   284                          ; peephole(1): r228 (LD A, 0)->(XOR A)
   285                          ;    LD A, 0
   286  0168  af                	XOR A
   287  0169  dd7700            	LD (IX+3), A
   288  016c  c9                	RET
   289                          ; DSWRITE(B)
   290                          DSWRITE:
   291  016d  cd0000            	CALL DSDESCRIPTOR
   292  0170  dd7e00            	LD A, (IX+3)
   293  0173  e600              	AND $80
   294  0175  2800              	JR Z, DSWRITED
   295  0177  dd7e00            	LD A, (IX+3)
   296  017a  e600              	AND $7F
   297  017c  dd7700            	LD (IX+3),A
   298  017f  50                	LD D, B
   299  0180  dd4e00            	LD C, (IX)
   300  0183  cd0000            	CALL DSCHECKFREE
   301                          DSWRITEOK:
   302  0186  dd4e00            	LD C, (IX+1)
   303  0189  dd4600            	LD B, (IX+2)
   304  018c  c5                	PUSH BC
   305  018d  cd0000            	CALL DSUSING
   306  0190  dd4e00            	LD C, (IX)
   307  0193  42                	LD B, D
   308  0194  cd0000            	CALL DSMALLOC
   309  0197  c1                	POP BC
   310  0198  6069              	LD HL, BC
   311  019a  dd5e00            	LD E, (IX+1)
   312  019d  dd5600            	LD D, (IX+2)
   313                          DSCOPY:
   314  01a0  dd4e00            	LD C, (IX)
   315  01a3  79                	LD A, C
   316  01a4  2800              	JR Z,DSWRITED
   317                          DSWRITECOPY:
   318  01a6  7e                	LD A, (HL)
   319  01a7  12                	LD (DE), A
   320  01a8  23                	INC HL
   321  01a9  13                	INC DE
   322  01aa  0d                	DEC C
   323  01ab  2000              	JR NZ, DSWRITECOPY
   324                          DSWRITED:
   325  01ad  c9                	RET
   326                          ; DSRESIZE(B,C)
   327                          DSRESIZE:
   328  01ae  cd0000            	CALL DSDESCRIPTOR
   329  01b1  79                	LD A, C
   330  01b2  dd7700            	LD (IX), A
   331  01b5  fe00              	CP 0
   332  01b7  2000              	JR NZ, DSRESIZEDONE
   333  01b9  dd7e00            	LD A, (IX+3)
   334  01bc  f600              	OR $80
   335  01be  dd7700            	LD (IX+3), A
   336                          DSRESIZEDONE:
   337  01c1  c9                	RET
   338                          ; DSGC()
   339                          DSGC:
   340  01c2  dde5              	PUSH IX
   341  01c4  210000            	LD HL, FREE_STRING
   342  01c7  110000            	LD DE, max_free_string
   343  01ca  73                	LD (HL), E
   344  01cb  23                	INC HL
   345  01cc  72                	LD (HL), D
   346  01cd  3a0000            	LD A, (USING)
   347  01d0  fe00              	CP 0
   348  01d2  2800              	JR Z, DSGT
   349  01d4  c30000            	JMP DSGW
   350                          DSGT:
   351  01d7  210000            	LD HL, TEMPORARY
   352  01da  c30000            	JMP BSGCLOOP0
   353                          DSGW:
   354  01dd  210000            	LD HL, WORKING
   355  01e0  c30000            	JMP BSGCLOOP0
   356                          BSGCLOOP0:
   357  01e3  0600              	LD B, 1
   358                          DSGCLOOP:
   359  01e5  c5                	PUSH BC
   360  01e6  cd0000            	CALL DSDESCRIPTOR
   361  01e9  dd7e00            	LD A, (IX+3)
   362  01ec  e600              	AND $80
   363  01ee  2000              	JR NZ, DSGCLOOP2
   364  01f0  dd7e00            	LD A, (IX+3)
   365  01f3  e600              	AND $40
   366  01f5  2800              	JR Z, DSGCLOOP2
   367  01f7  dd7e00            	LD A, (IX)
   368  01fa  fe00              	CP 0
   369  01fc  2800              	JR Z, DSGCLOOP3
   370  01fe  78                	LD A, B
   371  01ff  dd4e00            	LD C, (IX+1)
   372  0202  dd4600            	LD B, (IX+2)
   373  0205  c5                	PUSH BC
   374  0206  47                	LD B, A
   375  0207  dd4e00            	LD C, (IX)
   376  020a  cd0000            	CALL DSMALLOC
   377  020d  c1                	POP BC
   378  020e  dd5e00            	LD E, (IX+1)
   379  0211  dd5600            	LD D, (IX+2)
   380  0214  e5                	PUSH HL
   381  0215  6069              	LD HL, BC
   382  0217  dd4e00            	LD C, (IX)
   383  021a  cd0000            	CALL DSWRITECOPY
   384  021d  e1                	POP HL
   385  021e  c30000            	JMP DSGCLOOP3
   386                          DSGCLOOP2:
   387                              ; LD A, 0
   388                              ; LD (IX), A
   389  0221  c30000            	JMP DSGCLOOP3
   390                          DSGCLOOP3:
   391  0224  c1                	POP BC
   392  0225  04                	INC B
   393  0226  78                	LD A, B
   394  0227  545d              	LD DE, HL
   395  0229  210000            	LD HL, MAXSTRINGS
   396  022c  be                	CP (HL)
   397  022d  626b              	LD HL, DE
   398  022f  2000              	JR NZ, DSGCLOOP
   399                          DSGCEND:
   400  0231  3a0000            	LD A, (USING)
   401                          ; peephole(1): r319 (XOR $FF)->(CPL)
   402                          ;    XOR $FF
   403  0234  2f                	CPL
   404  0235  320000            	LD (USING),A
   405  0238  dde1              	POP IX
   406  023a  c9                	RET
   407                          ; DSFINDFREE() -> B
   408                          DSFINDFREE:
   409  023b  e5                	PUSH HL
   410  023c  0600              	LD B, 1; // fix denote 0 as "unused slot"
   411                          DSFINDFREEL:
   412  023e  cd0000            	CALL DSDESCRIPTOR
   413  0241  dd7e00            	LD A, (IX+3)
   414  0244  e600              	AND $40
   415  0246  2800              	JR Z, DSFINDFREEN
   416  0248  04                	INC B
   417  0249  78                	LD A, B
   418  024a  210000            	LD HL, MAXSTRINGS
   419  024d  be                	CP (HL)
   420  024e  2000              	JR NZ, DSFINDFREEL
   421  0250  c30000            	JMP OUT_OF_MEMORY
   422                          DSFINDFREEN:
   423  0253  e1                	POP HL
   424  0254  c9                	RET
   425                          OUT_OF_MEMORY2:
   426  0255  c30000            	JMP OUT_OF_MEMORY
   427                          ; DSMALLOC(HL,C,B)
   428                          DSMALLOC:
   429  0258  cd0000            	CALL DSDESCRIPTOR
   430  025b  e5                	PUSH HL
   431                          ; peephole(1): r228 (LD A, 0)->(XOR A)
   432                          ;    LD A, 0
   433  025c  af                	XOR A
   434  025d  57                	LD D, A
   435  025e  79                	LD A, C
   436  025f  5f                	LD E, A
   437  0260  2a0000            	LD HL, (FREE_STRING)
   438  0263  ed52              	SBC HL, DE
   439  0265  220000            	LD (FREE_STRING), HL
   440  0268  e5                	PUSH HL
   441  0269  d1                	POP DE
   442  026a  e1                	POP HL
   443  026b  e5                	PUSH HL
   444  026c  19                	ADD HL, DE
   445  026d  dd7100            	LD (IX), C
   446  0270  dd7500            	LD (IX+1), L
   447  0273  dd7400            	LD (IX+2), H
   448  0276  e1                	POP HL
   449  0277  c9                	RET
   450                          ; DSCHECKFREE()
   451                          DSCHECKFREE:
   452  0278  f5                	PUSH AF
   453  0279  c5                	PUSH BC
   454                          DSCHECKFREE2:
   455  027a  3a0000            	LD A, (FREE_STRING+1)
   456  027d  fe00              	CP $80
   457  027f  3000              	JR NC, DSCHECKFREEKO
   458  0281  47                	LD B, A
   459                          ; peephole(1): r228 (LD A, 0)->(XOR A)
   460                          ;    LD A, 0
   461  0282  af                	XOR A
   462  0283  b8                	CP B
   463  0284  2800              	JR Z, DSCHECKFREEL2
   464  0286  3800              	JR C, DSCHECKFREEOK
   465                          DSCHECKFREEL2:
   466  0288  3a0000            	LD A, (FREE_STRING)
   467  028b  47                	LD B, A
   468  028c  79                	LD A, C
   469  028d  b8                	CP B
   470  028e  3800              	JR C, DSCHECKFREEOK
   471                          DSCHECKFREEKO:
   472  0290  cd0000            	CALL DSGC
   473  0293  c30000            	JMP DSCHECKFREE2
   474                          DSCHECKFREEOK:
   475  0296  c1                	POP BC
   476  0297  f1                	POP AF
   477  0298  c9                	RET
   478                          ; DSUSING() -> HL
   479                          DSUSING:
   480  0299  3a0000            	LD A, (USING)
   481  029c  fe00              	CP 0
   482  029e  2800              	JR Z, DSUSINGW
   483  02a0  1800              	JR DSUSINGT
   484                          DSUSINGT:
   485  02a2  210000            	LD HL, TEMPORARY
   486  02a5  c9                	RET
   487                          DSUSINGW:
   488  02a6  210000            	LD HL, WORKING
   489  02a9  c9                	RET
   490                          ; DSDESCRIPTOR(B) -> IX
   491                          DSDESCRIPTOR:
   492  02aa  e5                	PUSH HL
   493  02ab  c5                	PUSH BC
   494  02ac  78                	LD A, B
   495  02ad  4f                	LD C, A
   496                          ; peephole(1): r228 (LD A, 0)->(XOR A)
   497                          ;    LD A, 0
   498  02ae  af                	XOR A
   499  02af  47                	LD B, A
   500  02b0  c5                	PUSH BC
   501  02b1  e1                	POP HL
   502  02b2  29                	ADD HL, HL
   503  02b3  29                	ADD HL, HL
   504  02b4  e5                	PUSH HL
   505  02b5  d1                	POP DE
   506  02b6  210000            	LD HL, DESCRIPTORS
   507  02b9  19                	ADD HL, DE
   508  02ba  e5                	PUSH HL
   509  02bb  dde1              	POP IX
   510  02bd  c1                	POP BC
   511  02be  e1                	POP HL
   512  02bf  c9                	RET
   513                          OUT_OF_MEMORY:
   514  02c0  c30000            	JMP OUT_OF_MEMORY
   515                          dstring_after:
   516  02c3  3a0000            	LD A, (_Ttmp19)
   517  02c6  47                	LD B, A
   518  02c7  cd0000            	CALL DSFREE
   519  02ca  3a0000            	LD A, (_Ttmp21)
   520  02cd  4f                	LD C, A
   521  02ce  cd0000            	CALL DSALLOC
   522  02d1  78                	LD A, B
   523  02d2  320000            	LD (_Ttmp19), A
   524  02d5  3a0000            	LD A, (_Ttmp19)
   525  02d8  47                	LD B, A
   526  02d9  cd0000            	CALL DSDESCRIPTOR
   527  02dc  dd7e00            	LD A, (IX)
   528                          ; peephole(3): unread
   529                          ;	LD (_Ttmp23), A
   530  02df  dd7e00            	LD A, (IX+1)
   531  02e2  320000            	LD (_Ttmp22), A
   532  02e5  dd7e00            	LD A, (IX+2)
   533  02e8  320000            	LD (_Ttmp22+1), A
   534  02eb  c30000            	jp duff_after
   535                          ; /*****************************************************************************
   536                          
   537                          ;  * ugBASIC - an isomorphic BASIC language compiler for retrocomputers        *
   538                          
   539                          ;  *****************************************************************************
   540                          
   541                          ;  * Copyright 2021-2023 Marco Spedaletti (asimov@mclink.it)
   542                          
   543                          ;  *
   544                          
   545                          ;  * Licensed under the Apache License, Version 2.0 (the "License");
   546                          
   547                          ;  * you may not use this file except in compliance with the License.
   548                          
   549                          ;  * You may obtain a copy of the License at
   550                          
   551                          ;  *
   552                          
   553                          ;  * http://www.apache.org/licenses/LICENSE-2.0
   554                          
   555                          ;  *
   556                          
   557                          ;  * Unless required by applicable law or agreed to in writing, software
   558                          
   559                          ;  * distributed under the License is distributed on an "AS IS" BASIS,
   560                          
   561                          ;  * WITHOUT WARRANTIES OR CONDITIONS OF ANY KIND, either express or implied.
   562                          
   563                          ;  * See the License for the specific language governing permissions and
   564                          
   565                          ;  * limitations under the License.
   566                          
   567                          ;  *----------------------------------------------------------------------------
   568                          
   569                          ;  * Concesso in licenza secondo i termini della Licenza Apache, versione 2.0
   570                          
   571                          ;  * (la "Licenza"); è proibito usare questo file se non in conformità alla
   572                          
   573                          ;  * Licenza. Una copia della Licenza è disponibile all'indirizzo:
   574                          
   575                          ;  *
   576                          
   577                          ;  * http://www.apache.org/licenses/LICENSE-2.0
   578                          
   579                          ;  *
   580                          
   581                          ;  * Se non richiesto dalla legislazione vigente o concordato per iscritto,
   582                          
   583                          ;  * il software distribuito nei termini della Licenza è distribuito
   584                          
   585                          ;  * "COSì COM'è", SENZA GARANZIE O CONDIZIONI DI ALCUN TIPO, esplicite o
   586                          
   587                          ;  * implicite. Consultare la Licenza per il testo specifico che regola le
   588                          
   589                          ;  * autorizzazioni e le limitazioni previste dalla medesima.
   590                          
   591                          ;  ****************************************************************************/
   592                          
   593                          ;* * * * * * * * * * * * * * * * * * * * * * * * * * * * * * * * * * * * * * * *
   594                          
   595                          ;*                                                                             *
   596                          
   597                          ;*                               DUFF'S DEVICE                                 *
   598                          
   599                          ;*                                                                             *
   600                          
   601                          ;*                             by Marco Spedaletti                             *
   602                          
   603                          ;*                                                                             *
   604                          
   605                          ;* * * * * * * * * * * * * * * * * * * * * * * * * * * * * * * * * * * * * * * *
   606                          
   607                          
   608                          
   609                          DUFFDEVICE:
   610                          
   611  02ee  78                	LD A, B
   612                          
   613  02ef  b1                	OR C
   614                          
   615  02f0  c8                	RET Z
   616                          
   617                          
   618                          
   619  02f1  3e00              	LD A, 16
   620                          
   621  02f3  91                	SUB C
   622                          
   623  02f4  e600              	AND 15
   624                          
   625  02f6  87                	ADD A, A
   626                          
   627  02f7  320000            	LD (DUFFDEVICEL0+1), A
   628                          
   629                          ; peephole(1): r383 (CALL+RET)->(JP)
   630                          ;    CALL DUFFDEVICEL0
   631                          
   632  02fa  c30000            	JP DUFFDEVICEL0
   633                          
   634                          
   635                          ;    RET
   636                          duff_after:
   637  02fd  2a0000            	LD HL, (_Ttmp20)
   638  0300  ed5b0000          	LD DE, (_Ttmp22)
   639  0304  3a0000            	LD A, (_Ttmp21)
   640  0307  4f                	LD C, A
   641  0308  0600              	LD B, 0
   642  030a  cd0000            	CALL DUFFDEVICE
   643  030d  ed5b0000          	LD DE, (_Ttmp6)
   644  0311  3a0000            	LD A, (_Ttmp19)
   645  0314  12                	LD (DE), A
   646  0315  3e00              	LD A, $00
   647  0317  320000            	LD (_Ttmp19), A
   648                          	; P:350
   649                          	; L:13
   650                          ; peephole(1): r250 (LD A, x; LD (x), A; LD A, x)->(LD A, x; LD (x), A)
   651                          ;	LD A, $00
   652  031a  320000            	LD (_Ttmp1), A
   653  031d  3e00              	LD A, $01
   654  031f  320000            	LD (_Ttmp2), A
   655  0322  3e00              	LD A, $00
   656  0324  320000            	LD (_Ttmp6), A
   657                          ; peephole(1): r250 (LD A, x; LD (x), A; LD A, x)->(LD A, x; LD (x), A)
   658                          ;	LD A, $00
   659  0327  320000            	LD (_Ttmp6+1), A
   660  032a  3e00              	LD A, $00
   661  032c  320000            	LD (_Ttmp7), A
   662                          ; peephole(1): r250 (LD A, x; LD (x), A; LD A, x)->(LD A, x; LD (x), A)
   663                          ;	LD A, $00
   664  032f  320000            	LD (_Ttmp7+1), A
   665  0332  3a0000            	LD A, (_Ttmp1)
   666  0335  320000            	LD (_Ttmp7), A
   667  0338  2a0000            	LD HL, (_Ttmp6)
   668  033b  ed5b0000          	LD DE, (_Ttmp7)
   669  033f  19                	ADD HL, DE
   670  0340  220000            	LD (_Ttmp6), HL
   671  0343  3e00              	LD A, $03
   672  0345  320000            	LD (_Ttmp5), A
   673  0348  3e00              	LD A, $00
   674  034a  320000            	LD (_Ttmp5+1), A
   675                          ; peephole(1): r250 (LD A, x; LD (x), A; LD A, x)->(LD A, x; LD (x), A)
   676                          ;	LD A, $00
   677  034d  320000            	LD (_Ttmp11), A
   678  0350  3e00              	LD A, $00
   679  0352  320000            	LD (_Ttmp11+1), A
   680  0355  3a0000            	LD A, (_Ttmp2)
   681  0358  320000            	LD (_Ttmp11), A
   682  035b  ed4b0000          	LD BC, (_Ttmp11)
   683  035f  ed5b0000          	LD DE, (_Ttmp5)
   684  0363  79                	LD A, C
   685  0364  48                	LD C, B
   686  0365  210000            	LD HL, 0
   687  0368  0600              	LD B, 16
   688                          _label28:
   689  036a  29                	ADD HL, HL
   690  036b  17                	RLA
   691  036c  cb11              	RL C
   692  036e  3000              	JR NC,_label28b2
   693  0370  19                	ADD HL, DE
   694  0371  ce00              	ADC A, 0
   695  0373  d20000            	JP NC,_label28b2
   696  0376  0c                	INC C
   697                          _label28b2:
   698  0377  1000              	DJNZ _label28
   699  0379  41                	LD B, C
   700  037a  4f                	LD C, A
   701  037b  220000            	LD (_Ttmp15), HL
   702  037e  ed430000          	LD (_Ttmp15+2), BC
   703  0382  3a0000            	LD A, (_Ttmp15)
   704  0385  320000            	LD (_Ttmp17), A
   705  0388  3a0000            	LD A, (_Ttmp15+1)
   706  038b  320000            	LD (_Ttmp17+1), A
   707  038e  2a0000            	LD HL, (_Ttmp6)
   708  0391  ed5b0000          	LD DE, (_Ttmp17)
   709  0395  19                	ADD HL, DE
   710  0396  220000            	LD (_Ttmp6), HL
   711  0399  e600              	AND $0
   712  039b  2a0000            	LD HL, (_Ttmp6)
   713  039e  110000            	LD DE, _r
   714  03a1  19                	ADD HL, DE
   715  03a2  220000            	LD (_Ttmp6), HL
   716  03a5  ed5b0000          	LD DE, (_Ttmp6)
   717  03a9  1a                	LD A, (DE)
   718  03aa  320000            	LD (_Ttmp29), A
   719  03ad  3a0000            	LD A, (_Tstr24)
   720  03b0  320000            	LD (_Ttmp21), A
   721  03b3  210000            	LD HL, _Tstr24
   722  03b6  220000            	LD (_Ttmp20), HL
   723  03b9  2a0000            	LD HL, (_Ttmp20)
   724  03bc  23                	INC HL
   725  03bd  220000            	LD (_Ttmp20), HL
   726  03c0  3a0000            	LD A, (_Ttmp29)
   727  03c3  47                	LD B, A
   728  03c4  cd0000            	CALL DSFREE
   729  03c7  3a0000            	LD A, (_Ttmp21)
   730  03ca  4f                	LD C, A
   731  03cb  cd0000            	CALL DSALLOC
   732  03ce  78                	LD A, B
   733  03cf  320000            	LD (_Ttmp29), A
   734  03d2  3a0000            	LD A, (_Ttmp29)
   735  03d5  47                	LD B, A
   736  03d6  cd0000            	CALL DSDESCRIPTOR
   737  03d9  dd7e00            	LD A, (IX)
   738                          ; peephole(3): unread
   739                          ;	LD (_Ttmp23), A
   740  03dc  dd7e00            	LD A, (IX+1)
   741  03df  320000            	LD (_Ttmp22), A
   742  03e2  dd7e00            	LD A, (IX+2)
   743  03e5  320000            	LD (_Ttmp22+1), A
   744  03e8  2a0000            	LD HL, (_Ttmp20)
   745  03eb  ed5b0000          	LD DE, (_Ttmp22)
   746  03ef  3a0000            	LD A, (_Ttmp21)
   747  03f2  4f                	LD C, A
   748  03f3  0600              	LD B, 0
   749  03f5  cd0000            	CALL DUFFDEVICE
   750  03f8  ed5b0000          	LD DE, (_Ttmp6)
   751  03fc  3a0000            	LD A, (_Ttmp29)
   752  03ff  12                	LD (DE), A
   753  0400  3e00              	LD A, $00
   754  0402  320000            	LD (_Ttmp29), A
   755                          	; P:100
   756                          	; L:14
   757                          ; peephole(1): r250 (LD A, x; LD (x), A; LD A, x)->(LD A, x; LD (x), A)
   758                          ;	LD A, $00
   759  0405  320000            	LD (_Ttmp1), A
   760  0408  3e00              	LD A, $02
   761  040a  320000            	LD (_Ttmp2), A
   762  040d  3e00              	LD A, $00
   763  040f  320000            	LD (_Ttmp6), A
   764                          ; peephole(1): r250 (LD A, x; LD (x), A; LD A, x)->(LD A, x; LD (x), A)
   765                          ;	LD A, $00
   766  0412  320000            	LD (_Ttmp6+1), A
   767  0415  3e00              	LD A, $00
   768  0417  320000            	LD (_Ttmp7), A
   769                          ; peephole(1): r250 (LD A, x; LD (x), A; LD A, x)->(LD A, x; LD (x), A)
   770                          ;	LD A, $00
   771  041a  320000            	LD (_Ttmp7+1), A
   772  041d  3a0000            	LD A, (_Ttmp1)
   773  0420  320000            	LD (_Ttmp7), A
   774  0423  2a0000            	LD HL, (_Ttmp6)
   775  0426  ed5b0000          	LD DE, (_Ttmp7)
   776  042a  19                	ADD HL, DE
   777  042b  220000            	LD (_Ttmp6), HL
   778  042e  3e00              	LD A, $03
   779  0430  320000            	LD (_Ttmp5), A
   780  0433  3e00              	LD A, $00
   781  0435  320000            	LD (_Ttmp5+1), A
   782                          ; peephole(1): r250 (LD A, x; LD (x), A; LD A, x)->(LD A, x; LD (x), A)
   783                          ;	LD A, $00
   784  0438  320000            	LD (_Ttmp11), A
   785  043b  3e00              	LD A, $00
   786  043d  320000            	LD (_Ttmp11+1), A
   787  0440  3a0000            	LD A, (_Ttmp2)
   788  0443  320000            	LD (_Ttmp11), A
   789  0446  ed4b0000          	LD BC, (_Ttmp11)
   790  044a  ed5b0000          	LD DE, (_Ttmp5)
   791  044e  79                	LD A, C
   792  044f  48                	LD C, B
   793  0450  210000            	LD HL, 0
   794  0453  0600              	LD B, 16
   795                          _label34:
   796  0455  29                	ADD HL, HL
   797  0456  17                	RLA
   798  0457  cb11              	RL C
   799  0459  3000              	JR NC,_label34b2
   800  045b  19                	ADD HL, DE
   801  045c  ce00              	ADC A, 0
   802  045e  d20000            	JP NC,_label34b2
   803  0461  0c                	INC C
   804                          _label34b2:
   805  0462  1000              	DJNZ _label34
   806  0464  41                	LD B, C
   807  0465  4f                	LD C, A
   808  0466  220000            	LD (_Ttmp15), HL
   809  0469  ed430000          	LD (_Ttmp15+2), BC
   810  046d  3a0000            	LD A, (_Ttmp15)
   811  0470  320000            	LD (_Ttmp17), A
   812  0473  3a0000            	LD A, (_Ttmp15+1)
   813  0476  320000            	LD (_Ttmp17+1), A
   814  0479  2a0000            	LD HL, (_Ttmp6)
   815  047c  ed5b0000          	LD DE, (_Ttmp17)
   816  0480  19                	ADD HL, DE
   817  0481  220000            	LD (_Ttmp6), HL
   818  0484  e600              	AND $0
   819  0486  2a0000            	LD HL, (_Ttmp6)
   820  0489  110000            	LD DE, _r
   821  048c  19                	ADD HL, DE
   822  048d  220000            	LD (_Ttmp6), HL
   823  0490  ed5b0000          	LD DE, (_Ttmp6)
   824  0494  1a                	LD A, (DE)
   825  0495  320000            	LD (_Ttmp35), A
   826  0498  3a0000            	LD A, (_Tstr30)
   827  049b  320000            	LD (_Ttmp21), A
   828  049e  210000            	LD HL, _Tstr30
   829  04a1  220000            	LD (_Ttmp20), HL
   830  04a4  2a0000            	LD HL, (_Ttmp20)
   831  04a7  23                	INC HL
   832  04a8  220000            	LD (_Ttmp20), HL
   833  04ab  3a0000            	LD A, (_Ttmp35)
   834  04ae  47                	LD B, A
   835  04af  cd0000            	CALL DSFREE
   836  04b2  3a0000            	LD A, (_Ttmp21)
   837  04b5  4f                	LD C, A
   838  04b6  cd0000            	CALL DSALLOC
   839  04b9  78                	LD A, B
   840  04ba  320000            	LD (_Ttmp35), A
   841  04bd  3a0000            	LD A, (_Ttmp35)
   842  04c0  47                	LD B, A
   843  04c1  cd0000            	CALL DSDESCRIPTOR
   844  04c4  dd7e00            	LD A, (IX)
   845                          ; peephole(3): unread
   846                          ;	LD (_Ttmp23), A
   847  04c7  dd7e00            	LD A, (IX+1)
   848  04ca  320000            	LD (_Ttmp22), A
   849  04cd  dd7e00            	LD A, (IX+2)
   850  04d0  320000            	LD (_Ttmp22+1), A
   851  04d3  2a0000            	LD HL, (_Ttmp20)
   852  04d6  ed5b0000          	LD DE, (_Ttmp22)
   853  04da  3a0000            	LD A, (_Ttmp21)
   854  04dd  4f                	LD C, A
   855  04de  0600              	LD B, 0
   856  04e0  cd0000            	CALL DUFFDEVICE
   857  04e3  ed5b0000          	LD DE, (_Ttmp6)
   858  04e7  3a0000            	LD A, (_Ttmp35)
   859  04ea  12                	LD (DE), A
   860  04eb  3e00              	LD A, $00
   861  04ed  320000            	LD (_Ttmp35), A
   862                          	; P:100
   863                          	; L:15
   864  04f0  3e00              	LD A, $01
   865  04f2  320000            	LD (_Ttmp1), A
   866  04f5  3e00              	LD A, $00
   867  04f7  320000            	LD (_Ttmp2), A
   868                          ; peephole(1): r250 (LD A, x; LD (x), A; LD A, x)->(LD A, x; LD (x), A)
   869                          ;	LD A, $00
   870  04fa  320000            	LD (_Ttmp6), A
   871  04fd  3e00              	LD A, $00
   872  04ff  320000            	LD (_Ttmp6+1), A
   873                          ; peephole(1): r250 (LD A, x; LD (x), A; LD A, x)->(LD A, x; LD (x), A)
   874                          ;	LD A, $00
   875  0502  320000            	LD (_Ttmp7), A
   876  0505  3e00              	LD A, $00
   877  0507  320000            	LD (_Ttmp7+1), A
   878  050a  3a0000            	LD A, (_Ttmp1)
   879  050d  320000            	LD (_Ttmp7), A
   880  0510  2a0000            	LD HL, (_Ttmp6)
   881  0513  ed5b0000          	LD DE, (_Ttmp7)
   882  0517  19                	ADD HL, DE
   883  0518  220000            	LD (_Ttmp6), HL
   884  051b  3e00              	LD A, $03
   885  051d  320000            	LD (_Ttmp5), A
   886  0520  3e00              	LD A, $00
   887  0522  320000            	LD (_Ttmp5+1), A
   888                          ; peephole(1): r250 (LD A, x; LD (x), A; LD A, x)->(LD A, x; LD (x), A)
   889                          ;	LD A, $00
   890  0525  320000            	LD (_Ttmp11), A
   891  0528  3e00              	LD A, $00
   892  052a  320000            	LD (_Ttmp11+1), A
   893  052d  3a0000            	LD A, (_Ttmp2)
   894  0530  320000            	LD (_Ttmp11), A
   895  0533  ed4b0000          	LD BC, (_Ttmp11)
   896  0537  ed5b0000          	LD DE, (_Ttmp5)
   897  053b  79                	LD A, C
   898  053c  48                	LD C, B
   899  053d  210000            	LD HL, 0
   900  0540  0600              	LD B, 16
   901                          _label40:
   902  0542  29                	ADD HL, HL
   903  0543  17                	RLA
   904  0544  cb11              	RL C
   905  0546  3000              	JR NC,_label40b2
   906  0548  19                	ADD HL, DE
   907  0549  ce00              	ADC A, 0
   908  054b  d20000            	JP NC,_label40b2
   909  054e  0c                	INC C
   910                          _label40b2:
   911  054f  1000              	DJNZ _label40
   912  0551  41                	LD B, C
   913  0552  4f                	LD C, A
   914  0553  220000            	LD (_Ttmp15), HL
   915  0556  ed430000          	LD (_Ttmp15+2), BC
   916  055a  3a0000            	LD A, (_Ttmp15)
   917  055d  320000            	LD (_Ttmp17), A
   918  0560  3a0000            	LD A, (_Ttmp15+1)
   919  0563  320000            	LD (_Ttmp17+1), A
   920  0566  2a0000            	LD HL, (_Ttmp6)
   921  0569  ed5b0000          	LD DE, (_Ttmp17)
   922  056d  19                	ADD HL, DE
   923  056e  220000            	LD (_Ttmp6), HL
   924  0571  e600              	AND $0
   925  0573  2a0000            	LD HL, (_Ttmp6)
   926  0576  110000            	LD DE, _r
   927  0579  19                	ADD HL, DE
   928  057a  220000            	LD (_Ttmp6), HL
   929  057d  ed5b0000          	LD DE, (_Ttmp6)
   930  0581  1a                	LD A, (DE)
   931  0582  320000            	LD (_Ttmp41), A
   932  0585  3a0000            	LD A, (_Tstr36)
   933  0588  320000            	LD (_Ttmp21), A
   934  058b  210000            	LD HL, _Tstr36
   935  058e  220000            	LD (_Ttmp20), HL
   936  0591  2a0000            	LD HL, (_Ttmp20)
   937  0594  23                	INC HL
   938  0595  220000            	LD (_Ttmp20), HL
   939  0598  3a0000            	LD A, (_Ttmp41)
   940  059b  47                	LD B, A
   941  059c  cd0000            	CALL DSFREE
   942  059f  3a0000            	LD A, (_Ttmp21)
   943  05a2  4f                	LD C, A
   944  05a3  cd0000            	CALL DSALLOC
   945  05a6  78                	LD A, B
   946  05a7  320000            	LD (_Ttmp41), A
   947  05aa  3a0000            	LD A, (_Ttmp41)
   948  05ad  47                	LD B, A
   949  05ae  cd0000            	CALL DSDESCRIPTOR
   950  05b1  dd7e00            	LD A, (IX)
   951                          ; peephole(3): unread
   952                          ;	LD (_Ttmp23), A
   953  05b4  dd7e00            	LD A, (IX+1)
   954  05b7  320000            	LD (_Ttmp22), A
   955  05ba  dd7e00            	LD A, (IX+2)
   956  05bd  320000            	LD (_Ttmp22+1), A
   957  05c0  2a0000            	LD HL, (_Ttmp20)
   958  05c3  ed5b0000          	LD DE, (_Ttmp22)
   959  05c7  3a0000            	LD A, (_Ttmp21)
   960  05ca  4f                	LD C, A
   961  05cb  0600              	LD B, 0
   962  05cd  cd0000            	CALL DUFFDEVICE
   963  05d0  ed5b0000          	LD DE, (_Ttmp6)
   964  05d4  3a0000            	LD A, (_Ttmp41)
   965  05d7  12                	LD (DE), A
   966  05d8  3e00              	LD A, $00
   967  05da  320000            	LD (_Ttmp41), A
   968                          	; P:100
   969                          	; L:16
   970  05dd  3e00              	LD A, $01
   971  05df  320000            	LD (_Ttmp1), A
   972                          ; peephole(1): r250 (LD A, x; LD (x), A; LD A, x)->(LD A, x; LD (x), A)
   973                          ;	LD A, $01
   974  05e2  320000            	LD (_Ttmp2), A
   975  05e5  3e00              	LD A, $00
   976  05e7  320000            	LD (_Ttmp6), A
   977                          ; peephole(1): r250 (LD A, x; LD (x), A; LD A, x)->(LD A, x; LD (x), A)
   978                          ;	LD A, $00
   979  05ea  320000            	LD (_Ttmp6+1), A
   980  05ed  3e00              	LD A, $00
   981  05ef  320000            	LD (_Ttmp7), A
   982                          ; peephole(1): r250 (LD A, x; LD (x), A; LD A, x)->(LD A, x; LD (x), A)
   983                          ;	LD A, $00
   984  05f2  320000            	LD (_Ttmp7+1), A
   985  05f5  3a0000            	LD A, (_Ttmp1)
   986  05f8  320000            	LD (_Ttmp7), A
   987  05fb  2a0000            	LD HL, (_Ttmp6)
   988  05fe  ed5b0000          	LD DE, (_Ttmp7)
   989  0602  19                	ADD HL, DE
   990  0603  220000            	LD (_Ttmp6), HL
   991  0606  3e00              	LD A, $03
   992  0608  320000            	LD (_Ttmp5), A
   993  060b  3e00              	LD A, $00
   994  060d  320000            	LD (_Ttmp5+1), A
   995                          ; peephole(1): r250 (LD A, x; LD (x), A; LD A, x)->(LD A, x; LD (x), A)
   996                          ;	LD A, $00
   997  0610  320000            	LD (_Ttmp11), A
   998  0613  3e00              	LD A, $00
   999  0615  320000            	LD (_Ttmp11+1), A
  1000  0618  3a0000            	LD A, (_Ttmp2)
  1001  061b  320000            	LD (_Ttmp11), A
  1002  061e  ed4b0000          	LD BC, (_Ttmp11)
  1003  0622  ed5b0000          	LD DE, (_Ttmp5)
  1004  0626  79                	LD A, C
  1005  0627  48                	LD C, B
  1006  0628  210000            	LD HL, 0
  1007  062b  0600              	LD B, 16
  1008                          _label46:
  1009  062d  29                	ADD HL, HL
  1010  062e  17                	RLA
  1011  062f  cb11              	RL C
  1012  0631  3000              	JR NC,_label46b2
  1013  0633  19                	ADD HL, DE
  1014  0634  ce00              	ADC A, 0
  1015  0636  d20000            	JP NC,_label46b2
  1016  0639  0c                	INC C
  1017                          _label46b2:
  1018  063a  1000              	DJNZ _label46
  1019  063c  41                	LD B, C
  1020  063d  4f                	LD C, A
  1021  063e  220000            	LD (_Ttmp15), HL
  1022  0641  ed430000          	LD (_Ttmp15+2), BC
  1023  0645  3a0000            	LD A, (_Ttmp15)
  1024  0648  320000            	LD (_Ttmp17), A
  1025  064b  3a0000            	LD A, (_Ttmp15+1)
  1026  064e  320000            	LD (_Ttmp17+1), A
  1027  0651  2a0000            	LD HL, (_Ttmp6)
  1028  0654  ed5b0000          	LD DE, (_Ttmp17)
  1029  0658  19                	ADD HL, DE
  1030  0659  220000            	LD (_Ttmp6), HL
  1031  065c  e600              	AND $0
  1032  065e  2a0000            	LD HL, (_Ttmp6)
  1033  0661  110000            	LD DE, _r
  1034  0664  19                	ADD HL, DE
  1035  0665  220000            	LD (_Ttmp6), HL
  1036  0668  ed5b0000          	LD DE, (_Ttmp6)
  1037  066c  1a                	LD A, (DE)
  1038  066d  320000            	LD (_Ttmp47), A
  1039  0670  3a0000            	LD A, (_Tstr42)
  1040  0673  320000            	LD (_Ttmp21), A
  1041  0676  210000            	LD HL, _Tstr42
  1042  0679  220000            	LD (_Ttmp20), HL
  1043  067c  2a0000            	LD HL, (_Ttmp20)
  1044  067f  23                	INC HL
  1045  0680  220000            	LD (_Ttmp20), HL
  1046  0683  3a0000            	LD A, (_Ttmp47)
  1047  0686  47                	LD B, A
  1048  0687  cd0000            	CALL DSFREE
  1049  068a  3a0000            	LD A, (_Ttmp21)
  1050  068d  4f                	LD C, A
  1051  068e  cd0000            	CALL DSALLOC
  1052  0691  78                	LD A, B
  1053  0692  320000            	LD (_Ttmp47), A
  1054  0695  3a0000            	LD A, (_Ttmp47)
  1055  0698  47                	LD B, A
  1056  0699  cd0000            	CALL DSDESCRIPTOR
  1057  069c  dd7e00            	LD A, (IX)
  1058                          ; peephole(3): unread
  1059                          ;	LD (_Ttmp23), A
  1060  069f  dd7e00            	LD A, (IX+1)
  1061  06a2  320000            	LD (_Ttmp22), A
  1062  06a5  dd7e00            	LD A, (IX+2)
  1063  06a8  320000            	LD (_Ttmp22+1), A
  1064  06ab  2a0000            	LD HL, (_Ttmp20)
  1065  06ae  ed5b0000          	LD DE, (_Ttmp22)
  1066  06b2  3a0000            	LD A, (_Ttmp21)
  1067  06b5  4f                	LD C, A
  1068  06b6  0600              	LD B, 0
  1069  06b8  cd0000            	CALL DUFFDEVICE
  1070  06bb  ed5b0000          	LD DE, (_Ttmp6)
  1071  06bf  3a0000            	LD A, (_Ttmp47)
  1072  06c2  12                	LD (DE), A
  1073  06c3  3e00              	LD A, $00
  1074  06c5  320000            	LD (_Ttmp47), A
  1075                          	; P:100
  1076                          	; L:17
  1077  06c8  3e00              	LD A, $01
  1078  06ca  320000            	LD (_Ttmp1), A
  1079  06cd  3e00              	LD A, $02
  1080  06cf  320000            	LD (_Ttmp2), A
  1081  06d2  3e00              	LD A, $00
  1082  06d4  320000            	LD (_Ttmp6), A
  1083                          ; peephole(1): r250 (LD A, x; LD (x), A; LD A, x)->(LD A, x; LD (x), A)
  1084                          ;	LD A, $00
  1085  06d7  320000            	LD (_Ttmp6+1), A
  1086  06da  3e00              	LD A, $00
  1087  06dc  320000            	LD (_Ttmp7), A
  1088                          ; peephole(1): r250 (LD A, x; LD (x), A; LD A, x)->(LD A, x; LD (x), A)
  1089                          ;	LD A, $00
  1090  06df  320000            	LD (_Ttmp7+1), A
  1091  06e2  3a0000            	LD A, (_Ttmp1)
  1092  06e5  320000            	LD (_Ttmp7), A
  1093  06e8  2a0000            	LD HL, (_Ttmp6)
  1094  06eb  ed5b0000          	LD DE, (_Ttmp7)
  1095  06ef  19                	ADD HL, DE
  1096  06f0  220000            	LD (_Ttmp6), HL
  1097  06f3  3e00              	LD A, $03
  1098  06f5  320000            	LD (_Ttmp5), A
  1099  06f8  3e00              	LD A, $00
  1100  06fa  320000            	LD (_Ttmp5+1), A
  1101                          ; peephole(1): r250 (LD A, x; LD (x), A; LD A, x)->(LD A, x; LD (x), A)
  1102                          ;	LD A, $00
  1103  06fd  320000            	LD (_Ttmp11), A
  1104  0700  3e00              	LD A, $00
  1105  0702  320000            	LD (_Ttmp11+1), A
  1106  0705  3a0000            	LD A, (_Ttmp2)
  1107  0708  320000            	LD (_Ttmp11), A
  1108  070b  ed4b0000          	LD BC, (_Ttmp11)
  1109  070f  ed5b0000          	LD DE, (_Ttmp5)
  1110  0713  79                	LD A, C
  1111  0714  48                	LD C, B
  1112  0715  210000            	LD HL, 0
  1113  0718  0600              	LD B, 16
  1114                          _label52:
  1115  071a  29                	ADD HL, HL
  1116  071b  17                	RLA
  1117  071c  cb11              	RL C
  1118  071e  3000              	JR NC,_label52b2
  1119  0720  19                	ADD HL, DE
  1120  0721  ce00              	ADC A, 0
  1121  0723  d20000            	JP NC,_label52b2
  1122  0726  0c                	INC C
  1123                          _label52b2:
  1124  0727  1000              	DJNZ _label52
  1125  0729  41                	LD B, C
  1126  072a  4f                	LD C, A
  1127  072b  220000            	LD (_Ttmp15), HL
  1128  072e  ed430000          	LD (_Ttmp15+2), BC
  1129  0732  3a0000            	LD A, (_Ttmp15)
  1130  0735  320000            	LD (_Ttmp17), A
  1131  0738  3a0000            	LD A, (_Ttmp15+1)
  1132  073b  320000            	LD (_Ttmp17+1), A
  1133  073e  2a0000            	LD HL, (_Ttmp6)
  1134  0741  ed5b0000          	LD DE, (_Ttmp17)
  1135  0745  19                	ADD HL, DE
  1136  0746  220000            	LD (_Ttmp6), HL
  1137  0749  e600              	AND $0
  1138  074b  2a0000            	LD HL, (_Ttmp6)
  1139  074e  110000            	LD DE, _r
  1140  0751  19                	ADD HL, DE
  1141  0752  220000            	LD (_Ttmp6), HL
  1142  0755  ed5b0000          	LD DE, (_Ttmp6)
  1143  0759  1a                	LD A, (DE)
  1144  075a  320000            	LD (_Ttmp53), A
  1145  075d  3a0000            	LD A, (_Tstr48)
  1146  0760  320000            	LD (_Ttmp21), A
  1147  0763  210000            	LD HL, _Tstr48
  1148  0766  220000            	LD (_Ttmp20), HL
  1149  0769  2a0000            	LD HL, (_Ttmp20)
  1150  076c  23                	INC HL
  1151  076d  220000            	LD (_Ttmp20), HL
  1152  0770  3a0000            	LD A, (_Ttmp53)
  1153  0773  47                	LD B, A
  1154  0774  cd0000            	CALL DSFREE
  1155  0777  3a0000            	LD A, (_Ttmp21)
  1156  077a  4f                	LD C, A
  1157  077b  cd0000            	CALL DSALLOC
  1158  077e  78                	LD A, B
  1159  077f  320000            	LD (_Ttmp53), A
  1160  0782  3a0000            	LD A, (_Ttmp53)
  1161  0785  47                	LD B, A
  1162  0786  cd0000            	CALL DSDESCRIPTOR
  1163  0789  dd7e00            	LD A, (IX)
  1164                          ; peephole(3): unread
  1165                          ;	LD (_Ttmp23), A
  1166  078c  dd7e00            	LD A, (IX+1)
  1167  078f  320000            	LD (_Ttmp22), A
  1168  0792  dd7e00            	LD A, (IX+2)
  1169  0795  320000            	LD (_Ttmp22+1), A
  1170  0798  2a0000            	LD HL, (_Ttmp20)
  1171  079b  ed5b0000          	LD DE, (_Ttmp22)
  1172  079f  3a0000            	LD A, (_Ttmp21)
  1173  07a2  4f                	LD C, A
  1174  07a3  0600              	LD B, 0
  1175  07a5  cd0000            	CALL DUFFDEVICE
  1176  07a8  ed5b0000          	LD DE, (_Ttmp6)
  1177  07ac  3a0000            	LD A, (_Ttmp53)
  1178  07af  12                	LD (DE), A
  1179  07b0  3e00              	LD A, $00
  1180  07b2  320000            	LD (_Ttmp53), A
  1181                          	; P:100
  1182                          	; L:18
  1183  07b5  3e00              	LD A, $02
  1184  07b7  320000            	LD (_Ttmp1), A
  1185  07ba  3e00              	LD A, $00
  1186  07bc  320000            	LD (_Ttmp2), A
  1187                          ; peephole(1): r250 (LD A, x; LD (x), A; LD A, x)->(LD A, x; LD (x), A)
  1188                          ;	LD A, $00
  1189  07bf  320000            	LD (_Ttmp6), A
  1190  07c2  3e00              	LD A, $00
  1191  07c4  320000            	LD (_Ttmp6+1), A
  1192                          ; peephole(1): r250 (LD A, x; LD (x), A; LD A, x)->(LD A, x; LD (x), A)
  1193                          ;	LD A, $00
  1194  07c7  320000            	LD (_Ttmp7), A
  1195  07ca  3e00              	LD A, $00
  1196  07cc  320000            	LD (_Ttmp7+1), A
  1197  07cf  3a0000            	LD A, (_Ttmp1)
  1198  07d2  320000            	LD (_Ttmp7), A
  1199  07d5  2a0000            	LD HL, (_Ttmp6)
  1200  07d8  ed5b0000          	LD DE, (_Ttmp7)
  1201  07dc  19                	ADD HL, DE
  1202  07dd  220000            	LD (_Ttmp6), HL
  1203  07e0  3e00              	LD A, $03
  1204  07e2  320000            	LD (_Ttmp5), A
  1205  07e5  3e00              	LD A, $00
  1206  07e7  320000            	LD (_Ttmp5+1), A
  1207                          ; peephole(1): r250 (LD A, x; LD (x), A; LD A, x)->(LD A, x; LD (x), A)
  1208                          ;	LD A, $00
  1209  07ea  320000            	LD (_Ttmp11), A
  1210  07ed  3e00              	LD A, $00
  1211  07ef  320000            	LD (_Ttmp11+1), A
  1212  07f2  3a0000            	LD A, (_Ttmp2)
  1213  07f5  320000            	LD (_Ttmp11), A
  1214  07f8  ed4b0000          	LD BC, (_Ttmp11)
  1215  07fc  ed5b0000          	LD DE, (_Ttmp5)
  1216  0800  79                	LD A, C
  1217  0801  48                	LD C, B
  1218  0802  210000            	LD HL, 0
  1219  0805  0600              	LD B, 16
  1220                          _label58:
  1221  0807  29                	ADD HL, HL
  1222  0808  17                	RLA
  1223  0809  cb11              	RL C
  1224  080b  3000              	JR NC,_label58b2
  1225  080d  19                	ADD HL, DE
  1226  080e  ce00              	ADC A, 0
  1227  0810  d20000            	JP NC,_label58b2
  1228  0813  0c                	INC C
  1229                          _label58b2:
  1230  0814  1000              	DJNZ _label58
  1231  0816  41                	LD B, C
  1232  0817  4f                	LD C, A
  1233  0818  220000            	LD (_Ttmp15), HL
  1234  081b  ed430000          	LD (_Ttmp15+2), BC
  1235  081f  3a0000            	LD A, (_Ttmp15)
  1236  0822  320000            	LD (_Ttmp17), A
  1237  0825  3a0000            	LD A, (_Ttmp15+1)
  1238  0828  320000            	LD (_Ttmp17+1), A
  1239  082b  2a0000            	LD HL, (_Ttmp6)
  1240  082e  ed5b0000          	LD DE, (_Ttmp17)
  1241  0832  19                	ADD HL, DE
  1242  0833  220000            	LD (_Ttmp6), HL
  1243  0836  e600              	AND $0
  1244  0838  2a0000            	LD HL, (_Ttmp6)
  1245  083b  110000            	LD DE, _r
  1246  083e  19                	ADD HL, DE
  1247  083f  220000            	LD (_Ttmp6), HL
  1248  0842  ed5b0000          	LD DE, (_Ttmp6)
  1249  0846  1a                	LD A, (DE)
  1250  0847  320000            	LD (_Ttmp59), A
  1251  084a  3a0000            	LD A, (_Tstr54)
  1252  084d  320000            	LD (_Ttmp21), A
  1253  0850  210000            	LD HL, _Tstr54
  1254  0853  220000            	LD (_Ttmp20), HL
  1255  0856  2a0000            	LD HL, (_Ttmp20)
  1256  0859  23                	INC HL
  1257  085a  220000            	LD (_Ttmp20), HL
  1258  085d  3a0000            	LD A, (_Ttmp59)
  1259  0860  47                	LD B, A
  1260  0861  cd0000            	CALL DSFREE
  1261  0864  3a0000            	LD A, (_Ttmp21)
  1262  0867  4f                	LD C, A
  1263  0868  cd0000            	CALL DSALLOC
  1264  086b  78                	LD A, B
  1265  086c  320000            	LD (_Ttmp59), A
  1266  086f  3a0000            	LD A, (_Ttmp59)
  1267  0872  47                	LD B, A
  1268  0873  cd0000            	CALL DSDESCRIPTOR
  1269  0876  dd7e00            	LD A, (IX)
  1270                          ; peephole(3): unread
  1271                          ;	LD (_Ttmp23), A
  1272  0879  dd7e00            	LD A, (IX+1)
  1273  087c  320000            	LD (_Ttmp22), A
  1274  087f  dd7e00            	LD A, (IX+2)
  1275  0882  320000            	LD (_Ttmp22+1), A
  1276  0885  2a0000            	LD HL, (_Ttmp20)
  1277  0888  ed5b0000          	LD DE, (_Ttmp22)
  1278  088c  3a0000            	LD A, (_Ttmp21)
  1279  088f  4f                	LD C, A
  1280  0890  0600              	LD B, 0
  1281  0892  cd0000            	CALL DUFFDEVICE
  1282  0895  ed5b0000          	LD DE, (_Ttmp6)
  1283  0899  3a0000            	LD A, (_Ttmp59)
  1284  089c  12                	LD (DE), A
  1285  089d  3e00              	LD A, $00
  1286  089f  320000            	LD (_Ttmp59), A
  1287                          	; P:100
  1288                          	; L:19
  1289  08a2  3e00              	LD A, $02
  1290  08a4  320000            	LD (_Ttmp1), A
  1291  08a7  3e00              	LD A, $01
  1292  08a9  320000            	LD (_Ttmp2), A
  1293  08ac  3e00              	LD A, $00
  1294  08ae  320000            	LD (_Ttmp6), A
  1295                          ; peephole(1): r250 (LD A, x; LD (x), A; LD A, x)->(LD A, x; LD (x), A)
  1296                          ;	LD A, $00
  1297  08b1  320000            	LD (_Ttmp6+1), A
  1298  08b4  3e00              	LD A, $00
  1299  08b6  320000            	LD (_Ttmp7), A
  1300                          ; peephole(1): r250 (LD A, x; LD (x), A; LD A, x)->(LD A, x; LD (x), A)
  1301                          ;	LD A, $00
  1302  08b9  320000            	LD (_Ttmp7+1), A
  1303  08bc  3a0000            	LD A, (_Ttmp1)
  1304  08bf  320000            	LD (_Ttmp7), A
  1305  08c2  2a0000            	LD HL, (_Ttmp6)
  1306  08c5  ed5b0000          	LD DE, (_Ttmp7)
  1307  08c9  19                	ADD HL, DE
  1308  08ca  220000            	LD (_Ttmp6), HL
  1309  08cd  3e00              	LD A, $03
  1310  08cf  320000            	LD (_Ttmp5), A
  1311  08d2  3e00              	LD A, $00
  1312  08d4  320000            	LD (_Ttmp5+1), A
  1313                          ; peephole(1): r250 (LD A, x; LD (x), A; LD A, x)->(LD A, x; LD (x), A)
  1314                          ;	LD A, $00
  1315  08d7  320000            	LD (_Ttmp11), A
  1316  08da  3e00              	LD A, $00
  1317  08dc  320000            	LD (_Ttmp11+1), A
  1318  08df  3a0000            	LD A, (_Ttmp2)
  1319  08e2  320000            	LD (_Ttmp11), A
  1320  08e5  ed4b0000          	LD BC, (_Ttmp11)
  1321  08e9  ed5b0000          	LD DE, (_Ttmp5)
  1322  08ed  79                	LD A, C
  1323  08ee  48                	LD C, B
  1324  08ef  210000            	LD HL, 0
  1325  08f2  0600              	LD B, 16
  1326                          _label64:
  1327  08f4  29                	ADD HL, HL
  1328  08f5  17                	RLA
  1329  08f6  cb11              	RL C
  1330  08f8  3000              	JR NC,_label64b2
  1331  08fa  19                	ADD HL, DE
  1332  08fb  ce00              	ADC A, 0
  1333  08fd  d20000            	JP NC,_label64b2
  1334  0900  0c                	INC C
  1335                          _label64b2:
  1336  0901  1000              	DJNZ _label64
  1337  0903  41                	LD B, C
  1338  0904  4f                	LD C, A
  1339  0905  220000            	LD (_Ttmp15), HL
  1340  0908  ed430000          	LD (_Ttmp15+2), BC
  1341  090c  3a0000            	LD A, (_Ttmp15)
  1342  090f  320000            	LD (_Ttmp17), A
  1343  0912  3a0000            	LD A, (_Ttmp15+1)
  1344  0915  320000            	LD (_Ttmp17+1), A
  1345  0918  2a0000            	LD HL, (_Ttmp6)
  1346  091b  ed5b0000          	LD DE, (_Ttmp17)
  1347  091f  19                	ADD HL, DE
  1348  0920  220000            	LD (_Ttmp6), HL
  1349  0923  e600              	AND $0
  1350  0925  2a0000            	LD HL, (_Ttmp6)
  1351  0928  110000            	LD DE, _r
  1352  092b  19                	ADD HL, DE
  1353  092c  220000            	LD (_Ttmp6), HL
  1354  092f  ed5b0000          	LD DE, (_Ttmp6)
  1355  0933  1a                	LD A, (DE)
  1356  0934  320000            	LD (_Ttmp65), A
  1357  0937  3a0000            	LD A, (_Tstr60)
  1358  093a  320000            	LD (_Ttmp21), A
  1359  093d  210000            	LD HL, _Tstr60
  1360  0940  220000            	LD (_Ttmp20), HL
  1361  0943  2a0000            	LD HL, (_Ttmp20)
  1362  0946  23                	INC HL
  1363  0947  220000            	LD (_Ttmp20), HL
  1364  094a  3a0000            	LD A, (_Ttmp65)
  1365  094d  47                	LD B, A
  1366  094e  cd0000            	CALL DSFREE
  1367  0951  3a0000            	LD A, (_Ttmp21)
  1368  0954  4f                	LD C, A
  1369  0955  cd0000            	CALL DSALLOC
  1370  0958  78                	LD A, B
  1371  0959  320000            	LD (_Ttmp65), A
  1372  095c  3a0000            	LD A, (_Ttmp65)
  1373  095f  47                	LD B, A
  1374  0960  cd0000            	CALL DSDESCRIPTOR
  1375  0963  dd7e00            	LD A, (IX)
  1376                          ; peephole(3): unread
  1377                          ;	LD (_Ttmp23), A
  1378  0966  dd7e00            	LD A, (IX+1)
  1379  0969  320000            	LD (_Ttmp22), A
  1380  096c  dd7e00            	LD A, (IX+2)
  1381  096f  320000            	LD (_Ttmp22+1), A
  1382  0972  2a0000            	LD HL, (_Ttmp20)
  1383  0975  ed5b0000          	LD DE, (_Ttmp22)
  1384  0979  3a0000            	LD A, (_Ttmp21)
  1385  097c  4f                	LD C, A
  1386  097d  0600              	LD B, 0
  1387  097f  cd0000            	CALL DUFFDEVICE
  1388  0982  ed5b0000          	LD DE, (_Ttmp6)
  1389  0986  3a0000            	LD A, (_Ttmp65)
  1390  0989  12                	LD (DE), A
  1391  098a  3e00              	LD A, $00
  1392  098c  320000            	LD (_Ttmp65), A
  1393                          	; P:100
  1394                          	; L:20
  1395  098f  3e00              	LD A, $02
  1396  0991  320000            	LD (_Ttmp1), A
  1397                          ; peephole(1): r250 (LD A, x; LD (x), A; LD A, x)->(LD A, x; LD (x), A)
  1398                          ;	LD A, $02
  1399  0994  320000            	LD (_Ttmp2), A
  1400  0997  3e00              	LD A, $00
  1401  0999  320000            	LD (_Ttmp6), A
  1402                          ; peephole(1): r250 (LD A, x; LD (x), A; LD A, x)->(LD A, x; LD (x), A)
  1403                          ;	LD A, $00
  1404  099c  320000            	LD (_Ttmp6+1), A
  1405  099f  3e00              	LD A, $00
  1406  09a1  320000            	LD (_Ttmp7), A
  1407                          ; peephole(1): r250 (LD A, x; LD (x), A; LD A, x)->(LD A, x; LD (x), A)
  1408                          ;	LD A, $00
  1409  09a4  320000            	LD (_Ttmp7+1), A
  1410  09a7  3a0000            	LD A, (_Ttmp1)
  1411  09aa  320000            	LD (_Ttmp7), A
  1412  09ad  2a0000            	LD HL, (_Ttmp6)
  1413  09b0  ed5b0000          	LD DE, (_Ttmp7)
  1414  09b4  19                	ADD HL, DE
  1415  09b5  220000            	LD (_Ttmp6), HL
  1416  09b8  3e00              	LD A, $03
  1417  09ba  320000            	LD (_Ttmp5), A
  1418  09bd  3e00              	LD A, $00
  1419  09bf  320000            	LD (_Ttmp5+1), A
  1420                          ; peephole(1): r250 (LD A, x; LD (x), A; LD A, x)->(LD A, x; LD (x), A)
  1421                          ;	LD A, $00
  1422  09c2  320000            	LD (_Ttmp11), A
  1423  09c5  3e00              	LD A, $00
  1424  09c7  320000            	LD (_Ttmp11+1), A
  1425  09ca  3a0000            	LD A, (_Ttmp2)
  1426  09cd  320000            	LD (_Ttmp11), A
  1427  09d0  ed4b0000          	LD BC, (_Ttmp11)
  1428  09d4  ed5b0000          	LD DE, (_Ttmp5)
  1429  09d8  79                	LD A, C
  1430  09d9  48                	LD C, B
  1431  09da  210000            	LD HL, 0
  1432  09dd  0600              	LD B, 16
  1433                          _label70:
  1434  09df  29                	ADD HL, HL
  1435  09e0  17                	RLA
  1436  09e1  cb11              	RL C
  1437  09e3  3000              	JR NC,_label70b2
  1438  09e5  19                	ADD HL, DE
  1439  09e6  ce00              	ADC A, 0
  1440  09e8  d20000            	JP NC,_label70b2
  1441  09eb  0c                	INC C
  1442                          _label70b2:
  1443  09ec  1000              	DJNZ _label70
  1444  09ee  41                	LD B, C
  1445  09ef  4f                	LD C, A
  1446  09f0  220000            	LD (_Ttmp15), HL
  1447  09f3  ed430000          	LD (_Ttmp15+2), BC
  1448  09f7  3a0000            	LD A, (_Ttmp15)
  1449  09fa  320000            	LD (_Ttmp17), A
  1450  09fd  3a0000            	LD A, (_Ttmp15+1)
  1451  0a00  320000            	LD (_Ttmp17+1), A
  1452  0a03  2a0000            	LD HL, (_Ttmp6)
  1453  0a06  ed5b0000          	LD DE, (_Ttmp17)
  1454  0a0a  19                	ADD HL, DE
  1455  0a0b  220000            	LD (_Ttmp6), HL
  1456  0a0e  e600              	AND $0
  1457  0a10  2a0000            	LD HL, (_Ttmp6)
  1458  0a13  110000            	LD DE, _r
  1459  0a16  19                	ADD HL, DE
  1460  0a17  220000            	LD (_Ttmp6), HL
  1461  0a1a  ed5b0000          	LD DE, (_Ttmp6)
  1462  0a1e  1a                	LD A, (DE)
  1463  0a1f  320000            	LD (_Ttmp71), A
  1464  0a22  3a0000            	LD A, (_Tstr66)
  1465  0a25  320000            	LD (_Ttmp21), A
  1466  0a28  210000            	LD HL, _Tstr66
  1467  0a2b  220000            	LD (_Ttmp20), HL
  1468  0a2e  2a0000            	LD HL, (_Ttmp20)
  1469  0a31  23                	INC HL
  1470  0a32  220000            	LD (_Ttmp20), HL
  1471  0a35  3a0000            	LD A, (_Ttmp71)
  1472  0a38  47                	LD B, A
  1473  0a39  cd0000            	CALL DSFREE
  1474  0a3c  3a0000            	LD A, (_Ttmp21)
  1475  0a3f  4f                	LD C, A
  1476  0a40  cd0000            	CALL DSALLOC
  1477  0a43  78                	LD A, B
  1478  0a44  320000            	LD (_Ttmp71), A
  1479  0a47  3a0000            	LD A, (_Ttmp71)
  1480  0a4a  47                	LD B, A
  1481  0a4b  cd0000            	CALL DSDESCRIPTOR
  1482  0a4e  dd7e00            	LD A, (IX)
  1483                          ; peephole(3): unread
  1484                          ;	LD (_Ttmp23), A
  1485  0a51  dd7e00            	LD A, (IX+1)
  1486  0a54  320000            	LD (_Ttmp22), A
  1487  0a57  dd7e00            	LD A, (IX+2)
  1488  0a5a  320000            	LD (_Ttmp22+1), A
  1489  0a5d  2a0000            	LD HL, (_Ttmp20)
  1490  0a60  ed5b0000          	LD DE, (_Ttmp22)
  1491  0a64  3a0000            	LD A, (_Ttmp21)
  1492  0a67  4f                	LD C, A
  1493  0a68  0600              	LD B, 0
  1494  0a6a  cd0000            	CALL DUFFDEVICE
  1495  0a6d  ed5b0000          	LD DE, (_Ttmp6)
  1496  0a71  3a0000            	LD A, (_Ttmp71)
  1497  0a74  12                	LD (DE), A
  1498  0a75  3e00              	LD A, $00
  1499  0a77  320000            	LD (_Ttmp71), A
  1500                          	; P:100
  1501                          	; L:21
  1502                          	; P:0
  1503                          	; L:22
  1504                          	; P:0
  1505                          	; L:23
  1506                          	; P:0
  1507                          	; L:24
  1508                          	; P:0
  1509                          	; L:25
  1510                          	; P:0
  1511                          	; L:26
  1512                          	; P:0
  1513                          	; L:27
  1514                          	; P:0
  1515                          	; L:28
  1516                          	; P:0
  1517                          	; L:29
  1518                          	; P:0
  1519                          	; L:30
  1520                          	; P:0
  1521                          	; L:31
  1522                          	; P:0
  1523                          	; L:32
  1524                          	; P:0
  1525                          	; L:33
  1526                          	; P:0
  1527                          	; L:34
  1528  0a7a  c30000            	jp initGameafter
  1529                          initGame:
  1530                          	; P:2
  1531                          	; L:35
  1532                          	; P:0
  1533                          	; L:36
  1534                          	; P:0
  1535                          	; L:37
  1536                          	; P:0
  1537                          	; L:38
  1538                          	; P:0
  1539                          	; L:39
  1540                          	; P:0
  1541                          	; L:40
  1542                          	; P:0
  1543                          	; L:41
  1544                          	; P:0
  1545                          	; L:42
  1546                          	; P:0
  1547                          	; L:43
  1548  0a7d  3e00              	LD A, $0f
  1549  0a7f  320000            	LD (_initGame_Ttmp72), A
  1550                          	 ; variable_move_8bit_8bit
  1551                          	 ; 8 BIT (unsigned) -> 8 BIT (unsigned)
  1552  0a82  3a0000            	LD A, (_initGame_Ttmp72)
  1553  0a85  320000            	LD (_charPoints), A
  1554                          	; P:4
  1555                          	; L:44
  1556  0a88  3e00              	LD A, $00
  1557  0a8a  320000            	LD (_initGame_Ttmp72), A
  1558  0a8d  3e00              	LD A, $03
  1559  0a8f  320000            	LD (_initGame_Ttmp73), A
  1560  0a92  3e00              	LD A, $00
  1561  0a94  320000            	LD (_initGame_Ttmp75), A
  1562                          ; peephole(1): r250 (LD A, x; LD (x), A; LD A, x)->(LD A, x; LD (x), A)
  1563                          ;	LD A, $00
  1564  0a97  320000            	LD (_initGame_Ttmp75+1), A
  1565  0a9a  3a0000            	LD A, (_initGame_Ttmp73)
  1566  0a9d  320000            	LD (_initGame_Ttmp75), A
  1567  0aa0  3e00              	LD A, $00
  1568  0aa2  320000            	LD (_initGame_Ttmp81), A
  1569                          ; peephole(1): r250 (LD A, x; LD (x), A; LD A, x)->(LD A, x; LD (x), A)
  1570                          ;	LD A, $00
  1571  0aa5  320000            	LD (_initGame_Ttmp81+1), A
  1572  0aa8  3e00              	LD A, $00
  1573  0aaa  320000            	LD (_initGame_Ttmp82), A
  1574                          ; peephole(1): r250 (LD A, x; LD (x), A; LD A, x)->(LD A, x; LD (x), A)
  1575                          ;	LD A, $00
  1576  0aad  320000            	LD (_initGame_Ttmp82+1), A
  1577  0ab0  3a0000            	LD A, (_initGame_Ttmp72)
  1578  0ab3  320000            	LD (_initGame_Ttmp82), A
  1579  0ab6  2a0000            	LD HL, (_initGame_Ttmp81)
  1580  0ab9  ed5b0000          	LD DE, (_initGame_Ttmp82)
  1581  0abd  19                	ADD HL, DE
  1582  0abe  220000            	LD (_initGame_Ttmp81), HL
  1583  0ac1  3a0000            	LD A, (_initGame_Ttmp81)
  1584  0ac4  320000            	LD (_initGame_Ttmp86), A
  1585  0ac7  3a0000            	LD A, (_initGame_Ttmp81+1)
  1586  0aca  320000            	LD (_initGame_Ttmp86+1), A
  1587  0acd  2a0000            	LD HL, (_initGame_Ttmp86)
  1588                          ; peephole(1): r349 (SLA+RL)->(ADD)
  1589                          ;	SLA L
  1590  0ad0  29                	ADD HL, HL
  1591                          ;	RL H
  1592  0ad1  220000            	LD (_initGame_Ttmp86), HL
  1593  0ad4  e600              	AND $0
  1594  0ad6  2a0000            	LD HL, (_initGame_Ttmp86)
  1595  0ad9  110000            	LD DE, _partystr
  1596  0adc  19                	ADD HL, DE
  1597  0add  220000            	LD (_initGame_Ttmp86), HL
  1598  0ae0  ed5b0000          	LD DE, (_initGame_Ttmp86)
  1599  0ae4  2a0000            	LD HL, (_initGame_Ttmp75)
  1600  0ae7  7d                	LD A, L
  1601  0ae8  12                	LD (DE), A
  1602  0ae9  13                	INC DE
  1603  0aea  7c                	LD A, H
  1604  0aeb  12                	LD (DE), A
  1605                          	; P:44
  1606                          	; L:45
  1607  0aec  3e00              	LD A, $00
  1608  0aee  320000            	LD (_initGame_Ttmp72), A
  1609  0af1  3e00              	LD A, $03
  1610  0af3  320000            	LD (_initGame_Ttmp73), A
  1611  0af6  3e00              	LD A, $00
  1612  0af8  320000            	LD (_initGame_Ttmp75), A
  1613                          ; peephole(1): r250 (LD A, x; LD (x), A; LD A, x)->(LD A, x; LD (x), A)
  1614                          ;	LD A, $00
  1615  0afb  320000            	LD (_initGame_Ttmp75+1), A
  1616  0afe  3a0000            	LD A, (_initGame_Ttmp73)
  1617  0b01  320000            	LD (_initGame_Ttmp75), A
  1618  0b04  3e00              	LD A, $00
  1619  0b06  320000            	LD (_initGame_Ttmp81), A
  1620                          ; peephole(1): r250 (LD A, x; LD (x), A; LD A, x)->(LD A, x; LD (x), A)
  1621                          ;	LD A, $00
  1622  0b09  320000            	LD (_initGame_Ttmp81+1), A
  1623  0b0c  3e00              	LD A, $00
  1624  0b0e  320000            	LD (_initGame_Ttmp82), A
  1625                          ; peephole(1): r250 (LD A, x; LD (x), A; LD A, x)->(LD A, x; LD (x), A)
  1626                          ;	LD A, $00
  1627  0b11  320000            	LD (_initGame_Ttmp82+1), A
  1628  0b14  3a0000            	LD A, (_initGame_Ttmp72)
  1629  0b17  320000            	LD (_initGame_Ttmp82), A
  1630  0b1a  2a0000            	LD HL, (_initGame_Ttmp81)
  1631  0b1d  ed5b0000          	LD DE, (_initGame_Ttmp82)
  1632  0b21  19                	ADD HL, DE
  1633  0b22  220000            	LD (_initGame_Ttmp81), HL
  1634  0b25  3a0000            	LD A, (_initGame_Ttmp81)
  1635  0b28  320000            	LD (_initGame_Ttmp86), A
  1636  0b2b  3a0000            	LD A, (_initGame_Ttmp81+1)
  1637  0b2e  320000            	LD (_initGame_Ttmp86+1), A
  1638  0b31  2a0000            	LD HL, (_initGame_Ttmp86)
  1639                          ; peephole(1): r349 (SLA+RL)->(ADD)
  1640                          ;	SLA L
  1641  0b34  29                	ADD HL, HL
  1642                          ;	RL H
  1643  0b35  220000            	LD (_initGame_Ttmp86), HL
  1644  0b38  e600              	AND $0
  1645  0b3a  2a0000            	LD HL, (_initGame_Ttmp86)
  1646  0b3d  110000            	LD DE, _partyskill
  1647  0b40  19                	ADD HL, DE
  1648  0b41  220000            	LD (_initGame_Ttmp86), HL
  1649  0b44  ed5b0000          	LD DE, (_initGame_Ttmp86)
  1650  0b48  2a0000            	LD HL, (_initGame_Ttmp75)
  1651  0b4b  7d                	LD A, L
  1652  0b4c  12                	LD (DE), A
  1653  0b4d  13                	INC DE
  1654  0b4e  7c                	LD A, H
  1655  0b4f  12                	LD (DE), A
  1656                          	; P:44
  1657                          	; L:46
  1658  0b50  3e00              	LD A, $03
  1659  0b52  320000            	LD (_initGame_Ttmp72), A
  1660                          	 ; variable_move_8bit_8bit
  1661                          	 ; 8 BIT (unsigned) -> 8 BIT (unsigned)
  1662  0b55  3a0000            	LD A, (_initGame_Ttmp72)
  1663  0b58  320000            	LD (_charisma), A
  1664                          	; P:4
  1665                          	; L:47
  1666  0b5b  3e00              	LD A, $00
  1667  0b5d  320000            	LD (_initGame_Ttmp72), A
  1668                          	 ; variable_move_8bit_8bit
  1669                          	 ; 8 BIT (unsigned) -> 8 BIT (unsigned)
  1670  0b60  3a0000            	LD A, (_initGame_Ttmp72)
  1671  0b63  320000            	LD (_xlocation), A
  1672                          	; P:4
  1673                          	; L:48
  1674  0b66  3e00              	LD A, $01
  1675  0b68  320000            	LD (_initGame_Ttmp72), A
  1676                          	 ; variable_move_8bit_8bit
  1677                          	 ; 8 BIT (unsigned) -> 8 BIT (unsigned)
  1678  0b6b  3a0000            	LD A, (_initGame_Ttmp72)
  1679  0b6e  320000            	LD (_ylocation), A
  1680                          	; P:4
  1681                          	; L:49
  1682                          	; P:0
  1683                          	; L:50
  1684  0b71  3e00              	LD A, $00
  1685  0b73  320000            	LD (_initGame_Ttmp72), A
  1686                          ; peephole(1): r250 (LD A, x; LD (x), A; LD A, x)->(LD A, x; LD (x), A)
  1687                          ;	LD A, $00
  1688  0b76  320000            	LD (_initGame_Ttmp73), A
  1689  0b79  3e00              	LD A, $00
  1690  0b7b  320000            	LD (_initGame_Ttmp80), A
  1691                          ; peephole(1): r250 (LD A, x; LD (x), A; LD A, x)->(LD A, x; LD (x), A)
  1692                          ;	LD A, $00
  1693  0b7e  320000            	LD (_initGame_Ttmp80+1), A
  1694  0b81  3e00              	LD A, $00
  1695  0b83  320000            	LD (_initGame_Ttmp81), A
  1696                          ; peephole(1): r250 (LD A, x; LD (x), A; LD A, x)->(LD A, x; LD (x), A)
  1697                          ;	LD A, $00
  1698  0b86  320000            	LD (_initGame_Ttmp81+1), A
  1699  0b89  3a0000            	LD A, (_initGame_Ttmp72)
  1700  0b8c  320000            	LD (_initGame_Ttmp81), A
  1701  0b8f  2a0000            	LD HL, (_initGame_Ttmp80)
  1702  0b92  ed5b0000          	LD DE, (_initGame_Ttmp81)
  1703  0b96  19                	ADD HL, DE
  1704  0b97  220000            	LD (_initGame_Ttmp80), HL
  1705  0b9a  3e00              	LD A, $03
  1706  0b9c  320000            	LD (_initGame_Ttmp75), A
  1707  0b9f  3e00              	LD A, $00
  1708  0ba1  320000            	LD (_initGame_Ttmp75+1), A
  1709                          ; peephole(1): r250 (LD A, x; LD (x), A; LD A, x)->(LD A, x; LD (x), A)
  1710                          ;	LD A, $00
  1711  0ba4  320000            	LD (_initGame_Ttmp82), A
  1712  0ba7  3e00              	LD A, $00
  1713  0ba9  320000            	LD (_initGame_Ttmp82+1), A
  1714  0bac  3a0000            	LD A, (_initGame_Ttmp73)
  1715  0baf  320000            	LD (_initGame_Ttmp82), A
  1716  0bb2  ed4b0000          	LD BC, (_initGame_Ttmp82)
  1717  0bb6  ed5b0000          	LD DE, (_initGame_Ttmp75)
  1718  0bba  79                	LD A, C
  1719  0bbb  48                	LD C, B
  1720  0bbc  210000            	LD HL, 0
  1721  0bbf  0600              	LD B, 16
  1722                          _label98:
  1723  0bc1  29                	ADD HL, HL
  1724  0bc2  17                	RLA
  1725  0bc3  cb11              	RL C
  1726  0bc5  3000              	JR NC,_label98b2
  1727  0bc7  19                	ADD HL, DE
  1728  0bc8  ce00              	ADC A, 0
  1729  0bca  d20000            	JP NC,_label98b2
  1730  0bcd  0c                	INC C
  1731                          _label98b2:
  1732  0bce  1000              	DJNZ _label98
  1733  0bd0  41                	LD B, C
  1734  0bd1  4f                	LD C, A
  1735  0bd2  220000            	LD (_initGame_Ttmp97), HL
  1736  0bd5  ed430000          	LD (_initGame_Ttmp97+2), BC
  1737  0bd9  3a0000            	LD A, (_initGame_Ttmp97)
  1738  0bdc  320000            	LD (_initGame_Ttmp86), A
  1739  0bdf  3a0000            	LD A, (_initGame_Ttmp97+1)
  1740  0be2  320000            	LD (_initGame_Ttmp86+1), A
  1741  0be5  2a0000            	LD HL, (_initGame_Ttmp80)
  1742  0be8  ed5b0000          	LD DE, (_initGame_Ttmp86)
  1743  0bec  19                	ADD HL, DE
  1744  0bed  220000            	LD (_initGame_Ttmp80), HL
  1745  0bf0  e600              	AND $0
  1746  0bf2  2a0000            	LD HL, (_initGame_Ttmp80)
  1747  0bf5  110000            	LD DE, _lockeddoors
  1748  0bf8  19                	ADD HL, DE
  1749  0bf9  220000            	LD (_initGame_Ttmp80), HL
  1750  0bfc  ed5b0000          	LD DE, (_initGame_Ttmp80)
  1751  0c00  1a                	LD A, (DE)
  1752  0c01  320000            	LD (_initGame_Ttmp100), A
  1753  0c04  3a0000            	LD A, (_initGame_Tstr93)
  1754  0c07  320000            	LD (_initGame_Ttmp102), A
  1755  0c0a  210000            	LD HL, _initGame_Tstr93
  1756  0c0d  220000            	LD (_initGame_Ttmp101), HL
  1757  0c10  2a3600            	LD HL, (_initGame_Ttmp101)
  1758  0c13  23                	INC HL
  1759  0c14  223600            	LD (_initGame_Ttmp101), HL
  1760  0c17  3a3500            	LD A, (_initGame_Ttmp100)
  1761  0c1a  47                	LD B, A
  1762  0c1b  cd6501            	CALL DSFREE
  1763  0c1e  3a3800            	LD A, (_initGame_Ttmp102)
  1764  0c21  4f                	LD C, A
  1765  0c22  cd4e01            	CALL DSALLOC
  1766  0c25  78                	LD A, B
  1767  0c26  323500            	LD (_initGame_Ttmp100), A
  1768  0c29  3a3500            	LD A, (_initGame_Ttmp100)
  1769  0c2c  47                	LD B, A
  1770  0c2d  cdaa02            	CALL DSDESCRIPTOR
  1771  0c30  dd7e00            	LD A, (IX)
  1772                          ; peephole(3): unread
  1773                          ;	LD (_initGame_Ttmp104), A
  1774  0c33  dd7e01            	LD A, (IX+1)
  1775  0c36  323900            	LD (_initGame_Ttmp103), A
  1776  0c39  dd7e02            	LD A, (IX+2)
  1777  0c3c  323a00            	LD (_initGame_Ttmp103+1), A
  1778  0c3f  2a3600            	LD HL, (_initGame_Ttmp101)
  1779  0c42  ed5b3900          	LD DE, (_initGame_Ttmp103)
  1780  0c46  3a3800            	LD A, (_initGame_Ttmp102)
  1781  0c49  4f                	LD C, A
  1782  0c4a  0600              	LD B, 0
  1783  0c4c  cdee02            	CALL DUFFDEVICE
  1784  0c4f  ed5b2900          	LD DE, (_initGame_Ttmp80)
  1785  0c53  3a3500            	LD A, (_initGame_Ttmp100)
  1786  0c56  12                	LD (DE), A
  1787  0c57  3e00              	LD A, $00
  1788  0c59  323500            	LD (_initGame_Ttmp100), A
  1789                          	; P:100
  1790                          	; L:51
  1791                          ; peephole(1): r250 (LD A, x; LD (x), A; LD A, x)->(LD A, x; LD (x), A)
  1792                          ;	LD A, $00
  1793  0c5c  322400            	LD (_initGame_Ttmp72), A
  1794  0c5f  3e01              	LD A, $01
  1795  0c61  322500            	LD (_initGame_Ttmp73), A
  1796  0c64  3e00              	LD A, $00
  1797  0c66  322900            	LD (_initGame_Ttmp80), A
  1798                          ; peephole(1): r250 (LD A, x; LD (x), A; LD A, x)->(LD A, x; LD (x), A)
  1799                          ;	LD A, $00
  1800  0c69  322a00            	LD (_initGame_Ttmp80+1), A
  1801  0c6c  3e00              	LD A, $00
  1802  0c6e  322b00            	LD (_initGame_Ttmp81), A
  1803                          ; peephole(1): r250 (LD A, x; LD (x), A; LD A, x)->(LD A, x; LD (x), A)
  1804                          ;	LD A, $00
  1805  0c71  322c00            	LD (_initGame_Ttmp81+1), A
  1806  0c74  3a2400            	LD A, (_initGame_Ttmp72)
  1807  0c77  322b00            	LD (_initGame_Ttmp81), A
  1808  0c7a  2a2900            	LD HL, (_initGame_Ttmp80)
  1809  0c7d  ed5b2b00          	LD DE, (_initGame_Ttmp81)
  1810  0c81  19                	ADD HL, DE
  1811  0c82  222900            	LD (_initGame_Ttmp80), HL
  1812  0c85  3e03              	LD A, $03
  1813  0c87  322600            	LD (_initGame_Ttmp75), A
  1814  0c8a  3e00              	LD A, $00
  1815  0c8c  322700            	LD (_initGame_Ttmp75+1), A
  1816                          ; peephole(1): r250 (LD A, x; LD (x), A; LD A, x)->(LD A, x; LD (x), A)
  1817                          ;	LD A, $00
  1818  0c8f  322d00            	LD (_initGame_Ttmp82), A
  1819  0c92  3e00              	LD A, $00
  1820  0c94  322e00            	LD (_initGame_Ttmp82+1), A
  1821  0c97  3a2500            	LD A, (_initGame_Ttmp73)
  1822  0c9a  322d00            	LD (_initGame_Ttmp82), A
  1823  0c9d  ed4b2d00          	LD BC, (_initGame_Ttmp82)
  1824  0ca1  ed5b2600          	LD DE, (_initGame_Ttmp75)
  1825  0ca5  79                	LD A, C
  1826  0ca6  48                	LD C, B
  1827  0ca7  210000            	LD HL, 0
  1828  0caa  0610              	LD B, 16
  1829                          _label108:
  1830  0cac  29                	ADD HL, HL
  1831  0cad  17                	RLA
  1832  0cae  cb11              	RL C
  1833  0cb0  3007              	JR NC,_label108b2
  1834  0cb2  19                	ADD HL, DE
  1835  0cb3  ce00              	ADC A, 0
  1836  0cb5  d2b90c            	JP NC,_label108b2
  1837  0cb8  0c                	INC C
  1838                          _label108b2:
  1839  0cb9  10f1              	DJNZ _label108
  1840  0cbb  41                	LD B, C
  1841  0cbc  4f                	LD C, A
  1842  0cbd  223100            	LD (_initGame_Ttmp97), HL
  1843  0cc0  ed433300          	LD (_initGame_Ttmp97+2), BC
  1844  0cc4  3a3100            	LD A, (_initGame_Ttmp97)
  1845  0cc7  322f00            	LD (_initGame_Ttmp86), A
  1846  0cca  3a3200            	LD A, (_initGame_Ttmp97+1)
  1847  0ccd  323000            	LD (_initGame_Ttmp86+1), A
  1848  0cd0  2a2900            	LD HL, (_initGame_Ttmp80)
  1849  0cd3  ed5b2f00          	LD DE, (_initGame_Ttmp86)
  1850  0cd7  19                	ADD HL, DE
  1851  0cd8  222900            	LD (_initGame_Ttmp80), HL
  1852  0cdb  e600              	AND $0
  1853  0cdd  2a2900            	LD HL, (_initGame_Ttmp80)
  1854  0ce0  116971            	LD DE, _lockeddoors
  1855  0ce3  19                	ADD HL, DE
  1856  0ce4  222900            	LD (_initGame_Ttmp80), HL
  1857  0ce7  ed5b2900          	LD DE, (_initGame_Ttmp80)
  1858  0ceb  1a                	LD A, (DE)
  1859  0cec  323b00            	LD (_initGame_Ttmp109), A
  1860  0cef  3a0000            	LD A, (_initGame_Tstr105)
  1861  0cf2  323800            	LD (_initGame_Ttmp102), A
  1862  0cf5  210000            	LD HL, _initGame_Tstr105
  1863  0cf8  223600            	LD (_initGame_Ttmp101), HL
  1864  0cfb  2a3600            	LD HL, (_initGame_Ttmp101)
  1865  0cfe  23                	INC HL
  1866  0cff  223600            	LD (_initGame_Ttmp101), HL
  1867  0d02  3a3b00            	LD A, (_initGame_Ttmp109)
  1868  0d05  47                	LD B, A
  1869  0d06  cd6501            	CALL DSFREE
  1870  0d09  3a3800            	LD A, (_initGame_Ttmp102)
  1871  0d0c  4f                	LD C, A
  1872  0d0d  cd4e01            	CALL DSALLOC
  1873  0d10  78                	LD A, B
  1874  0d11  323b00            	LD (_initGame_Ttmp109), A
  1875  0d14  3a3b00            	LD A, (_initGame_Ttmp109)
  1876  0d17  47                	LD B, A
  1877  0d18  cdaa02            	CALL DSDESCRIPTOR
  1878  0d1b  dd7e00            	LD A, (IX)
  1879                          ; peephole(3): unread
  1880                          ;	LD (_initGame_Ttmp104), A
  1881  0d1e  dd7e01            	LD A, (IX+1)
  1882  0d21  323900            	LD (_initGame_Ttmp103), A
  1883  0d24  dd7e02            	LD A, (IX+2)
  1884  0d27  323a00            	LD (_initGame_Ttmp103+1), A
  1885  0d2a  2a3600            	LD HL, (_initGame_Ttmp101)
  1886  0d2d  ed5b3900          	LD DE, (_initGame_Ttmp103)
  1887  0d31  3a3800            	LD A, (_initGame_Ttmp102)
  1888  0d34  4f                	LD C, A
  1889  0d35  0600              	LD B, 0
  1890  0d37  cdee02            	CALL DUFFDEVICE
  1891  0d3a  ed5b2900          	LD DE, (_initGame_Ttmp80)
  1892  0d3e  3a3b00            	LD A, (_initGame_Ttmp109)
  1893  0d41  12                	LD (DE), A
  1894  0d42  3e00              	LD A, $00
  1895  0d44  323b00            	LD (_initGame_Ttmp109), A
  1896                          	; P:100
  1897                          	; L:52
  1898  0d47  3e01              	LD A, $01
  1899  0d49  322400            	LD (_initGame_Ttmp72), A
  1900  0d4c  3e02              	LD A, $02
  1901  0d4e  322500            	LD (_initGame_Ttmp73), A
  1902  0d51  3e00              	LD A, $00
  1903  0d53  322900            	LD (_initGame_Ttmp80), A
  1904                          ; peephole(1): r250 (LD A, x; LD (x), A; LD A, x)->(LD A, x; LD (x), A)
  1905                          ;	LD A, $00
  1906  0d56  322a00            	LD (_initGame_Ttmp80+1), A
  1907  0d59  3e00              	LD A, $00
  1908  0d5b  322b00            	LD (_initGame_Ttmp81), A
  1909                          ; peephole(1): r250 (LD A, x; LD (x), A; LD A, x)->(LD A, x; LD (x), A)
  1910                          ;	LD A, $00
  1911  0d5e  322c00            	LD (_initGame_Ttmp81+1), A
  1912  0d61  3a2400            	LD A, (_initGame_Ttmp72)
  1913  0d64  322b00            	LD (_initGame_Ttmp81), A
  1914  0d67  2a2900            	LD HL, (_initGame_Ttmp80)
  1915  0d6a  ed5b2b00          	LD DE, (_initGame_Ttmp81)
  1916  0d6e  19                	ADD HL, DE
  1917  0d6f  222900            	LD (_initGame_Ttmp80), HL
  1918  0d72  3e03              	LD A, $03
  1919  0d74  322600            	LD (_initGame_Ttmp75), A
  1920  0d77  3e00              	LD A, $00
  1921  0d79  322700            	LD (_initGame_Ttmp75+1), A
  1922                          ; peephole(1): r250 (LD A, x; LD (x), A; LD A, x)->(LD A, x; LD (x), A)
  1923                          ;	LD A, $00
  1924  0d7c  322d00            	LD (_initGame_Ttmp82), A
  1925  0d7f  3e00              	LD A, $00
  1926  0d81  322e00            	LD (_initGame_Ttmp82+1), A
  1927  0d84  3a2500            	LD A, (_initGame_Ttmp73)
  1928  0d87  322d00            	LD (_initGame_Ttmp82), A
  1929  0d8a  ed4b2d00          	LD BC, (_initGame_Ttmp82)
  1930  0d8e  ed5b2600          	LD DE, (_initGame_Ttmp75)
  1931  0d92  79                	LD A, C
  1932  0d93  48                	LD C, B
  1933  0d94  210000            	LD HL, 0
  1934  0d97  0610              	LD B, 16
  1935                          _label113:
  1936  0d99  29                	ADD HL, HL
  1937  0d9a  17                	RLA
  1938  0d9b  cb11              	RL C
  1939  0d9d  3007              	JR NC,_label113b2
  1940  0d9f  19                	ADD HL, DE
  1941  0da0  ce00              	ADC A, 0
  1942  0da2  d2a60d            	JP NC,_label113b2
  1943  0da5  0c                	INC C
  1944                          _label113b2:
  1945  0da6  10f1              	DJNZ _label113
  1946  0da8  41                	LD B, C
  1947  0da9  4f                	LD C, A
  1948  0daa  223100            	LD (_initGame_Ttmp97), HL
  1949  0dad  ed433300          	LD (_initGame_Ttmp97+2), BC
  1950  0db1  3a3100            	LD A, (_initGame_Ttmp97)
  1951  0db4  322f00            	LD (_initGame_Ttmp86), A
  1952  0db7  3a3200            	LD A, (_initGame_Ttmp97+1)
  1953  0dba  323000            	LD (_initGame_Ttmp86+1), A
  1954  0dbd  2a2900            	LD HL, (_initGame_Ttmp80)
  1955  0dc0  ed5b2f00          	LD DE, (_initGame_Ttmp86)
  1956  0dc4  19                	ADD HL, DE
  1957  0dc5  222900            	LD (_initGame_Ttmp80), HL
  1958  0dc8  e600              	AND $0
  1959  0dca  2a2900            	LD HL, (_initGame_Ttmp80)
  1960  0dcd  116971            	LD DE, _lockeddoors
  1961  0dd0  19                	ADD HL, DE
  1962  0dd1  222900            	LD (_initGame_Ttmp80), HL
  1963  0dd4  ed5b2900          	LD DE, (_initGame_Ttmp80)
  1964  0dd8  1a                	LD A, (DE)
  1965  0dd9  323c00            	LD (_initGame_Ttmp114), A
  1966  0ddc  3a0000            	LD A, (_initGame_Tstr110)
  1967  0ddf  323800            	LD (_initGame_Ttmp102), A
  1968  0de2  210000            	LD HL, _initGame_Tstr110
  1969  0de5  223600            	LD (_initGame_Ttmp101), HL
  1970  0de8  2a3600            	LD HL, (_initGame_Ttmp101)
  1971  0deb  23                	INC HL
  1972  0dec  223600            	LD (_initGame_Ttmp101), HL
  1973  0def  3a3c00            	LD A, (_initGame_Ttmp114)
  1974  0df2  47                	LD B, A
  1975  0df3  cd6501            	CALL DSFREE
  1976  0df6  3a3800            	LD A, (_initGame_Ttmp102)
  1977  0df9  4f                	LD C, A
  1978  0dfa  cd4e01            	CALL DSALLOC
  1979  0dfd  78                	LD A, B
  1980  0dfe  323c00            	LD (_initGame_Ttmp114), A
  1981  0e01  3a3c00            	LD A, (_initGame_Ttmp114)
  1982  0e04  47                	LD B, A
  1983  0e05  cdaa02            	CALL DSDESCRIPTOR
  1984  0e08  dd7e00            	LD A, (IX)
  1985                          ; peephole(3): unread
  1986                          ;	LD (_initGame_Ttmp104), A
  1987  0e0b  dd7e01            	LD A, (IX+1)
  1988  0e0e  323900            	LD (_initGame_Ttmp103), A
  1989  0e11  dd7e02            	LD A, (IX+2)
  1990  0e14  323a00            	LD (_initGame_Ttmp103+1), A
  1991  0e17  2a3600            	LD HL, (_initGame_Ttmp101)
  1992  0e1a  ed5b3900          	LD DE, (_initGame_Ttmp103)
  1993  0e1e  3a3800            	LD A, (_initGame_Ttmp102)
  1994  0e21  4f                	LD C, A
  1995  0e22  0600              	LD B, 0
  1996  0e24  cdee02            	CALL DUFFDEVICE
  1997  0e27  ed5b2900          	LD DE, (_initGame_Ttmp80)
  1998  0e2b  3a3c00            	LD A, (_initGame_Ttmp114)
  1999  0e2e  12                	LD (DE), A
  2000  0e2f  3e00              	LD A, $00
  2001  0e31  323c00            	LD (_initGame_Ttmp114), A
  2002                          	; P:100
  2003                          	; L:53
  2004  0e34  3e01              	LD A, $01
  2005  0e36  322400            	LD (_initGame_Ttmp72), A
  2006  0e39  3e00              	LD A, $00
  2007  0e3b  322500            	LD (_initGame_Ttmp73), A
  2008                          ; peephole(1): r250 (LD A, x; LD (x), A; LD A, x)->(LD A, x; LD (x), A)
  2009                          ;	LD A, $00
  2010  0e3e  322900            	LD (_initGame_Ttmp80), A
  2011  0e41  3e00              	LD A, $00
  2012  0e43  322a00            	LD (_initGame_Ttmp80+1), A
  2013                          ; peephole(1): r250 (LD A, x; LD (x), A; LD A, x)->(LD A, x; LD (x), A)
  2014                          ;	LD A, $00
  2015  0e46  322b00            	LD (_initGame_Ttmp81), A
  2016  0e49  3e00              	LD A, $00
  2017  0e4b  322c00            	LD (_initGame_Ttmp81+1), A
  2018  0e4e  3a2400            	LD A, (_initGame_Ttmp72)
  2019  0e51  322b00            	LD (_initGame_Ttmp81), A
  2020  0e54  2a2900            	LD HL, (_initGame_Ttmp80)
  2021  0e57  ed5b2b00          	LD DE, (_initGame_Ttmp81)
  2022  0e5b  19                	ADD HL, DE
  2023  0e5c  222900            	LD (_initGame_Ttmp80), HL
  2024  0e5f  3e03              	LD A, $03
  2025  0e61  322600            	LD (_initGame_Ttmp75), A
  2026  0e64  3e00              	LD A, $00
  2027  0e66  322700            	LD (_initGame_Ttmp75+1), A
  2028                          ; peephole(1): r250 (LD A, x; LD (x), A; LD A, x)->(LD A, x; LD (x), A)
  2029                          ;	LD A, $00
  2030  0e69  322d00            	LD (_initGame_Ttmp82), A
  2031  0e6c  3e00              	LD A, $00
  2032  0e6e  322e00            	LD (_initGame_Ttmp82+1), A
  2033  0e71  3a2500            	LD A, (_initGame_Ttmp73)
  2034  0e74  322d00            	LD (_initGame_Ttmp82), A
  2035  0e77  ed4b2d00          	LD BC, (_initGame_Ttmp82)
  2036  0e7b  ed5b2600          	LD DE, (_initGame_Ttmp75)
  2037  0e7f  79                	LD A, C
  2038  0e80  48                	LD C, B
  2039  0e81  210000            	LD HL, 0
  2040  0e84  0610              	LD B, 16
  2041                          _label118:
  2042  0e86  29                	ADD HL, HL
  2043  0e87  17                	RLA
  2044  0e88  cb11              	RL C
  2045  0e8a  3007              	JR NC,_label118b2
  2046  0e8c  19                	ADD HL, DE
  2047  0e8d  ce00              	ADC A, 0
  2048  0e8f  d2930e            	JP NC,_label118b2
  2049  0e92  0c                	INC C
  2050                          _label118b2:
  2051  0e93  10f1              	DJNZ _label118
  2052  0e95  41                	LD B, C
  2053  0e96  4f                	LD C, A
  2054  0e97  223100            	LD (_initGame_Ttmp97), HL
  2055  0e9a  ed433300          	LD (_initGame_Ttmp97+2), BC
  2056  0e9e  3a3100            	LD A, (_initGame_Ttmp97)
  2057  0ea1  322f00            	LD (_initGame_Ttmp86), A
  2058  0ea4  3a3200            	LD A, (_initGame_Ttmp97+1)
  2059  0ea7  323000            	LD (_initGame_Ttmp86+1), A
  2060  0eaa  2a2900            	LD HL, (_initGame_Ttmp80)
  2061  0ead  ed5b2f00          	LD DE, (_initGame_Ttmp86)
  2062  0eb1  19                	ADD HL, DE
  2063  0eb2  222900            	LD (_initGame_Ttmp80), HL
  2064  0eb5  e600              	AND $0
  2065  0eb7  2a2900            	LD HL, (_initGame_Ttmp80)
  2066  0eba  116971            	LD DE, _lockeddoors
  2067  0ebd  19                	ADD HL, DE
  2068  0ebe  222900            	LD (_initGame_Ttmp80), HL
  2069  0ec1  ed5b2900          	LD DE, (_initGame_Ttmp80)
  2070  0ec5  1a                	LD A, (DE)
  2071  0ec6  323d00            	LD (_initGame_Ttmp119), A
  2072  0ec9  3a0000            	LD A, (_initGame_Tstr115)
  2073  0ecc  323800            	LD (_initGame_Ttmp102), A
  2074  0ecf  210000            	LD HL, _initGame_Tstr115
  2075  0ed2  223600            	LD (_initGame_Ttmp101), HL
  2076  0ed5  2a3600            	LD HL, (_initGame_Ttmp101)
  2077  0ed8  23                	INC HL
  2078  0ed9  223600            	LD (_initGame_Ttmp101), HL
  2079  0edc  3a3d00            	LD A, (_initGame_Ttmp119)
  2080  0edf  47                	LD B, A
  2081  0ee0  cd6501            	CALL DSFREE
  2082  0ee3  3a3800            	LD A, (_initGame_Ttmp102)
  2083  0ee6  4f                	LD C, A
  2084  0ee7  cd4e01            	CALL DSALLOC
  2085  0eea  78                	LD A, B
  2086  0eeb  323d00            	LD (_initGame_Ttmp119), A
  2087  0eee  3a3d00            	LD A, (_initGame_Ttmp119)
  2088  0ef1  47                	LD B, A
  2089  0ef2  cdaa02            	CALL DSDESCRIPTOR
  2090  0ef5  dd7e00            	LD A, (IX)
  2091                          ; peephole(3): unread
  2092                          ;	LD (_initGame_Ttmp104), A
  2093  0ef8  dd7e01            	LD A, (IX+1)
  2094  0efb  323900            	LD (_initGame_Ttmp103), A
  2095  0efe  dd7e02            	LD A, (IX+2)
  2096  0f01  323a00            	LD (_initGame_Ttmp103+1), A
  2097  0f04  2a3600            	LD HL, (_initGame_Ttmp101)
  2098  0f07  ed5b3900          	LD DE, (_initGame_Ttmp103)
  2099  0f0b  3a3800            	LD A, (_initGame_Ttmp102)
  2100  0f0e  4f                	LD C, A
  2101  0f0f  0600              	LD B, 0
  2102  0f11  cdee02            	CALL DUFFDEVICE
  2103  0f14  ed5b2900          	LD DE, (_initGame_Ttmp80)
  2104  0f18  3a3d00            	LD A, (_initGame_Ttmp119)
  2105  0f1b  12                	LD (DE), A
  2106  0f1c  3e00              	LD A, $00
  2107  0f1e  323d00            	LD (_initGame_Ttmp119), A
  2108                          	; P:100
  2109                          	; L:54
  2110  0f21  3e01              	LD A, $01
  2111  0f23  322400            	LD (_initGame_Ttmp72), A
  2112                          ; peephole(1): r250 (LD A, x; LD (x), A; LD A, x)->(LD A, x; LD (x), A)
  2113                          ;	LD A, $01
  2114  0f26  322500            	LD (_initGame_Ttmp73), A
  2115  0f29  3e00              	LD A, $00
  2116  0f2b  322900            	LD (_initGame_Ttmp80), A
  2117                          ; peephole(1): r250 (LD A, x; LD (x), A; LD A, x)->(LD A, x; LD (x), A)
  2118                          ;	LD A, $00
  2119  0f2e  322a00            	LD (_initGame_Ttmp80+1), A
  2120  0f31  3e00              	LD A, $00
  2121  0f33  322b00            	LD (_initGame_Ttmp81), A
  2122                          ; peephole(1): r250 (LD A, x; LD (x), A; LD A, x)->(LD A, x; LD (x), A)
  2123                          ;	LD A, $00
  2124  0f36  322c00            	LD (_initGame_Ttmp81+1), A
  2125  0f39  3a2400            	LD A, (_initGame_Ttmp72)
  2126  0f3c  322b00            	LD (_initGame_Ttmp81), A
  2127  0f3f  2a2900            	LD HL, (_initGame_Ttmp80)
  2128  0f42  ed5b2b00          	LD DE, (_initGame_Ttmp81)
  2129  0f46  19                	ADD HL, DE
  2130  0f47  222900            	LD (_initGame_Ttmp80), HL
  2131  0f4a  3e03              	LD A, $03
  2132  0f4c  322600            	LD (_initGame_Ttmp75), A
  2133  0f4f  3e00              	LD A, $00
  2134  0f51  322700            	LD (_initGame_Ttmp75+1), A
  2135                          ; peephole(1): r250 (LD A, x; LD (x), A; LD A, x)->(LD A, x; LD (x), A)
  2136                          ;	LD A, $00
  2137  0f54  322d00            	LD (_initGame_Ttmp82), A
  2138  0f57  3e00              	LD A, $00
  2139  0f59  322e00            	LD (_initGame_Ttmp82+1), A
  2140  0f5c  3a2500            	LD A, (_initGame_Ttmp73)
  2141  0f5f  322d00            	LD (_initGame_Ttmp82), A
  2142  0f62  ed4b2d00          	LD BC, (_initGame_Ttmp82)
  2143  0f66  ed5b2600          	LD DE, (_initGame_Ttmp75)
  2144  0f6a  79                	LD A, C
  2145  0f6b  48                	LD C, B
  2146  0f6c  210000            	LD HL, 0
  2147  0f6f  0610              	LD B, 16
  2148                          _label123:
  2149  0f71  29                	ADD HL, HL
  2150  0f72  17                	RLA
  2151  0f73  cb11              	RL C
  2152  0f75  3007              	JR NC,_label123b2
  2153  0f77  19                	ADD HL, DE
  2154  0f78  ce00              	ADC A, 0
  2155  0f7a  d27e0f            	JP NC,_label123b2
  2156  0f7d  0c                	INC C
  2157                          _label123b2:
  2158  0f7e  10f1              	DJNZ _label123
  2159  0f80  41                	LD B, C
  2160  0f81  4f                	LD C, A
  2161  0f82  223100            	LD (_initGame_Ttmp97), HL
  2162  0f85  ed433300          	LD (_initGame_Ttmp97+2), BC
  2163  0f89  3a3100            	LD A, (_initGame_Ttmp97)
  2164  0f8c  322f00            	LD (_initGame_Ttmp86), A
  2165  0f8f  3a3200            	LD A, (_initGame_Ttmp97+1)
  2166  0f92  323000            	LD (_initGame_Ttmp86+1), A
  2167  0f95  2a2900            	LD HL, (_initGame_Ttmp80)
  2168  0f98  ed5b2f00          	LD DE, (_initGame_Ttmp86)
  2169  0f9c  19                	ADD HL, DE
  2170  0f9d  222900            	LD (_initGame_Ttmp80), HL
  2171  0fa0  e600              	AND $0
  2172  0fa2  2a2900            	LD HL, (_initGame_Ttmp80)
  2173  0fa5  116971            	LD DE, _lockeddoors
  2174  0fa8  19                	ADD HL, DE
  2175  0fa9  222900            	LD (_initGame_Ttmp80), HL
  2176  0fac  ed5b2900          	LD DE, (_initGame_Ttmp80)
  2177  0fb0  1a                	LD A, (DE)
  2178  0fb1  323e00            	LD (_initGame_Ttmp124), A
  2179  0fb4  3a0000            	LD A, (_initGame_Tstr120)
  2180  0fb7  323800            	LD (_initGame_Ttmp102), A
  2181  0fba  210000            	LD HL, _initGame_Tstr120
  2182  0fbd  223600            	LD (_initGame_Ttmp101), HL
  2183  0fc0  2a3600            	LD HL, (_initGame_Ttmp101)
  2184  0fc3  23                	INC HL
  2185  0fc4  223600            	LD (_initGame_Ttmp101), HL
  2186  0fc7  3a3e00            	LD A, (_initGame_Ttmp124)
  2187  0fca  47                	LD B, A
  2188  0fcb  cd6501            	CALL DSFREE
  2189  0fce  3a3800            	LD A, (_initGame_Ttmp102)
  2190  0fd1  4f                	LD C, A
  2191  0fd2  cd4e01            	CALL DSALLOC
  2192  0fd5  78                	LD A, B
  2193  0fd6  323e00            	LD (_initGame_Ttmp124), A
  2194  0fd9  3a3e00            	LD A, (_initGame_Ttmp124)
  2195  0fdc  47                	LD B, A
  2196  0fdd  cdaa02            	CALL DSDESCRIPTOR
  2197  0fe0  dd7e00            	LD A, (IX)
  2198                          ; peephole(3): unread
  2199                          ;	LD (_initGame_Ttmp104), A
  2200  0fe3  dd7e01            	LD A, (IX+1)
  2201  0fe6  323900            	LD (_initGame_Ttmp103), A
  2202  0fe9  dd7e02            	LD A, (IX+2)
  2203  0fec  323a00            	LD (_initGame_Ttmp103+1), A
  2204  0fef  2a3600            	LD HL, (_initGame_Ttmp101)
  2205  0ff2  ed5b3900          	LD DE, (_initGame_Ttmp103)
  2206  0ff6  3a3800            	LD A, (_initGame_Ttmp102)
  2207  0ff9  4f                	LD C, A
  2208  0ffa  0600              	LD B, 0
  2209  0ffc  cdee02            	CALL DUFFDEVICE
  2210  0fff  ed5b2900          	LD DE, (_initGame_Ttmp80)
  2211  1003  3a3e00            	LD A, (_initGame_Ttmp124)
  2212  1006  12                	LD (DE), A
  2213  1007  3e00              	LD A, $00
  2214  1009  323e00            	LD (_initGame_Ttmp124), A
  2215                          	; P:100
  2216                          	; L:55
  2217  100c  3e01              	LD A, $01
  2218  100e  322400            	LD (_initGame_Ttmp72), A
  2219  1011  3e02              	LD A, $02
  2220  1013  322500            	LD (_initGame_Ttmp73), A
  2221  1016  3e00              	LD A, $00
  2222  1018  322900            	LD (_initGame_Ttmp80), A
  2223                          ; peephole(1): r250 (LD A, x; LD (x), A; LD A, x)->(LD A, x; LD (x), A)
  2224                          ;	LD A, $00
  2225  101b  322a00            	LD (_initGame_Ttmp80+1), A
  2226  101e  3e00              	LD A, $00
  2227  1020  322b00            	LD (_initGame_Ttmp81), A
  2228                          ; peephole(1): r250 (LD A, x; LD (x), A; LD A, x)->(LD A, x; LD (x), A)
  2229                          ;	LD A, $00
  2230  1023  322c00            	LD (_initGame_Ttmp81+1), A
  2231  1026  3a2400            	LD A, (_initGame_Ttmp72)
  2232  1029  322b00            	LD (_initGame_Ttmp81), A
  2233  102c  2a2900            	LD HL, (_initGame_Ttmp80)
  2234  102f  ed5b2b00          	LD DE, (_initGame_Ttmp81)
  2235  1033  19                	ADD HL, DE
  2236  1034  222900            	LD (_initGame_Ttmp80), HL
  2237  1037  3e03              	LD A, $03
  2238  1039  322600            	LD (_initGame_Ttmp75), A
  2239  103c  3e00              	LD A, $00
  2240  103e  322700            	LD (_initGame_Ttmp75+1), A
  2241                          ; peephole(1): r250 (LD A, x; LD (x), A; LD A, x)->(LD A, x; LD (x), A)
  2242                          ;	LD A, $00
  2243  1041  322d00            	LD (_initGame_Ttmp82), A
  2244  1044  3e00              	LD A, $00
  2245  1046  322e00            	LD (_initGame_Ttmp82+1), A
  2246  1049  3a2500            	LD A, (_initGame_Ttmp73)
  2247  104c  322d00            	LD (_initGame_Ttmp82), A
  2248  104f  ed4b2d00          	LD BC, (_initGame_Ttmp82)
  2249  1053  ed5b2600          	LD DE, (_initGame_Ttmp75)
  2250  1057  79                	LD A, C
  2251  1058  48                	LD C, B
  2252  1059  210000            	LD HL, 0
  2253  105c  0610              	LD B, 16
  2254                          _label128:
  2255  105e  29                	ADD HL, HL
  2256  105f  17                	RLA
  2257  1060  cb11              	RL C
  2258  1062  3007              	JR NC,_label128b2
  2259  1064  19                	ADD HL, DE
  2260  1065  ce00              	ADC A, 0
  2261  1067  d26b10            	JP NC,_label128b2
  2262  106a  0c                	INC C
  2263                          _label128b2:
  2264  106b  10f1              	DJNZ _label128
  2265  106d  41                	LD B, C
  2266  106e  4f                	LD C, A
  2267  106f  223100            	LD (_initGame_Ttmp97), HL
  2268  1072  ed433300          	LD (_initGame_Ttmp97+2), BC
  2269  1076  3a3100            	LD A, (_initGame_Ttmp97)
  2270  1079  322f00            	LD (_initGame_Ttmp86), A
  2271  107c  3a3200            	LD A, (_initGame_Ttmp97+1)
  2272  107f  323000            	LD (_initGame_Ttmp86+1), A
  2273  1082  2a2900            	LD HL, (_initGame_Ttmp80)
  2274  1085  ed5b2f00          	LD DE, (_initGame_Ttmp86)
  2275  1089  19                	ADD HL, DE
  2276  108a  222900            	LD (_initGame_Ttmp80), HL
  2277  108d  e600              	AND $0
  2278  108f  2a2900            	LD HL, (_initGame_Ttmp80)
  2279  1092  116971            	LD DE, _lockeddoors
  2280  1095  19                	ADD HL, DE
  2281  1096  222900            	LD (_initGame_Ttmp80), HL
  2282  1099  ed5b2900          	LD DE, (_initGame_Ttmp80)
  2283  109d  1a                	LD A, (DE)
  2284  109e  323f00            	LD (_initGame_Ttmp129), A
  2285  10a1  3a0000            	LD A, (_initGame_Tstr125)
  2286  10a4  323800            	LD (_initGame_Ttmp102), A
  2287  10a7  210000            	LD HL, _initGame_Tstr125
  2288  10aa  223600            	LD (_initGame_Ttmp101), HL
  2289  10ad  2a3600            	LD HL, (_initGame_Ttmp101)
  2290  10b0  23                	INC HL
  2291  10b1  223600            	LD (_initGame_Ttmp101), HL
  2292  10b4  3a3f00            	LD A, (_initGame_Ttmp129)
  2293  10b7  47                	LD B, A
  2294  10b8  cd6501            	CALL DSFREE
  2295  10bb  3a3800            	LD A, (_initGame_Ttmp102)
  2296  10be  4f                	LD C, A
  2297  10bf  cd4e01            	CALL DSALLOC
  2298  10c2  78                	LD A, B
  2299  10c3  323f00            	LD (_initGame_Ttmp129), A
  2300  10c6  3a3f00            	LD A, (_initGame_Ttmp129)
  2301  10c9  47                	LD B, A
  2302  10ca  cdaa02            	CALL DSDESCRIPTOR
  2303  10cd  dd7e00            	LD A, (IX)
  2304                          ; peephole(3): unread
  2305                          ;	LD (_initGame_Ttmp104), A
  2306  10d0  dd7e01            	LD A, (IX+1)
  2307  10d3  323900            	LD (_initGame_Ttmp103), A
  2308  10d6  dd7e02            	LD A, (IX+2)
  2309  10d9  323a00            	LD (_initGame_Ttmp103+1), A
  2310  10dc  2a3600            	LD HL, (_initGame_Ttmp101)
  2311  10df  ed5b3900          	LD DE, (_initGame_Ttmp103)
  2312  10e3  3a3800            	LD A, (_initGame_Ttmp102)
  2313  10e6  4f                	LD C, A
  2314  10e7  0600              	LD B, 0
  2315  10e9  cdee02            	CALL DUFFDEVICE
  2316  10ec  ed5b2900          	LD DE, (_initGame_Ttmp80)
  2317  10f0  3a3f00            	LD A, (_initGame_Ttmp129)
  2318  10f3  12                	LD (DE), A
  2319  10f4  3e00              	LD A, $00
  2320  10f6  323f00            	LD (_initGame_Ttmp129), A
  2321                          	; P:100
  2322                          	; L:56
  2323  10f9  3e02              	LD A, $02
  2324  10fb  322400            	LD (_initGame_Ttmp72), A
  2325  10fe  3e00              	LD A, $00
  2326  1100  322500            	LD (_initGame_Ttmp73), A
  2327                          ; peephole(1): r250 (LD A, x; LD (x), A; LD A, x)->(LD A, x; LD (x), A)
  2328                          ;	LD A, $00
  2329  1103  322900            	LD (_initGame_Ttmp80), A
  2330  1106  3e00              	LD A, $00
  2331  1108  322a00            	LD (_initGame_Ttmp80+1), A
  2332                          ; peephole(1): r250 (LD A, x; LD (x), A; LD A, x)->(LD A, x; LD (x), A)
  2333                          ;	LD A, $00
  2334  110b  322b00            	LD (_initGame_Ttmp81), A
  2335  110e  3e00              	LD A, $00
  2336  1110  322c00            	LD (_initGame_Ttmp81+1), A
  2337  1113  3a2400            	LD A, (_initGame_Ttmp72)
  2338  1116  322b00            	LD (_initGame_Ttmp81), A
  2339  1119  2a2900            	LD HL, (_initGame_Ttmp80)
  2340  111c  ed5b2b00          	LD DE, (_initGame_Ttmp81)
  2341  1120  19                	ADD HL, DE
  2342  1121  222900            	LD (_initGame_Ttmp80), HL
  2343  1124  3e03              	LD A, $03
  2344  1126  322600            	LD (_initGame_Ttmp75), A
  2345  1129  3e00              	LD A, $00
  2346  112b  322700            	LD (_initGame_Ttmp75+1), A
  2347                          ; peephole(1): r250 (LD A, x; LD (x), A; LD A, x)->(LD A, x; LD (x), A)
  2348                          ;	LD A, $00
  2349  112e  322d00            	LD (_initGame_Ttmp82), A
  2350  1131  3e00              	LD A, $00
  2351  1133  322e00            	LD (_initGame_Ttmp82+1), A
  2352  1136  3a2500            	LD A, (_initGame_Ttmp73)
  2353  1139  322d00            	LD (_initGame_Ttmp82), A
  2354  113c  ed4b2d00          	LD BC, (_initGame_Ttmp82)
  2355  1140  ed5b2600          	LD DE, (_initGame_Ttmp75)
  2356  1144  79                	LD A, C
  2357  1145  48                	LD C, B
  2358  1146  210000            	LD HL, 0
  2359  1149  0610              	LD B, 16
  2360                          _label133:
  2361  114b  29                	ADD HL, HL
  2362  114c  17                	RLA
  2363  114d  cb11              	RL C
  2364  114f  3007              	JR NC,_label133b2
  2365  1151  19                	ADD HL, DE
  2366  1152  ce00              	ADC A, 0
  2367  1154  d25811            	JP NC,_label133b2
  2368  1157  0c                	INC C
  2369                          _label133b2:
  2370  1158  10f1              	DJNZ _label133
  2371  115a  41                	LD B, C
  2372  115b  4f                	LD C, A
  2373  115c  223100            	LD (_initGame_Ttmp97), HL
  2374  115f  ed433300          	LD (_initGame_Ttmp97+2), BC
  2375  1163  3a3100            	LD A, (_initGame_Ttmp97)
  2376  1166  322f00            	LD (_initGame_Ttmp86), A
  2377  1169  3a3200            	LD A, (_initGame_Ttmp97+1)
  2378  116c  323000            	LD (_initGame_Ttmp86+1), A
  2379  116f  2a2900            	LD HL, (_initGame_Ttmp80)
  2380  1172  ed5b2f00          	LD DE, (_initGame_Ttmp86)
  2381  1176  19                	ADD HL, DE
  2382  1177  222900            	LD (_initGame_Ttmp80), HL
  2383  117a  e600              	AND $0
  2384  117c  2a2900            	LD HL, (_initGame_Ttmp80)
  2385  117f  116971            	LD DE, _lockeddoors
  2386  1182  19                	ADD HL, DE
  2387  1183  222900            	LD (_initGame_Ttmp80), HL
  2388  1186  ed5b2900          	LD DE, (_initGame_Ttmp80)
  2389  118a  1a                	LD A, (DE)
  2390  118b  324000            	LD (_initGame_Ttmp134), A
  2391  118e  3a0000            	LD A, (_initGame_Tstr130)
  2392  1191  323800            	LD (_initGame_Ttmp102), A
  2393  1194  210000            	LD HL, _initGame_Tstr130
  2394  1197  223600            	LD (_initGame_Ttmp101), HL
  2395  119a  2a3600            	LD HL, (_initGame_Ttmp101)
  2396  119d  23                	INC HL
  2397  119e  223600            	LD (_initGame_Ttmp101), HL
  2398  11a1  3a4000            	LD A, (_initGame_Ttmp134)
  2399  11a4  47                	LD B, A
  2400  11a5  cd6501            	CALL DSFREE
  2401  11a8  3a3800            	LD A, (_initGame_Ttmp102)
  2402  11ab  4f                	LD C, A
  2403  11ac  cd4e01            	CALL DSALLOC
  2404  11af  78                	LD A, B
  2405  11b0  324000            	LD (_initGame_Ttmp134), A
  2406  11b3  3a4000            	LD A, (_initGame_Ttmp134)
  2407  11b6  47                	LD B, A
  2408  11b7  cdaa02            	CALL DSDESCRIPTOR
  2409  11ba  dd7e00            	LD A, (IX)
  2410                          ; peephole(3): unread
  2411                          ;	LD (_initGame_Ttmp104), A
  2412  11bd  dd7e01            	LD A, (IX+1)
  2413  11c0  323900            	LD (_initGame_Ttmp103), A
  2414  11c3  dd7e02            	LD A, (IX+2)
  2415  11c6  323a00            	LD (_initGame_Ttmp103+1), A
  2416  11c9  2a3600            	LD HL, (_initGame_Ttmp101)
  2417  11cc  ed5b3900          	LD DE, (_initGame_Ttmp103)
  2418  11d0  3a3800            	LD A, (_initGame_Ttmp102)
  2419  11d3  4f                	LD C, A
  2420  11d4  0600              	LD B, 0
  2421  11d6  cdee02            	CALL DUFFDEVICE
  2422  11d9  ed5b2900          	LD DE, (_initGame_Ttmp80)
  2423  11dd  3a4000            	LD A, (_initGame_Ttmp134)
  2424  11e0  12                	LD (DE), A
  2425  11e1  3e00              	LD A, $00
  2426  11e3  324000            	LD (_initGame_Ttmp134), A
  2427                          	; P:100
  2428                          	; L:57
  2429  11e6  3e02              	LD A, $02
  2430  11e8  322400            	LD (_initGame_Ttmp72), A
  2431  11eb  3e01              	LD A, $01
  2432  11ed  322500            	LD (_initGame_Ttmp73), A
  2433  11f0  3e00              	LD A, $00
  2434  11f2  322900            	LD (_initGame_Ttmp80), A
  2435                          ; peephole(1): r250 (LD A, x; LD (x), A; LD A, x)->(LD A, x; LD (x), A)
  2436                          ;	LD A, $00
  2437  11f5  322a00            	LD (_initGame_Ttmp80+1), A
  2438  11f8  3e00              	LD A, $00
  2439  11fa  322b00            	LD (_initGame_Ttmp81), A
  2440                          ; peephole(1): r250 (LD A, x; LD (x), A; LD A, x)->(LD A, x; LD (x), A)
  2441                          ;	LD A, $00
  2442  11fd  322c00            	LD (_initGame_Ttmp81+1), A
  2443  1200  3a2400            	LD A, (_initGame_Ttmp72)
  2444  1203  322b00            	LD (_initGame_Ttmp81), A
  2445  1206  2a2900            	LD HL, (_initGame_Ttmp80)
  2446  1209  ed5b2b00          	LD DE, (_initGame_Ttmp81)
  2447  120d  19                	ADD HL, DE
  2448  120e  222900            	LD (_initGame_Ttmp80), HL
  2449  1211  3e03              	LD A, $03
  2450  1213  322600            	LD (_initGame_Ttmp75), A
  2451  1216  3e00              	LD A, $00
  2452  1218  322700            	LD (_initGame_Ttmp75+1), A
  2453                          ; peephole(1): r250 (LD A, x; LD (x), A; LD A, x)->(LD A, x; LD (x), A)
  2454                          ;	LD A, $00
  2455  121b  322d00            	LD (_initGame_Ttmp82), A
  2456  121e  3e00              	LD A, $00
  2457  1220  322e00            	LD (_initGame_Ttmp82+1), A
  2458  1223  3a2500            	LD A, (_initGame_Ttmp73)
  2459  1226  322d00            	LD (_initGame_Ttmp82), A
  2460  1229  ed4b2d00          	LD BC, (_initGame_Ttmp82)
  2461  122d  ed5b2600          	LD DE, (_initGame_Ttmp75)
  2462  1231  79                	LD A, C
  2463  1232  48                	LD C, B
  2464  1233  210000            	LD HL, 0
  2465  1236  0610              	LD B, 16
  2466                          _label138:
  2467  1238  29                	ADD HL, HL
  2468  1239  17                	RLA
  2469  123a  cb11              	RL C
  2470  123c  3007              	JR NC,_label138b2
  2471  123e  19                	ADD HL, DE
  2472  123f  ce00              	ADC A, 0
  2473  1241  d24512            	JP NC,_label138b2
  2474  1244  0c                	INC C
  2475                          _label138b2:
  2476  1245  10f1              	DJNZ _label138
  2477  1247  41                	LD B, C
  2478  1248  4f                	LD C, A
  2479  1249  223100            	LD (_initGame_Ttmp97), HL
  2480  124c  ed433300          	LD (_initGame_Ttmp97+2), BC
  2481  1250  3a3100            	LD A, (_initGame_Ttmp97)
  2482  1253  322f00            	LD (_initGame_Ttmp86), A
  2483  1256  3a3200            	LD A, (_initGame_Ttmp97+1)
  2484  1259  323000            	LD (_initGame_Ttmp86+1), A
  2485  125c  2a2900            	LD HL, (_initGame_Ttmp80)
  2486  125f  ed5b2f00          	LD DE, (_initGame_Ttmp86)
  2487  1263  19                	ADD HL, DE
  2488  1264  222900            	LD (_initGame_Ttmp80), HL
  2489  1267  e600              	AND $0
  2490  1269  2a2900            	LD HL, (_initGame_Ttmp80)
  2491  126c  116971            	LD DE, _lockeddoors
  2492  126f  19                	ADD HL, DE
  2493  1270  222900            	LD (_initGame_Ttmp80), HL
  2494  1273  ed5b2900          	LD DE, (_initGame_Ttmp80)
  2495  1277  1a                	LD A, (DE)
  2496  1278  324100            	LD (_initGame_Ttmp139), A
  2497  127b  3a0000            	LD A, (_initGame_Tstr135)
  2498  127e  323800            	LD (_initGame_Ttmp102), A
  2499  1281  210000            	LD HL, _initGame_Tstr135
  2500  1284  223600            	LD (_initGame_Ttmp101), HL
  2501  1287  2a3600            	LD HL, (_initGame_Ttmp101)
  2502  128a  23                	INC HL
  2503  128b  223600            	LD (_initGame_Ttmp101), HL
  2504  128e  3a4100            	LD A, (_initGame_Ttmp139)
  2505  1291  47                	LD B, A
  2506  1292  cd6501            	CALL DSFREE
  2507  1295  3a3800            	LD A, (_initGame_Ttmp102)
  2508  1298  4f                	LD C, A
  2509  1299  cd4e01            	CALL DSALLOC
  2510  129c  78                	LD A, B
  2511  129d  324100            	LD (_initGame_Ttmp139), A
  2512  12a0  3a4100            	LD A, (_initGame_Ttmp139)
  2513  12a3  47                	LD B, A
  2514  12a4  cdaa02            	CALL DSDESCRIPTOR
  2515  12a7  dd7e00            	LD A, (IX)
  2516                          ; peephole(3): unread
  2517                          ;	LD (_initGame_Ttmp104), A
  2518  12aa  dd7e01            	LD A, (IX+1)
  2519  12ad  323900            	LD (_initGame_Ttmp103), A
  2520  12b0  dd7e02            	LD A, (IX+2)
  2521  12b3  323a00            	LD (_initGame_Ttmp103+1), A
  2522  12b6  2a3600            	LD HL, (_initGame_Ttmp101)
  2523  12b9  ed5b3900          	LD DE, (_initGame_Ttmp103)
  2524  12bd  3a3800            	LD A, (_initGame_Ttmp102)
  2525  12c0  4f                	LD C, A
  2526  12c1  0600              	LD B, 0
  2527  12c3  cdee02            	CALL DUFFDEVICE
  2528  12c6  ed5b2900          	LD DE, (_initGame_Ttmp80)
  2529  12ca  3a4100            	LD A, (_initGame_Ttmp139)
  2530  12cd  12                	LD (DE), A
  2531  12ce  3e00              	LD A, $00
  2532  12d0  324100            	LD (_initGame_Ttmp139), A
  2533                          	; P:100
  2534                          	; L:58
  2535  12d3  3e02              	LD A, $02
  2536  12d5  322400            	LD (_initGame_Ttmp72), A
  2537                          ; peephole(1): r250 (LD A, x; LD (x), A; LD A, x)->(LD A, x; LD (x), A)
  2538                          ;	LD A, $02
  2539  12d8  322500            	LD (_initGame_Ttmp73), A
  2540  12db  3e00              	LD A, $00
  2541  12dd  322900            	LD (_initGame_Ttmp80), A
  2542                          ; peephole(1): r250 (LD A, x; LD (x), A; LD A, x)->(LD A, x; LD (x), A)
  2543                          ;	LD A, $00
  2544  12e0  322a00            	LD (_initGame_Ttmp80+1), A
  2545  12e3  3e00              	LD A, $00
  2546  12e5  322b00            	LD (_initGame_Ttmp81), A
  2547                          ; peephole(1): r250 (LD A, x; LD (x), A; LD A, x)->(LD A, x; LD (x), A)
  2548                          ;	LD A, $00
  2549  12e8  322c00            	LD (_initGame_Ttmp81+1), A
  2550  12eb  3a2400            	LD A, (_initGame_Ttmp72)
  2551  12ee  322b00            	LD (_initGame_Ttmp81), A
  2552  12f1  2a2900            	LD HL, (_initGame_Ttmp80)
  2553  12f4  ed5b2b00          	LD DE, (_initGame_Ttmp81)
  2554  12f8  19                	ADD HL, DE
  2555  12f9  222900            	LD (_initGame_Ttmp80), HL
  2556  12fc  3e03              	LD A, $03
  2557  12fe  322600            	LD (_initGame_Ttmp75), A
  2558  1301  3e00              	LD A, $00
  2559  1303  322700            	LD (_initGame_Ttmp75+1), A
  2560                          ; peephole(1): r250 (LD A, x; LD (x), A; LD A, x)->(LD A, x; LD (x), A)
  2561                          ;	LD A, $00
  2562  1306  322d00            	LD (_initGame_Ttmp82), A
  2563  1309  3e00              	LD A, $00
  2564  130b  322e00            	LD (_initGame_Ttmp82+1), A
  2565  130e  3a2500            	LD A, (_initGame_Ttmp73)
  2566  1311  322d00            	LD (_initGame_Ttmp82), A
  2567  1314  ed4b2d00          	LD BC, (_initGame_Ttmp82)
  2568  1318  ed5b2600          	LD DE, (_initGame_Ttmp75)
  2569  131c  79                	LD A, C
  2570  131d  48                	LD C, B
  2571  131e  210000            	LD HL, 0
  2572  1321  0610              	LD B, 16
  2573                          _label143:
  2574  1323  29                	ADD HL, HL
  2575  1324  17                	RLA
  2576  1325  cb11              	RL C
  2577  1327  3007              	JR NC,_label143b2
  2578  1329  19                	ADD HL, DE
  2579  132a  ce00              	ADC A, 0
  2580  132c  d23013            	JP NC,_label143b2
  2581  132f  0c                	INC C
  2582                          _label143b2:
  2583  1330  10f1              	DJNZ _label143
  2584  1332  41                	LD B, C
  2585  1333  4f                	LD C, A
  2586  1334  223100            	LD (_initGame_Ttmp97), HL
  2587  1337  ed433300          	LD (_initGame_Ttmp97+2), BC
  2588  133b  3a3100            	LD A, (_initGame_Ttmp97)
  2589  133e  322f00            	LD (_initGame_Ttmp86), A
  2590  1341  3a3200            	LD A, (_initGame_Ttmp97+1)
  2591  1344  323000            	LD (_initGame_Ttmp86+1), A
  2592  1347  2a2900            	LD HL, (_initGame_Ttmp80)
  2593  134a  ed5b2f00          	LD DE, (_initGame_Ttmp86)
  2594  134e  19                	ADD HL, DE
  2595  134f  222900            	LD (_initGame_Ttmp80), HL
  2596  1352  e600              	AND $0
  2597  1354  2a2900            	LD HL, (_initGame_Ttmp80)
  2598  1357  116971            	LD DE, _lockeddoors
  2599  135a  19                	ADD HL, DE
  2600  135b  222900            	LD (_initGame_Ttmp80), HL
  2601  135e  ed5b2900          	LD DE, (_initGame_Ttmp80)
  2602  1362  1a                	LD A, (DE)
  2603  1363  324200            	LD (_initGame_Ttmp144), A
  2604  1366  3a0000            	LD A, (_initGame_Tstr140)
  2605  1369  323800            	LD (_initGame_Ttmp102), A
  2606  136c  210000            	LD HL, _initGame_Tstr140
  2607  136f  223600            	LD (_initGame_Ttmp101), HL
  2608  1372  2a3600            	LD HL, (_initGame_Ttmp101)
  2609  1375  23                	INC HL
  2610  1376  223600            	LD (_initGame_Ttmp101), HL
  2611  1379  3a4200            	LD A, (_initGame_Ttmp144)
  2612  137c  47                	LD B, A
  2613  137d  cd6501            	CALL DSFREE
  2614  1380  3a3800            	LD A, (_initGame_Ttmp102)
  2615  1383  4f                	LD C, A
  2616  1384  cd4e01            	CALL DSALLOC
  2617  1387  78                	LD A, B
  2618  1388  324200            	LD (_initGame_Ttmp144), A
  2619  138b  3a4200            	LD A, (_initGame_Ttmp144)
  2620  138e  47                	LD B, A
  2621  138f  cdaa02            	CALL DSDESCRIPTOR
  2622  1392  dd7e00            	LD A, (IX)
  2623                          ; peephole(3): unread
  2624                          ;	LD (_initGame_Ttmp104), A
  2625  1395  dd7e01            	LD A, (IX+1)
  2626  1398  323900            	LD (_initGame_Ttmp103), A
  2627  139b  dd7e02            	LD A, (IX+2)
  2628  139e  323a00            	LD (_initGame_Ttmp103+1), A
  2629  13a1  2a3600            	LD HL, (_initGame_Ttmp101)
  2630  13a4  ed5b3900          	LD DE, (_initGame_Ttmp103)
  2631  13a8  3a3800            	LD A, (_initGame_Ttmp102)
  2632  13ab  4f                	LD C, A
  2633  13ac  0600              	LD B, 0
  2634  13ae  cdee02            	CALL DUFFDEVICE
  2635  13b1  ed5b2900          	LD DE, (_initGame_Ttmp80)
  2636  13b5  3a4200            	LD A, (_initGame_Ttmp144)
  2637  13b8  12                	LD (DE), A
  2638  13b9  3e00              	LD A, $00
  2639  13bb  324200            	LD (_initGame_Ttmp144), A
  2640                          	; P:100
  2641                          	; L:59
  2642                          	; P:0
  2643                          	; L:60
  2644                          ; peephole(1): r250 (LD A, x; LD (x), A; LD A, x)->(LD A, x; LD (x), A)
  2645                          ;	LD A, $00
  2646  13be  322400            	LD (_initGame_Ttmp72), A
  2647  13c1  3e00              	LD A, $00
  2648  13c3  322500            	LD (_initGame_Ttmp73), A
  2649                          ; peephole(1): r250 (LD A, x; LD (x), A; LD A, x)->(LD A, x; LD (x), A)
  2650                          ;	LD A, $00
  2651  13c6  322900            	LD (_initGame_Ttmp80), A
  2652  13c9  3e00              	LD A, $00
  2653  13cb  322a00            	LD (_initGame_Ttmp80+1), A
  2654                          ; peephole(1): r250 (LD A, x; LD (x), A; LD A, x)->(LD A, x; LD (x), A)
  2655                          ;	LD A, $00
  2656  13ce  322b00            	LD (_initGame_Ttmp81), A
  2657  13d1  3e00              	LD A, $00
  2658  13d3  322c00            	LD (_initGame_Ttmp81+1), A
  2659  13d6  3a2400            	LD A, (_initGame_Ttmp72)
  2660  13d9  322b00            	LD (_initGame_Ttmp81), A
  2661  13dc  2a2900            	LD HL, (_initGame_Ttmp80)
  2662  13df  ed5b2b00          	LD DE, (_initGame_Ttmp81)
  2663  13e3  19                	ADD HL, DE
  2664  13e4  222900            	LD (_initGame_Ttmp80), HL
  2665  13e7  3e03              	LD A, $03
  2666  13e9  322600            	LD (_initGame_Ttmp75), A
  2667  13ec  3e00              	LD A, $00
  2668  13ee  322700            	LD (_initGame_Ttmp75+1), A
  2669                          ; peephole(1): r250 (LD A, x; LD (x), A; LD A, x)->(LD A, x; LD (x), A)
  2670                          ;	LD A, $00
  2671  13f1  322d00            	LD (_initGame_Ttmp82), A
  2672  13f4  3e00              	LD A, $00
  2673  13f6  322e00            	LD (_initGame_Ttmp82+1), A
  2674  13f9  3a2500            	LD A, (_initGame_Ttmp73)
  2675  13fc  322d00            	LD (_initGame_Ttmp82), A
  2676  13ff  ed4b2d00          	LD BC, (_initGame_Ttmp82)
  2677  1403  ed5b2600          	LD DE, (_initGame_Ttmp75)
  2678  1407  79                	LD A, C
  2679  1408  48                	LD C, B
  2680  1409  210000            	LD HL, 0
  2681  140c  0610              	LD B, 16
  2682                          _label149:
  2683  140e  29                	ADD HL, HL
  2684  140f  17                	RLA
  2685  1410  cb11              	RL C
  2686  1412  3007              	JR NC,_label149b2
  2687  1414  19                	ADD HL, DE
  2688  1415  ce00              	ADC A, 0
  2689  1417  d21b14            	JP NC,_label149b2
  2690  141a  0c                	INC C
  2691                          _label149b2:
  2692  141b  10f1              	DJNZ _label149
  2693  141d  41                	LD B, C
  2694  141e  4f                	LD C, A
  2695  141f  223100            	LD (_initGame_Ttmp97), HL
  2696  1422  ed433300          	LD (_initGame_Ttmp97+2), BC
  2697  1426  3a3100            	LD A, (_initGame_Ttmp97)
  2698  1429  322f00            	LD (_initGame_Ttmp86), A
  2699  142c  3a3200            	LD A, (_initGame_Ttmp97+1)
  2700  142f  323000            	LD (_initGame_Ttmp86+1), A
  2701  1432  2a2900            	LD HL, (_initGame_Ttmp80)
  2702  1435  ed5b2f00          	LD DE, (_initGame_Ttmp86)
  2703  1439  19                	ADD HL, DE
  2704  143a  222900            	LD (_initGame_Ttmp80), HL
  2705  143d  e600              	AND $0
  2706  143f  2a2900            	LD HL, (_initGame_Ttmp80)
  2707  1442  117271            	LD DE, _exits
  2708  1445  19                	ADD HL, DE
  2709  1446  222900            	LD (_initGame_Ttmp80), HL
  2710  1449  ed5b2900          	LD DE, (_initGame_Ttmp80)
  2711  144d  1a                	LD A, (DE)
  2712  144e  324300            	LD (_initGame_Ttmp150), A
  2713  1451  3a0000            	LD A, (_initGame_Tstr145)
  2714  1454  323800            	LD (_initGame_Ttmp102), A
  2715  1457  210000            	LD HL, _initGame_Tstr145
  2716  145a  223600            	LD (_initGame_Ttmp101), HL
  2717  145d  2a3600            	LD HL, (_initGame_Ttmp101)
  2718  1460  23                	INC HL
  2719  1461  223600            	LD (_initGame_Ttmp101), HL
  2720  1464  3a4300            	LD A, (_initGame_Ttmp150)
  2721  1467  47                	LD B, A
  2722  1468  cd6501            	CALL DSFREE
  2723  146b  3a3800            	LD A, (_initGame_Ttmp102)
  2724  146e  4f                	LD C, A
  2725  146f  cd4e01            	CALL DSALLOC
  2726  1472  78                	LD A, B
  2727  1473  324300            	LD (_initGame_Ttmp150), A
  2728  1476  3a4300            	LD A, (_initGame_Ttmp150)
  2729  1479  47                	LD B, A
  2730  147a  cdaa02            	CALL DSDESCRIPTOR
  2731  147d  dd7e00            	LD A, (IX)
  2732                          ; peephole(3): unread
  2733                          ;	LD (_initGame_Ttmp104), A
  2734  1480  dd7e01            	LD A, (IX+1)
  2735  1483  323900            	LD (_initGame_Ttmp103), A
  2736  1486  dd7e02            	LD A, (IX+2)
  2737  1489  323a00            	LD (_initGame_Ttmp103+1), A
  2738  148c  2a3600            	LD HL, (_initGame_Ttmp101)
  2739  148f  ed5b3900          	LD DE, (_initGame_Ttmp103)
  2740  1493  3a3800            	LD A, (_initGame_Ttmp102)
  2741  1496  4f                	LD C, A
  2742  1497  0600              	LD B, 0
  2743  1499  cdee02            	CALL DUFFDEVICE
  2744  149c  ed5b2900          	LD DE, (_initGame_Ttmp80)
  2745  14a0  3a4300            	LD A, (_initGame_Ttmp150)
  2746  14a3  12                	LD (DE), A
  2747  14a4  3e00              	LD A, $00
  2748  14a6  324300            	LD (_initGame_Ttmp150), A
  2749                          	; P:100
  2750                          	; L:61
  2751                          ; peephole(1): r250 (LD A, x; LD (x), A; LD A, x)->(LD A, x; LD (x), A)
  2752                          ;	LD A, $00
  2753  14a9  322400            	LD (_initGame_Ttmp72), A
  2754  14ac  3e01              	LD A, $01
  2755  14ae  322500            	LD (_initGame_Ttmp73), A
  2756  14b1  3e00              	LD A, $00
  2757  14b3  322900            	LD (_initGame_Ttmp80), A
  2758                          ; peephole(1): r250 (LD A, x; LD (x), A; LD A, x)->(LD A, x; LD (x), A)
  2759                          ;	LD A, $00
  2760  14b6  322a00            	LD (_initGame_Ttmp80+1), A
  2761  14b9  3e00              	LD A, $00
  2762  14bb  322b00            	LD (_initGame_Ttmp81), A
  2763                          ; peephole(1): r250 (LD A, x; LD (x), A; LD A, x)->(LD A, x; LD (x), A)
  2764                          ;	LD A, $00
  2765  14be  322c00            	LD (_initGame_Ttmp81+1), A
  2766  14c1  3a2400            	LD A, (_initGame_Ttmp72)
  2767  14c4  322b00            	LD (_initGame_Ttmp81), A
  2768  14c7  2a2900            	LD HL, (_initGame_Ttmp80)
  2769  14ca  ed5b2b00          	LD DE, (_initGame_Ttmp81)
  2770  14ce  19                	ADD HL, DE
  2771  14cf  222900            	LD (_initGame_Ttmp80), HL
  2772  14d2  3e03              	LD A, $03
  2773  14d4  322600            	LD (_initGame_Ttmp75), A
  2774  14d7  3e00              	LD A, $00
  2775  14d9  322700            	LD (_initGame_Ttmp75+1), A
  2776                          ; peephole(1): r250 (LD A, x; LD (x), A; LD A, x)->(LD A, x; LD (x), A)
  2777                          ;	LD A, $00
  2778  14dc  322d00            	LD (_initGame_Ttmp82), A
  2779  14df  3e00              	LD A, $00
  2780  14e1  322e00            	LD (_initGame_Ttmp82+1), A
  2781  14e4  3a2500            	LD A, (_initGame_Ttmp73)
  2782  14e7  322d00            	LD (_initGame_Ttmp82), A
  2783  14ea  ed4b2d00          	LD BC, (_initGame_Ttmp82)
  2784  14ee  ed5b2600          	LD DE, (_initGame_Ttmp75)
  2785  14f2  79                	LD A, C
  2786  14f3  48                	LD C, B
  2787  14f4  210000            	LD HL, 0
  2788  14f7  0610              	LD B, 16
  2789                          _label155:
  2790  14f9  29                	ADD HL, HL
  2791  14fa  17                	RLA
  2792  14fb  cb11              	RL C
  2793  14fd  3007              	JR NC,_label155b2
  2794  14ff  19                	ADD HL, DE
  2795  1500  ce00              	ADC A, 0
  2796  1502  d20615            	JP NC,_label155b2
  2797  1505  0c                	INC C
  2798                          _label155b2:
  2799  1506  10f1              	DJNZ _label155
  2800  1508  41                	LD B, C
  2801  1509  4f                	LD C, A
  2802  150a  223100            	LD (_initGame_Ttmp97), HL
  2803  150d  ed433300          	LD (_initGame_Ttmp97+2), BC
  2804  1511  3a3100            	LD A, (_initGame_Ttmp97)
  2805  1514  322f00            	LD (_initGame_Ttmp86), A
  2806  1517  3a3200            	LD A, (_initGame_Ttmp97+1)
  2807  151a  323000            	LD (_initGame_Ttmp86+1), A
  2808  151d  2a2900            	LD HL, (_initGame_Ttmp80)
  2809  1520  ed5b2f00          	LD DE, (_initGame_Ttmp86)
  2810  1524  19                	ADD HL, DE
  2811  1525  222900            	LD (_initGame_Ttmp80), HL
  2812  1528  e600              	AND $0
  2813  152a  2a2900            	LD HL, (_initGame_Ttmp80)
  2814  152d  117271            	LD DE, _exits
  2815  1530  19                	ADD HL, DE
  2816  1531  222900            	LD (_initGame_Ttmp80), HL
  2817  1534  ed5b2900          	LD DE, (_initGame_Ttmp80)
  2818  1538  1a                	LD A, (DE)
  2819  1539  324400            	LD (_initGame_Ttmp156), A
  2820  153c  3a0000            	LD A, (_initGame_Tstr151)
  2821  153f  323800            	LD (_initGame_Ttmp102), A
  2822  1542  210000            	LD HL, _initGame_Tstr151
  2823  1545  223600            	LD (_initGame_Ttmp101), HL
  2824  1548  2a3600            	LD HL, (_initGame_Ttmp101)
  2825  154b  23                	INC HL
  2826  154c  223600            	LD (_initGame_Ttmp101), HL
  2827  154f  3a4400            	LD A, (_initGame_Ttmp156)
  2828  1552  47                	LD B, A
  2829  1553  cd6501            	CALL DSFREE
  2830  1556  3a3800            	LD A, (_initGame_Ttmp102)
  2831  1559  4f                	LD C, A
  2832  155a  cd4e01            	CALL DSALLOC
  2833  155d  78                	LD A, B
  2834  155e  324400            	LD (_initGame_Ttmp156), A
  2835  1561  3a4400            	LD A, (_initGame_Ttmp156)
  2836  1564  47                	LD B, A
  2837  1565  cdaa02            	CALL DSDESCRIPTOR
  2838  1568  dd7e00            	LD A, (IX)
  2839                          ; peephole(3): unread
  2840                          ;	LD (_initGame_Ttmp104), A
  2841  156b  dd7e01            	LD A, (IX+1)
  2842  156e  323900            	LD (_initGame_Ttmp103), A
  2843  1571  dd7e02            	LD A, (IX+2)
  2844  1574  323a00            	LD (_initGame_Ttmp103+1), A
  2845  1577  2a3600            	LD HL, (_initGame_Ttmp101)
  2846  157a  ed5b3900          	LD DE, (_initGame_Ttmp103)
  2847  157e  3a3800            	LD A, (_initGame_Ttmp102)
  2848  1581  4f                	LD C, A
  2849  1582  0600              	LD B, 0
  2850  1584  cdee02            	CALL DUFFDEVICE
  2851  1587  ed5b2900          	LD DE, (_initGame_Ttmp80)
  2852  158b  3a4400            	LD A, (_initGame_Ttmp156)
  2853  158e  12                	LD (DE), A
  2854  158f  3e00              	LD A, $00
  2855  1591  324400            	LD (_initGame_Ttmp156), A
  2856                          	; P:100
  2857                          	; L:62
  2858                          ; peephole(1): r250 (LD A, x; LD (x), A; LD A, x)->(LD A, x; LD (x), A)
  2859                          ;	LD A, $00
  2860  1594  322400            	LD (_initGame_Ttmp72), A
  2861  1597  3e02              	LD A, $02
  2862  1599  322500            	LD (_initGame_Ttmp73), A
  2863  159c  3e00              	LD A, $00
  2864  159e  322900            	LD (_initGame_Ttmp80), A
  2865                          ; peephole(1): r250 (LD A, x; LD (x), A; LD A, x)->(LD A, x; LD (x), A)
  2866                          ;	LD A, $00
  2867  15a1  322a00            	LD (_initGame_Ttmp80+1), A
  2868  15a4  3e00              	LD A, $00
  2869  15a6  322b00            	LD (_initGame_Ttmp81), A
  2870                          ; peephole(1): r250 (LD A, x; LD (x), A; LD A, x)->(LD A, x; LD (x), A)
  2871                          ;	LD A, $00
  2872  15a9  322c00            	LD (_initGame_Ttmp81+1), A
  2873  15ac  3a2400            	LD A, (_initGame_Ttmp72)
  2874  15af  322b00            	LD (_initGame_Ttmp81), A
  2875  15b2  2a2900            	LD HL, (_initGame_Ttmp80)
  2876  15b5  ed5b2b00          	LD DE, (_initGame_Ttmp81)
  2877  15b9  19                	ADD HL, DE
  2878  15ba  222900            	LD (_initGame_Ttmp80), HL
  2879  15bd  3e03              	LD A, $03
  2880  15bf  322600            	LD (_initGame_Ttmp75), A
  2881  15c2  3e00              	LD A, $00
  2882  15c4  322700            	LD (_initGame_Ttmp75+1), A
  2883                          ; peephole(1): r250 (LD A, x; LD (x), A; LD A, x)->(LD A, x; LD (x), A)
  2884                          ;	LD A, $00
  2885  15c7  322d00            	LD (_initGame_Ttmp82), A
  2886  15ca  3e00              	LD A, $00
  2887  15cc  322e00            	LD (_initGame_Ttmp82+1), A
  2888  15cf  3a2500            	LD A, (_initGame_Ttmp73)
  2889  15d2  322d00            	LD (_initGame_Ttmp82), A
  2890  15d5  ed4b2d00          	LD BC, (_initGame_Ttmp82)
  2891  15d9  ed5b2600          	LD DE, (_initGame_Ttmp75)
  2892  15dd  79                	LD A, C
  2893  15de  48                	LD C, B
  2894  15df  210000            	LD HL, 0
  2895  15e2  0610              	LD B, 16
  2896                          _label161:
  2897  15e4  29                	ADD HL, HL
  2898  15e5  17                	RLA
  2899  15e6  cb11              	RL C
  2900  15e8  3007              	JR NC,_label161b2
  2901  15ea  19                	ADD HL, DE
  2902  15eb  ce00              	ADC A, 0
  2903  15ed  d2f115            	JP NC,_label161b2
  2904  15f0  0c                	INC C
  2905                          _label161b2:
  2906  15f1  10f1              	DJNZ _label161
  2907  15f3  41                	LD B, C
  2908  15f4  4f                	LD C, A
  2909  15f5  223100            	LD (_initGame_Ttmp97), HL
  2910  15f8  ed433300          	LD (_initGame_Ttmp97+2), BC
  2911  15fc  3a3100            	LD A, (_initGame_Ttmp97)
  2912  15ff  322f00            	LD (_initGame_Ttmp86), A
  2913  1602  3a3200            	LD A, (_initGame_Ttmp97+1)
  2914  1605  323000            	LD (_initGame_Ttmp86+1), A
  2915  1608  2a2900            	LD HL, (_initGame_Ttmp80)
  2916  160b  ed5b2f00          	LD DE, (_initGame_Ttmp86)
  2917  160f  19                	ADD HL, DE
  2918  1610  222900            	LD (_initGame_Ttmp80), HL
  2919  1613  e600              	AND $0
  2920  1615  2a2900            	LD HL, (_initGame_Ttmp80)
  2921  1618  117271            	LD DE, _exits
  2922  161b  19                	ADD HL, DE
  2923  161c  222900            	LD (_initGame_Ttmp80), HL
  2924  161f  ed5b2900          	LD DE, (_initGame_Ttmp80)
  2925  1623  1a                	LD A, (DE)
  2926  1624  324500            	LD (_initGame_Ttmp162), A
  2927  1627  3a0000            	LD A, (_initGame_Tstr157)
  2928  162a  323800            	LD (_initGame_Ttmp102), A
  2929  162d  210000            	LD HL, _initGame_Tstr157
  2930  1630  223600            	LD (_initGame_Ttmp101), HL
  2931  1633  2a3600            	LD HL, (_initGame_Ttmp101)
  2932  1636  23                	INC HL
  2933  1637  223600            	LD (_initGame_Ttmp101), HL
  2934  163a  3a4500            	LD A, (_initGame_Ttmp162)
  2935  163d  47                	LD B, A
  2936  163e  cd6501            	CALL DSFREE
  2937  1641  3a3800            	LD A, (_initGame_Ttmp102)
  2938  1644  4f                	LD C, A
  2939  1645  cd4e01            	CALL DSALLOC
  2940  1648  78                	LD A, B
  2941  1649  324500            	LD (_initGame_Ttmp162), A
  2942  164c  3a4500            	LD A, (_initGame_Ttmp162)
  2943  164f  47                	LD B, A
  2944  1650  cdaa02            	CALL DSDESCRIPTOR
  2945  1653  dd7e00            	LD A, (IX)
  2946                          ; peephole(3): unread
  2947                          ;	LD (_initGame_Ttmp104), A
  2948  1656  dd7e01            	LD A, (IX+1)
  2949  1659  323900            	LD (_initGame_Ttmp103), A
  2950  165c  dd7e02            	LD A, (IX+2)
  2951  165f  323a00            	LD (_initGame_Ttmp103+1), A
  2952  1662  2a3600            	LD HL, (_initGame_Ttmp101)
  2953  1665  ed5b3900          	LD DE, (_initGame_Ttmp103)
  2954  1669  3a3800            	LD A, (_initGame_Ttmp102)
  2955  166c  4f                	LD C, A
  2956  166d  0600              	LD B, 0
  2957  166f  cdee02            	CALL DUFFDEVICE
  2958  1672  ed5b2900          	LD DE, (_initGame_Ttmp80)
  2959  1676  3a4500            	LD A, (_initGame_Ttmp162)
  2960  1679  12                	LD (DE), A
  2961  167a  3e00              	LD A, $00
  2962  167c  324500            	LD (_initGame_Ttmp162), A
  2963                          	; P:100
  2964                          	; L:63
  2965  167f  3e01              	LD A, $01
  2966  1681  322400            	LD (_initGame_Ttmp72), A
  2967  1684  3e00              	LD A, $00
  2968  1686  322500            	LD (_initGame_Ttmp73), A
  2969                          ; peephole(1): r250 (LD A, x; LD (x), A; LD A, x)->(LD A, x; LD (x), A)
  2970                          ;	LD A, $00
  2971  1689  322900            	LD (_initGame_Ttmp80), A
  2972  168c  3e00              	LD A, $00
  2973  168e  322a00            	LD (_initGame_Ttmp80+1), A
  2974                          ; peephole(1): r250 (LD A, x; LD (x), A; LD A, x)->(LD A, x; LD (x), A)
  2975                          ;	LD A, $00
  2976  1691  322b00            	LD (_initGame_Ttmp81), A
  2977  1694  3e00              	LD A, $00
  2978  1696  322c00            	LD (_initGame_Ttmp81+1), A
  2979  1699  3a2400            	LD A, (_initGame_Ttmp72)
  2980  169c  322b00            	LD (_initGame_Ttmp81), A
  2981  169f  2a2900            	LD HL, (_initGame_Ttmp80)
  2982  16a2  ed5b2b00          	LD DE, (_initGame_Ttmp81)
  2983  16a6  19                	ADD HL, DE
  2984  16a7  222900            	LD (_initGame_Ttmp80), HL
  2985  16aa  3e03              	LD A, $03
  2986  16ac  322600            	LD (_initGame_Ttmp75), A
  2987  16af  3e00              	LD A, $00
  2988  16b1  322700            	LD (_initGame_Ttmp75+1), A
  2989                          ; peephole(1): r250 (LD A, x; LD (x), A; LD A, x)->(LD A, x; LD (x), A)
  2990                          ;	LD A, $00
  2991  16b4  322d00            	LD (_initGame_Ttmp82), A
  2992  16b7  3e00              	LD A, $00
  2993  16b9  322e00            	LD (_initGame_Ttmp82+1), A
  2994  16bc  3a2500            	LD A, (_initGame_Ttmp73)
  2995  16bf  322d00            	LD (_initGame_Ttmp82), A
  2996  16c2  ed4b2d00          	LD BC, (_initGame_Ttmp82)
  2997  16c6  ed5b2600          	LD DE, (_initGame_Ttmp75)
  2998  16ca  79                	LD A, C
  2999  16cb  48                	LD C, B
  3000  16cc  210000            	LD HL, 0
  3001  16cf  0610              	LD B, 16
  3002                          _label166:
  3003  16d1  29                	ADD HL, HL
  3004  16d2  17                	RLA
  3005  16d3  cb11              	RL C
  3006  16d5  3007              	JR NC,_label166b2
  3007  16d7  19                	ADD HL, DE
  3008  16d8  ce00              	ADC A, 0
  3009  16da  d2de16            	JP NC,_label166b2
  3010  16dd  0c                	INC C
  3011                          _label166b2:
  3012  16de  10f1              	DJNZ _label166
  3013  16e0  41                	LD B, C
  3014  16e1  4f                	LD C, A
  3015  16e2  223100            	LD (_initGame_Ttmp97), HL
  3016  16e5  ed433300          	LD (_initGame_Ttmp97+2), BC
  3017  16e9  3a3100            	LD A, (_initGame_Ttmp97)
  3018  16ec  322f00            	LD (_initGame_Ttmp86), A
  3019  16ef  3a3200            	LD A, (_initGame_Ttmp97+1)
  3020  16f2  323000            	LD (_initGame_Ttmp86+1), A
  3021  16f5  2a2900            	LD HL, (_initGame_Ttmp80)
  3022  16f8  ed5b2f00          	LD DE, (_initGame_Ttmp86)
  3023  16fc  19                	ADD HL, DE
  3024  16fd  222900            	LD (_initGame_Ttmp80), HL
  3025  1700  e600              	AND $0
  3026  1702  2a2900            	LD HL, (_initGame_Ttmp80)
  3027  1705  117271            	LD DE, _exits
  3028  1708  19                	ADD HL, DE
  3029  1709  222900            	LD (_initGame_Ttmp80), HL
  3030  170c  ed5b2900          	LD DE, (_initGame_Ttmp80)
  3031  1710  1a                	LD A, (DE)
  3032  1711  324600            	LD (_initGame_Ttmp167), A
  3033  1714  3a0000            	LD A, (_initGame_Tstr163)
  3034  1717  323800            	LD (_initGame_Ttmp102), A
  3035  171a  210000            	LD HL, _initGame_Tstr163
  3036  171d  223600            	LD (_initGame_Ttmp101), HL
  3037  1720  2a3600            	LD HL, (_initGame_Ttmp101)
  3038  1723  23                	INC HL
  3039  1724  223600            	LD (_initGame_Ttmp101), HL
  3040  1727  3a4600            	LD A, (_initGame_Ttmp167)
  3041  172a  47                	LD B, A
  3042  172b  cd6501            	CALL DSFREE
  3043  172e  3a3800            	LD A, (_initGame_Ttmp102)
  3044  1731  4f                	LD C, A
  3045  1732  cd4e01            	CALL DSALLOC
  3046  1735  78                	LD A, B
  3047  1736  324600            	LD (_initGame_Ttmp167), A
  3048  1739  3a4600            	LD A, (_initGame_Ttmp167)
  3049  173c  47                	LD B, A
  3050  173d  cdaa02            	CALL DSDESCRIPTOR
  3051  1740  dd7e00            	LD A, (IX)
  3052                          ; peephole(3): unread
  3053                          ;	LD (_initGame_Ttmp104), A
  3054  1743  dd7e01            	LD A, (IX+1)
  3055  1746  323900            	LD (_initGame_Ttmp103), A
  3056  1749  dd7e02            	LD A, (IX+2)
  3057  174c  323a00            	LD (_initGame_Ttmp103+1), A
  3058  174f  2a3600            	LD HL, (_initGame_Ttmp101)
  3059  1752  ed5b3900          	LD DE, (_initGame_Ttmp103)
  3060  1756  3a3800            	LD A, (_initGame_Ttmp102)
  3061  1759  4f                	LD C, A
  3062  175a  0600              	LD B, 0
  3063  175c  cdee02            	CALL DUFFDEVICE
  3064  175f  ed5b2900          	LD DE, (_initGame_Ttmp80)
  3065  1763  3a4600            	LD A, (_initGame_Ttmp167)
  3066  1766  12                	LD (DE), A
  3067  1767  3e00              	LD A, $00
  3068  1769  324600            	LD (_initGame_Ttmp167), A
  3069                          	; P:100
  3070                          	; L:64
  3071  176c  3e01              	LD A, $01
  3072  176e  322400            	LD (_initGame_Ttmp72), A
  3073                          ; peephole(1): r250 (LD A, x; LD (x), A; LD A, x)->(LD A, x; LD (x), A)
  3074                          ;	LD A, $01
  3075  1771  322500            	LD (_initGame_Ttmp73), A
  3076  1774  3e00              	LD A, $00
  3077  1776  322900            	LD (_initGame_Ttmp80), A
  3078                          ; peephole(1): r250 (LD A, x; LD (x), A; LD A, x)->(LD A, x; LD (x), A)
  3079                          ;	LD A, $00
  3080  1779  322a00            	LD (_initGame_Ttmp80+1), A
  3081  177c  3e00              	LD A, $00
  3082  177e  322b00            	LD (_initGame_Ttmp81), A
  3083                          ; peephole(1): r250 (LD A, x; LD (x), A; LD A, x)->(LD A, x; LD (x), A)
  3084                          ;	LD A, $00
  3085  1781  322c00            	LD (_initGame_Ttmp81+1), A
  3086  1784  3a2400            	LD A, (_initGame_Ttmp72)
  3087  1787  322b00            	LD (_initGame_Ttmp81), A
  3088  178a  2a2900            	LD HL, (_initGame_Ttmp80)
  3089  178d  ed5b2b00          	LD DE, (_initGame_Ttmp81)
  3090  1791  19                	ADD HL, DE
  3091  1792  222900            	LD (_initGame_Ttmp80), HL
  3092  1795  3e03              	LD A, $03
  3093  1797  322600            	LD (_initGame_Ttmp75), A
  3094  179a  3e00              	LD A, $00
  3095  179c  322700            	LD (_initGame_Ttmp75+1), A
  3096                          ; peephole(1): r250 (LD A, x; LD (x), A; LD A, x)->(LD A, x; LD (x), A)
  3097                          ;	LD A, $00
  3098  179f  322d00            	LD (_initGame_Ttmp82), A
  3099  17a2  3e00              	LD A, $00
  3100  17a4  322e00            	LD (_initGame_Ttmp82+1), A
  3101  17a7  3a2500            	LD A, (_initGame_Ttmp73)
  3102  17aa  322d00            	LD (_initGame_Ttmp82), A
  3103  17ad  ed4b2d00          	LD BC, (_initGame_Ttmp82)
  3104  17b1  ed5b2600          	LD DE, (_initGame_Ttmp75)
  3105  17b5  79                	LD A, C
  3106  17b6  48                	LD C, B
  3107  17b7  210000            	LD HL, 0
  3108  17ba  0610              	LD B, 16
  3109                          _label172:
  3110  17bc  29                	ADD HL, HL
  3111  17bd  17                	RLA
  3112  17be  cb11              	RL C
  3113  17c0  3007              	JR NC,_label172b2
  3114  17c2  19                	ADD HL, DE
  3115  17c3  ce00              	ADC A, 0
  3116  17c5  d2c917            	JP NC,_label172b2
  3117  17c8  0c                	INC C
  3118                          _label172b2:
  3119  17c9  10f1              	DJNZ _label172
  3120  17cb  41                	LD B, C
  3121  17cc  4f                	LD C, A
  3122  17cd  223100            	LD (_initGame_Ttmp97), HL
  3123  17d0  ed433300          	LD (_initGame_Ttmp97+2), BC
  3124  17d4  3a3100            	LD A, (_initGame_Ttmp97)
  3125  17d7  322f00            	LD (_initGame_Ttmp86), A
  3126  17da  3a3200            	LD A, (_initGame_Ttmp97+1)
  3127  17dd  323000            	LD (_initGame_Ttmp86+1), A
  3128  17e0  2a2900            	LD HL, (_initGame_Ttmp80)
  3129  17e3  ed5b2f00          	LD DE, (_initGame_Ttmp86)
  3130  17e7  19                	ADD HL, DE
  3131  17e8  222900            	LD (_initGame_Ttmp80), HL
  3132  17eb  e600              	AND $0
  3133  17ed  2a2900            	LD HL, (_initGame_Ttmp80)
  3134  17f0  117271            	LD DE, _exits
  3135  17f3  19                	ADD HL, DE
  3136  17f4  222900            	LD (_initGame_Ttmp80), HL
  3137  17f7  ed5b2900          	LD DE, (_initGame_Ttmp80)
  3138  17fb  1a                	LD A, (DE)
  3139  17fc  324700            	LD (_initGame_Ttmp173), A
  3140  17ff  3a0000            	LD A, (_initGame_Tstr168)
  3141  1802  323800            	LD (_initGame_Ttmp102), A
  3142  1805  210000            	LD HL, _initGame_Tstr168
  3143  1808  223600            	LD (_initGame_Ttmp101), HL
  3144  180b  2a3600            	LD HL, (_initGame_Ttmp101)
  3145  180e  23                	INC HL
  3146  180f  223600            	LD (_initGame_Ttmp101), HL
  3147  1812  3a4700            	LD A, (_initGame_Ttmp173)
  3148  1815  47                	LD B, A
  3149  1816  cd6501            	CALL DSFREE
  3150  1819  3a3800            	LD A, (_initGame_Ttmp102)
  3151  181c  4f                	LD C, A
  3152  181d  cd4e01            	CALL DSALLOC
  3153  1820  78                	LD A, B
  3154  1821  324700            	LD (_initGame_Ttmp173), A
  3155  1824  3a4700            	LD A, (_initGame_Ttmp173)
  3156  1827  47                	LD B, A
  3157  1828  cdaa02            	CALL DSDESCRIPTOR
  3158  182b  dd7e00            	LD A, (IX)
  3159                          ; peephole(3): unread
  3160                          ;	LD (_initGame_Ttmp104), A
  3161  182e  dd7e01            	LD A, (IX+1)
  3162  1831  323900            	LD (_initGame_Ttmp103), A
  3163  1834  dd7e02            	LD A, (IX+2)
  3164  1837  323a00            	LD (_initGame_Ttmp103+1), A
  3165  183a  2a3600            	LD HL, (_initGame_Ttmp101)
  3166  183d  ed5b3900          	LD DE, (_initGame_Ttmp103)
  3167  1841  3a3800            	LD A, (_initGame_Ttmp102)
  3168  1844  4f                	LD C, A
  3169  1845  0600              	LD B, 0
  3170  1847  cdee02            	CALL DUFFDEVICE
  3171  184a  ed5b2900          	LD DE, (_initGame_Ttmp80)
  3172  184e  3a4700            	LD A, (_initGame_Ttmp173)
  3173  1851  12                	LD (DE), A
  3174  1852  3e00              	LD A, $00
  3175  1854  324700            	LD (_initGame_Ttmp173), A
  3176                          	; P:100
  3177                          	; L:65
  3178  1857  3e01              	LD A, $01
  3179  1859  322400            	LD (_initGame_Ttmp72), A
  3180  185c  3e02              	LD A, $02
  3181  185e  322500            	LD (_initGame_Ttmp73), A
  3182  1861  3e00              	LD A, $00
  3183  1863  322900            	LD (_initGame_Ttmp80), A
  3184                          ; peephole(1): r250 (LD A, x; LD (x), A; LD A, x)->(LD A, x; LD (x), A)
  3185                          ;	LD A, $00
  3186  1866  322a00            	LD (_initGame_Ttmp80+1), A
  3187  1869  3e00              	LD A, $00
  3188  186b  322b00            	LD (_initGame_Ttmp81), A
  3189                          ; peephole(1): r250 (LD A, x; LD (x), A; LD A, x)->(LD A, x; LD (x), A)
  3190                          ;	LD A, $00
  3191  186e  322c00            	LD (_initGame_Ttmp81+1), A
  3192  1871  3a2400            	LD A, (_initGame_Ttmp72)
  3193  1874  322b00            	LD (_initGame_Ttmp81), A
  3194  1877  2a2900            	LD HL, (_initGame_Ttmp80)
  3195  187a  ed5b2b00          	LD DE, (_initGame_Ttmp81)
  3196  187e  19                	ADD HL, DE
  3197  187f  222900            	LD (_initGame_Ttmp80), HL
  3198  1882  3e03              	LD A, $03
  3199  1884  322600            	LD (_initGame_Ttmp75), A
  3200  1887  3e00              	LD A, $00
  3201  1889  322700            	LD (_initGame_Ttmp75+1), A
  3202                          ; peephole(1): r250 (LD A, x; LD (x), A; LD A, x)->(LD A, x; LD (x), A)
  3203                          ;	LD A, $00
  3204  188c  322d00            	LD (_initGame_Ttmp82), A
  3205  188f  3e00              	LD A, $00
  3206  1891  322e00            	LD (_initGame_Ttmp82+1), A
  3207  1894  3a2500            	LD A, (_initGame_Ttmp73)
  3208  1897  322d00            	LD (_initGame_Ttmp82), A
  3209  189a  ed4b2d00          	LD BC, (_initGame_Ttmp82)
  3210  189e  ed5b2600          	LD DE, (_initGame_Ttmp75)
  3211  18a2  79                	LD A, C
  3212  18a3  48                	LD C, B
  3213  18a4  210000            	LD HL, 0
  3214  18a7  0610              	LD B, 16
  3215                          _label177:
  3216  18a9  29                	ADD HL, HL
  3217  18aa  17                	RLA
  3218  18ab  cb11              	RL C
  3219  18ad  3007              	JR NC,_label177b2
  3220  18af  19                	ADD HL, DE
  3221  18b0  ce00              	ADC A, 0
  3222  18b2  d2b618            	JP NC,_label177b2
  3223  18b5  0c                	INC C
  3224                          _label177b2:
  3225  18b6  10f1              	DJNZ _label177
  3226  18b8  41                	LD B, C
  3227  18b9  4f                	LD C, A
  3228  18ba  223100            	LD (_initGame_Ttmp97), HL
  3229  18bd  ed433300          	LD (_initGame_Ttmp97+2), BC
  3230  18c1  3a3100            	LD A, (_initGame_Ttmp97)
  3231  18c4  322f00            	LD (_initGame_Ttmp86), A
  3232  18c7  3a3200            	LD A, (_initGame_Ttmp97+1)
  3233  18ca  323000            	LD (_initGame_Ttmp86+1), A
  3234  18cd  2a2900            	LD HL, (_initGame_Ttmp80)
  3235  18d0  ed5b2f00          	LD DE, (_initGame_Ttmp86)
  3236  18d4  19                	ADD HL, DE
  3237  18d5  222900            	LD (_initGame_Ttmp80), HL
  3238  18d8  e600              	AND $0
  3239  18da  2a2900            	LD HL, (_initGame_Ttmp80)
  3240  18dd  117271            	LD DE, _exits
  3241  18e0  19                	ADD HL, DE
  3242  18e1  222900            	LD (_initGame_Ttmp80), HL
  3243  18e4  ed5b2900          	LD DE, (_initGame_Ttmp80)
  3244  18e8  1a                	LD A, (DE)
  3245  18e9  324800            	LD (_initGame_Ttmp178), A
  3246  18ec  3a0000            	LD A, (_initGame_Tstr174)
  3247  18ef  323800            	LD (_initGame_Ttmp102), A
  3248  18f2  210000            	LD HL, _initGame_Tstr174
  3249  18f5  223600            	LD (_initGame_Ttmp101), HL
  3250  18f8  2a3600            	LD HL, (_initGame_Ttmp101)
  3251  18fb  23                	INC HL
  3252  18fc  223600            	LD (_initGame_Ttmp101), HL
  3253  18ff  3a4800            	LD A, (_initGame_Ttmp178)
  3254  1902  47                	LD B, A
  3255  1903  cd6501            	CALL DSFREE
  3256  1906  3a3800            	LD A, (_initGame_Ttmp102)
  3257  1909  4f                	LD C, A
  3258  190a  cd4e01            	CALL DSALLOC
  3259  190d  78                	LD A, B
  3260  190e  324800            	LD (_initGame_Ttmp178), A
  3261  1911  3a4800            	LD A, (_initGame_Ttmp178)
  3262  1914  47                	LD B, A
  3263  1915  cdaa02            	CALL DSDESCRIPTOR
  3264  1918  dd7e00            	LD A, (IX)
  3265                          ; peephole(3): unread
  3266                          ;	LD (_initGame_Ttmp104), A
  3267  191b  dd7e01            	LD A, (IX+1)
  3268  191e  323900            	LD (_initGame_Ttmp103), A
  3269  1921  dd7e02            	LD A, (IX+2)
  3270  1924  323a00            	LD (_initGame_Ttmp103+1), A
  3271  1927  2a3600            	LD HL, (_initGame_Ttmp101)
  3272  192a  ed5b3900          	LD DE, (_initGame_Ttmp103)
  3273  192e  3a3800            	LD A, (_initGame_Ttmp102)
  3274  1931  4f                	LD C, A
  3275  1932  0600              	LD B, 0
  3276  1934  cdee02            	CALL DUFFDEVICE
  3277  1937  ed5b2900          	LD DE, (_initGame_Ttmp80)
  3278  193b  3a4800            	LD A, (_initGame_Ttmp178)
  3279  193e  12                	LD (DE), A
  3280  193f  3e00              	LD A, $00
  3281  1941  324800            	LD (_initGame_Ttmp178), A
  3282                          	; P:100
  3283                          	; L:66
  3284  1944  3e02              	LD A, $02
  3285  1946  322400            	LD (_initGame_Ttmp72), A
  3286  1949  3e00              	LD A, $00
  3287  194b  322500            	LD (_initGame_Ttmp73), A
  3288                          ; peephole(1): r250 (LD A, x; LD (x), A; LD A, x)->(LD A, x; LD (x), A)
  3289                          ;	LD A, $00
  3290  194e  322900            	LD (_initGame_Ttmp80), A
  3291  1951  3e00              	LD A, $00
  3292  1953  322a00            	LD (_initGame_Ttmp80+1), A
  3293                          ; peephole(1): r250 (LD A, x; LD (x), A; LD A, x)->(LD A, x; LD (x), A)
  3294                          ;	LD A, $00
  3295  1956  322b00            	LD (_initGame_Ttmp81), A
  3296  1959  3e00              	LD A, $00
  3297  195b  322c00            	LD (_initGame_Ttmp81+1), A
  3298  195e  3a2400            	LD A, (_initGame_Ttmp72)
  3299  1961  322b00            	LD (_initGame_Ttmp81), A
  3300  1964  2a2900            	LD HL, (_initGame_Ttmp80)
  3301  1967  ed5b2b00          	LD DE, (_initGame_Ttmp81)
  3302  196b  19                	ADD HL, DE
  3303  196c  222900            	LD (_initGame_Ttmp80), HL
  3304  196f  3e03              	LD A, $03
  3305  1971  322600            	LD (_initGame_Ttmp75), A
  3306  1974  3e00              	LD A, $00
  3307  1976  322700            	LD (_initGame_Ttmp75+1), A
  3308                          ; peephole(1): r250 (LD A, x; LD (x), A; LD A, x)->(LD A, x; LD (x), A)
  3309                          ;	LD A, $00
  3310  1979  322d00            	LD (_initGame_Ttmp82), A
  3311  197c  3e00              	LD A, $00
  3312  197e  322e00            	LD (_initGame_Ttmp82+1), A
  3313  1981  3a2500            	LD A, (_initGame_Ttmp73)
  3314  1984  322d00            	LD (_initGame_Ttmp82), A
  3315  1987  ed4b2d00          	LD BC, (_initGame_Ttmp82)
  3316  198b  ed5b2600          	LD DE, (_initGame_Ttmp75)
  3317  198f  79                	LD A, C
  3318  1990  48                	LD C, B
  3319  1991  210000            	LD HL, 0
  3320  1994  0610              	LD B, 16
  3321                          _label182:
  3322  1996  29                	ADD HL, HL
  3323  1997  17                	RLA
  3324  1998  cb11              	RL C
  3325  199a  3007              	JR NC,_label182b2
  3326  199c  19                	ADD HL, DE
  3327  199d  ce00              	ADC A, 0
  3328  199f  d2a319            	JP NC,_label182b2
  3329  19a2  0c                	INC C
  3330                          _label182b2:
  3331  19a3  10f1              	DJNZ _label182
  3332  19a5  41                	LD B, C
  3333  19a6  4f                	LD C, A
  3334  19a7  223100            	LD (_initGame_Ttmp97), HL
  3335  19aa  ed433300          	LD (_initGame_Ttmp97+2), BC
  3336  19ae  3a3100            	LD A, (_initGame_Ttmp97)
  3337  19b1  322f00            	LD (_initGame_Ttmp86), A
  3338  19b4  3a3200            	LD A, (_initGame_Ttmp97+1)
  3339  19b7  323000            	LD (_initGame_Ttmp86+1), A
  3340  19ba  2a2900            	LD HL, (_initGame_Ttmp80)
  3341  19bd  ed5b2f00          	LD DE, (_initGame_Ttmp86)
  3342  19c1  19                	ADD HL, DE
  3343  19c2  222900            	LD (_initGame_Ttmp80), HL
  3344  19c5  e600              	AND $0
  3345  19c7  2a2900            	LD HL, (_initGame_Ttmp80)
  3346  19ca  117271            	LD DE, _exits
  3347  19cd  19                	ADD HL, DE
  3348  19ce  222900            	LD (_initGame_Ttmp80), HL
  3349  19d1  ed5b2900          	LD DE, (_initGame_Ttmp80)
  3350  19d5  1a                	LD A, (DE)
  3351  19d6  324900            	LD (_initGame_Ttmp183), A
  3352  19d9  3a0000            	LD A, (_initGame_Tstr179)
  3353  19dc  323800            	LD (_initGame_Ttmp102), A
  3354  19df  210000            	LD HL, _initGame_Tstr179
  3355  19e2  223600            	LD (_initGame_Ttmp101), HL
  3356  19e5  2a3600            	LD HL, (_initGame_Ttmp101)
  3357  19e8  23                	INC HL
  3358  19e9  223600            	LD (_initGame_Ttmp101), HL
  3359  19ec  3a4900            	LD A, (_initGame_Ttmp183)
  3360  19ef  47                	LD B, A
  3361  19f0  cd6501            	CALL DSFREE
  3362  19f3  3a3800            	LD A, (_initGame_Ttmp102)
  3363  19f6  4f                	LD C, A
  3364  19f7  cd4e01            	CALL DSALLOC
  3365  19fa  78                	LD A, B
  3366  19fb  324900            	LD (_initGame_Ttmp183), A
  3367  19fe  3a4900            	LD A, (_initGame_Ttmp183)
  3368  1a01  47                	LD B, A
  3369  1a02  cdaa02            	CALL DSDESCRIPTOR
  3370  1a05  dd7e00            	LD A, (IX)
  3371                          ; peephole(3): unread
  3372                          ;	LD (_initGame_Ttmp104), A
  3373  1a08  dd7e01            	LD A, (IX+1)
  3374  1a0b  323900            	LD (_initGame_Ttmp103), A
  3375  1a0e  dd7e02            	LD A, (IX+2)
  3376  1a11  323a00            	LD (_initGame_Ttmp103+1), A
  3377  1a14  2a3600            	LD HL, (_initGame_Ttmp101)
  3378  1a17  ed5b3900          	LD DE, (_initGame_Ttmp103)
  3379  1a1b  3a3800            	LD A, (_initGame_Ttmp102)
  3380  1a1e  4f                	LD C, A
  3381  1a1f  0600              	LD B, 0
  3382  1a21  cdee02            	CALL DUFFDEVICE
  3383  1a24  ed5b2900          	LD DE, (_initGame_Ttmp80)
  3384  1a28  3a4900            	LD A, (_initGame_Ttmp183)
  3385  1a2b  12                	LD (DE), A
  3386  1a2c  3e00              	LD A, $00
  3387  1a2e  324900            	LD (_initGame_Ttmp183), A
  3388                          	; P:100
  3389                          	; L:67
  3390  1a31  3e02              	LD A, $02
  3391  1a33  322400            	LD (_initGame_Ttmp72), A
  3392  1a36  3e01              	LD A, $01
  3393  1a38  322500            	LD (_initGame_Ttmp73), A
  3394  1a3b  3e00              	LD A, $00
  3395  1a3d  322900            	LD (_initGame_Ttmp80), A
  3396                          ; peephole(1): r250 (LD A, x; LD (x), A; LD A, x)->(LD A, x; LD (x), A)
  3397                          ;	LD A, $00
  3398  1a40  322a00            	LD (_initGame_Ttmp80+1), A
  3399  1a43  3e00              	LD A, $00
  3400  1a45  322b00            	LD (_initGame_Ttmp81), A
  3401                          ; peephole(1): r250 (LD A, x; LD (x), A; LD A, x)->(LD A, x; LD (x), A)
  3402                          ;	LD A, $00
  3403  1a48  322c00            	LD (_initGame_Ttmp81+1), A
  3404  1a4b  3a2400            	LD A, (_initGame_Ttmp72)
  3405  1a4e  322b00            	LD (_initGame_Ttmp81), A
  3406  1a51  2a2900            	LD HL, (_initGame_Ttmp80)
  3407  1a54  ed5b2b00          	LD DE, (_initGame_Ttmp81)
  3408  1a58  19                	ADD HL, DE
  3409  1a59  222900            	LD (_initGame_Ttmp80), HL
  3410  1a5c  3e03              	LD A, $03
  3411  1a5e  322600            	LD (_initGame_Ttmp75), A
  3412  1a61  3e00              	LD A, $00
  3413  1a63  322700            	LD (_initGame_Ttmp75+1), A
  3414                          ; peephole(1): r250 (LD A, x; LD (x), A; LD A, x)->(LD A, x; LD (x), A)
  3415                          ;	LD A, $00
  3416  1a66  322d00            	LD (_initGame_Ttmp82), A
  3417  1a69  3e00              	LD A, $00
  3418  1a6b  322e00            	LD (_initGame_Ttmp82+1), A
  3419  1a6e  3a2500            	LD A, (_initGame_Ttmp73)
  3420  1a71  322d00            	LD (_initGame_Ttmp82), A
  3421  1a74  ed4b2d00          	LD BC, (_initGame_Ttmp82)
  3422  1a78  ed5b2600          	LD DE, (_initGame_Ttmp75)
  3423  1a7c  79                	LD A, C
  3424  1a7d  48                	LD C, B
  3425  1a7e  210000            	LD HL, 0
  3426  1a81  0610              	LD B, 16
  3427                          _label188:
  3428  1a83  29                	ADD HL, HL
  3429  1a84  17                	RLA
  3430  1a85  cb11              	RL C
  3431  1a87  3007              	JR NC,_label188b2
  3432  1a89  19                	ADD HL, DE
  3433  1a8a  ce00              	ADC A, 0
  3434  1a8c  d2901a            	JP NC,_label188b2
  3435  1a8f  0c                	INC C
  3436                          _label188b2:
  3437  1a90  10f1              	DJNZ _label188
  3438  1a92  41                	LD B, C
  3439  1a93  4f                	LD C, A
  3440  1a94  223100            	LD (_initGame_Ttmp97), HL
  3441  1a97  ed433300          	LD (_initGame_Ttmp97+2), BC
  3442  1a9b  3a3100            	LD A, (_initGame_Ttmp97)
  3443  1a9e  322f00            	LD (_initGame_Ttmp86), A
  3444  1aa1  3a3200            	LD A, (_initGame_Ttmp97+1)
  3445  1aa4  323000            	LD (_initGame_Ttmp86+1), A
  3446  1aa7  2a2900            	LD HL, (_initGame_Ttmp80)
  3447  1aaa  ed5b2f00          	LD DE, (_initGame_Ttmp86)
  3448  1aae  19                	ADD HL, DE
  3449  1aaf  222900            	LD (_initGame_Ttmp80), HL
  3450  1ab2  e600              	AND $0
  3451  1ab4  2a2900            	LD HL, (_initGame_Ttmp80)
  3452  1ab7  117271            	LD DE, _exits
  3453  1aba  19                	ADD HL, DE
  3454  1abb  222900            	LD (_initGame_Ttmp80), HL
  3455  1abe  ed5b2900          	LD DE, (_initGame_Ttmp80)
  3456  1ac2  1a                	LD A, (DE)
  3457  1ac3  324a00            	LD (_initGame_Ttmp189), A
  3458  1ac6  3a0000            	LD A, (_initGame_Tstr184)
  3459  1ac9  323800            	LD (_initGame_Ttmp102), A
  3460  1acc  210000            	LD HL, _initGame_Tstr184
  3461  1acf  223600            	LD (_initGame_Ttmp101), HL
  3462  1ad2  2a3600            	LD HL, (_initGame_Ttmp101)
  3463  1ad5  23                	INC HL
  3464  1ad6  223600            	LD (_initGame_Ttmp101), HL
  3465  1ad9  3a4a00            	LD A, (_initGame_Ttmp189)
  3466  1adc  47                	LD B, A
  3467  1add  cd6501            	CALL DSFREE
  3468  1ae0  3a3800            	LD A, (_initGame_Ttmp102)
  3469  1ae3  4f                	LD C, A
  3470  1ae4  cd4e01            	CALL DSALLOC
  3471  1ae7  78                	LD A, B
  3472  1ae8  324a00            	LD (_initGame_Ttmp189), A
  3473  1aeb  3a4a00            	LD A, (_initGame_Ttmp189)
  3474  1aee  47                	LD B, A
  3475  1aef  cdaa02            	CALL DSDESCRIPTOR
  3476  1af2  dd7e00            	LD A, (IX)
  3477                          ; peephole(3): unread
  3478                          ;	LD (_initGame_Ttmp104), A
  3479  1af5  dd7e01            	LD A, (IX+1)
  3480  1af8  323900            	LD (_initGame_Ttmp103), A
  3481  1afb  dd7e02            	LD A, (IX+2)
  3482  1afe  323a00            	LD (_initGame_Ttmp103+1), A
  3483  1b01  2a3600            	LD HL, (_initGame_Ttmp101)
  3484  1b04  ed5b3900          	LD DE, (_initGame_Ttmp103)
  3485  1b08  3a3800            	LD A, (_initGame_Ttmp102)
  3486  1b0b  4f                	LD C, A
  3487  1b0c  0600              	LD B, 0
  3488  1b0e  cdee02            	CALL DUFFDEVICE
  3489  1b11  ed5b2900          	LD DE, (_initGame_Ttmp80)
  3490  1b15  3a4a00            	LD A, (_initGame_Ttmp189)
  3491  1b18  12                	LD (DE), A
  3492  1b19  3e00              	LD A, $00
  3493  1b1b  324a00            	LD (_initGame_Ttmp189), A
  3494                          	; P:100
  3495                          	; L:68
  3496  1b1e  3e02              	LD A, $02
  3497  1b20  322400            	LD (_initGame_Ttmp72), A
  3498                          ; peephole(1): r250 (LD A, x; LD (x), A; LD A, x)->(LD A, x; LD (x), A)
  3499                          ;	LD A, $02
  3500  1b23  322500            	LD (_initGame_Ttmp73), A
  3501  1b26  3e00              	LD A, $00
  3502  1b28  322900            	LD (_initGame_Ttmp80), A
  3503                          ; peephole(1): r250 (LD A, x; LD (x), A; LD A, x)->(LD A, x; LD (x), A)
  3504                          ;	LD A, $00
  3505  1b2b  322a00            	LD (_initGame_Ttmp80+1), A
  3506  1b2e  3e00              	LD A, $00
  3507  1b30  322b00            	LD (_initGame_Ttmp81), A
  3508                          ; peephole(1): r250 (LD A, x; LD (x), A; LD A, x)->(LD A, x; LD (x), A)
  3509                          ;	LD A, $00
  3510  1b33  322c00            	LD (_initGame_Ttmp81+1), A
  3511  1b36  3a2400            	LD A, (_initGame_Ttmp72)
  3512  1b39  322b00            	LD (_initGame_Ttmp81), A
  3513  1b3c  2a2900            	LD HL, (_initGame_Ttmp80)
  3514  1b3f  ed5b2b00          	LD DE, (_initGame_Ttmp81)
  3515  1b43  19                	ADD HL, DE
  3516  1b44  222900            	LD (_initGame_Ttmp80), HL
  3517  1b47  3e03              	LD A, $03
  3518  1b49  322600            	LD (_initGame_Ttmp75), A
  3519  1b4c  3e00              	LD A, $00
  3520  1b4e  322700            	LD (_initGame_Ttmp75+1), A
  3521                          ; peephole(1): r250 (LD A, x; LD (x), A; LD A, x)->(LD A, x; LD (x), A)
  3522                          ;	LD A, $00
  3523  1b51  322d00            	LD (_initGame_Ttmp82), A
  3524  1b54  3e00              	LD A, $00
  3525  1b56  322e00            	LD (_initGame_Ttmp82+1), A
  3526  1b59  3a2500            	LD A, (_initGame_Ttmp73)
  3527  1b5c  322d00            	LD (_initGame_Ttmp82), A
  3528  1b5f  ed4b2d00          	LD BC, (_initGame_Ttmp82)
  3529  1b63  ed5b2600          	LD DE, (_initGame_Ttmp75)
  3530  1b67  79                	LD A, C
  3531  1b68  48                	LD C, B
  3532  1b69  210000            	LD HL, 0
  3533  1b6c  0610              	LD B, 16
  3534                          _label194:
  3535  1b6e  29                	ADD HL, HL
  3536  1b6f  17                	RLA
  3537  1b70  cb11              	RL C
  3538  1b72  3007              	JR NC,_label194b2
  3539  1b74  19                	ADD HL, DE
  3540  1b75  ce00              	ADC A, 0
  3541  1b77  d27b1b            	JP NC,_label194b2
  3542  1b7a  0c                	INC C
  3543                          _label194b2:
  3544  1b7b  10f1              	DJNZ _label194
  3545  1b7d  41                	LD B, C
  3546  1b7e  4f                	LD C, A
  3547  1b7f  223100            	LD (_initGame_Ttmp97), HL
  3548  1b82  ed433300          	LD (_initGame_Ttmp97+2), BC
  3549  1b86  3a3100            	LD A, (_initGame_Ttmp97)
  3550  1b89  322f00            	LD (_initGame_Ttmp86), A
  3551  1b8c  3a3200            	LD A, (_initGame_Ttmp97+1)
  3552  1b8f  323000            	LD (_initGame_Ttmp86+1), A
  3553  1b92  2a2900            	LD HL, (_initGame_Ttmp80)
  3554  1b95  ed5b2f00          	LD DE, (_initGame_Ttmp86)
  3555  1b99  19                	ADD HL, DE
  3556  1b9a  222900            	LD (_initGame_Ttmp80), HL
  3557  1b9d  e600              	AND $0
  3558  1b9f  2a2900            	LD HL, (_initGame_Ttmp80)
  3559  1ba2  117271            	LD DE, _exits
  3560  1ba5  19                	ADD HL, DE
  3561  1ba6  222900            	LD (_initGame_Ttmp80), HL
  3562  1ba9  ed5b2900          	LD DE, (_initGame_Ttmp80)
  3563  1bad  1a                	LD A, (DE)
  3564  1bae  324b00            	LD (_initGame_Ttmp195), A
  3565  1bb1  3a0000            	LD A, (_initGame_Tstr190)
  3566  1bb4  323800            	LD (_initGame_Ttmp102), A
  3567  1bb7  210000            	LD HL, _initGame_Tstr190
  3568  1bba  223600            	LD (_initGame_Ttmp101), HL
  3569  1bbd  2a3600            	LD HL, (_initGame_Ttmp101)
  3570  1bc0  23                	INC HL
  3571  1bc1  223600            	LD (_initGame_Ttmp101), HL
  3572  1bc4  3a4b00            	LD A, (_initGame_Ttmp195)
  3573  1bc7  47                	LD B, A
  3574  1bc8  cd6501            	CALL DSFREE
  3575  1bcb  3a3800            	LD A, (_initGame_Ttmp102)
  3576  1bce  4f                	LD C, A
  3577  1bcf  cd4e01            	CALL DSALLOC
  3578  1bd2  78                	LD A, B
  3579  1bd3  324b00            	LD (_initGame_Ttmp195), A
  3580  1bd6  3a4b00            	LD A, (_initGame_Ttmp195)
  3581  1bd9  47                	LD B, A
  3582  1bda  cdaa02            	CALL DSDESCRIPTOR
  3583  1bdd  dd7e00            	LD A, (IX)
  3584                          ; peephole(3): unread
  3585                          ;	LD (_initGame_Ttmp104), A
  3586  1be0  dd7e01            	LD A, (IX+1)
  3587  1be3  323900            	LD (_initGame_Ttmp103), A
  3588  1be6  dd7e02            	LD A, (IX+2)
  3589  1be9  323a00            	LD (_initGame_Ttmp103+1), A
  3590  1bec  2a3600            	LD HL, (_initGame_Ttmp101)
  3591  1bef  ed5b3900          	LD DE, (_initGame_Ttmp103)
  3592  1bf3  3a3800            	LD A, (_initGame_Ttmp102)
  3593  1bf6  4f                	LD C, A
  3594  1bf7  0600              	LD B, 0
  3595  1bf9  cdee02            	CALL DUFFDEVICE
  3596  1bfc  ed5b2900          	LD DE, (_initGame_Ttmp80)
  3597  1c00  3a4b00            	LD A, (_initGame_Ttmp195)
  3598  1c03  12                	LD (DE), A
  3599  1c04  3e00              	LD A, $00
  3600  1c06  324b00            	LD (_initGame_Ttmp195), A
  3601                          	; P:100
  3602                          	; L:69
  3603                          	; P:0
  3604                          	; L:70
  3605  1c09  3e01              	LD A, $01
  3606  1c0b  322400            	LD (_initGame_Ttmp72), A
  3607  1c0e  3e02              	LD A, $02
  3608  1c10  322500            	LD (_initGame_Ttmp73), A
  3609  1c13  3e01              	LD A, $01
  3610  1c15  322800            	LD (_initGame_Ttmp76), A
  3611  1c18  3e00              	LD A, $00
  3612  1c1a  322600            	LD (_initGame_Ttmp75), A
  3613                          ; peephole(1): r250 (LD A, x; LD (x), A; LD A, x)->(LD A, x; LD (x), A)
  3614                          ;	LD A, $00
  3615  1c1d  322700            	LD (_initGame_Ttmp75+1), A
  3616  1c20  3a2800            	LD A, (_initGame_Ttmp76)
  3617  1c23  322600            	LD (_initGame_Ttmp75), A
  3618  1c26  3e00              	LD A, $00
  3619  1c28  322b00            	LD (_initGame_Ttmp81), A
  3620                          ; peephole(1): r250 (LD A, x; LD (x), A; LD A, x)->(LD A, x; LD (x), A)
  3621                          ;	LD A, $00
  3622  1c2b  322c00            	LD (_initGame_Ttmp81+1), A
  3623  1c2e  3e00              	LD A, $00
  3624  1c30  322d00            	LD (_initGame_Ttmp82), A
  3625                          ; peephole(1): r250 (LD A, x; LD (x), A; LD A, x)->(LD A, x; LD (x), A)
  3626                          ;	LD A, $00
  3627  1c33  322e00            	LD (_initGame_Ttmp82+1), A
  3628  1c36  3a2400            	LD A, (_initGame_Ttmp72)
  3629  1c39  322d00            	LD (_initGame_Ttmp82), A
  3630  1c3c  2a2b00            	LD HL, (_initGame_Ttmp81)
  3631  1c3f  ed5b2d00          	LD DE, (_initGame_Ttmp82)
  3632  1c43  19                	ADD HL, DE
  3633  1c44  222b00            	LD (_initGame_Ttmp81), HL
  3634  1c47  3e03              	LD A, $03
  3635  1c49  322900            	LD (_initGame_Ttmp80), A
  3636  1c4c  3e00              	LD A, $00
  3637  1c4e  322a00            	LD (_initGame_Ttmp80+1), A
  3638                          ; peephole(1): r250 (LD A, x; LD (x), A; LD A, x)->(LD A, x; LD (x), A)
  3639                          ;	LD A, $00
  3640  1c51  322f00            	LD (_initGame_Ttmp86), A
  3641  1c54  3e00              	LD A, $00
  3642  1c56  323000            	LD (_initGame_Ttmp86+1), A
  3643  1c59  3a2500            	LD A, (_initGame_Ttmp73)
  3644  1c5c  322f00            	LD (_initGame_Ttmp86), A
  3645  1c5f  ed4b2f00          	LD BC, (_initGame_Ttmp86)
  3646  1c63  ed5b2900          	LD DE, (_initGame_Ttmp80)
  3647  1c67  79                	LD A, C
  3648  1c68  48                	LD C, B
  3649  1c69  210000            	LD HL, 0
  3650  1c6c  0610              	LD B, 16
  3651                          _label201:
  3652  1c6e  29                	ADD HL, HL
  3653  1c6f  17                	RLA
  3654  1c70  cb11              	RL C
  3655  1c72  3007              	JR NC,_label201b2
  3656  1c74  19                	ADD HL, DE
  3657  1c75  ce00              	ADC A, 0
  3658  1c77  d27b1c            	JP NC,_label201b2
  3659  1c7a  0c                	INC C
  3660                          _label201b2:
  3661  1c7b  10f1              	DJNZ _label201
  3662  1c7d  41                	LD B, C
  3663  1c7e  4f                	LD C, A
  3664  1c7f  223100            	LD (_initGame_Ttmp97), HL
  3665  1c82  ed433300          	LD (_initGame_Ttmp97+2), BC
  3666  1c86  3a3100            	LD A, (_initGame_Ttmp97)
  3667  1c89  324c00            	LD (_initGame_Ttmp202), A
  3668  1c8c  3a3200            	LD A, (_initGame_Ttmp97+1)
  3669  1c8f  324d00            	LD (_initGame_Ttmp202+1), A
  3670  1c92  2a2b00            	LD HL, (_initGame_Ttmp81)
  3671  1c95  ed5b4c00          	LD DE, (_initGame_Ttmp202)
  3672  1c99  19                	ADD HL, DE
  3673  1c9a  222b00            	LD (_initGame_Ttmp81), HL
  3674  1c9d  3a2b00            	LD A, (_initGame_Ttmp81)
  3675  1ca0  324e00            	LD (_initGame_Ttmp204), A
  3676  1ca3  3a2c00            	LD A, (_initGame_Ttmp81+1)
  3677  1ca6  324f00            	LD (_initGame_Ttmp204+1), A
  3678  1ca9  2a4e00            	LD HL, (_initGame_Ttmp204)
  3679                          ; peephole(1): r349 (SLA+RL)->(ADD)
  3680                          ;	SLA L
  3681  1cac  29                	ADD HL, HL
  3682                          ;	RL H
  3683  1cad  224e00            	LD (_initGame_Ttmp204), HL
  3684  1cb0  e600              	AND $0
  3685  1cb2  2a4e00            	LD HL, (_initGame_Ttmp204)
  3686  1cb5  117b71            	LD DE, _encounters
  3687  1cb8  19                	ADD HL, DE
  3688  1cb9  224e00            	LD (_initGame_Ttmp204), HL
  3689  1cbc  ed5b4e00          	LD DE, (_initGame_Ttmp204)
  3690  1cc0  2a2600            	LD HL, (_initGame_Ttmp75)
  3691  1cc3  7d                	LD A, L
  3692  1cc4  12                	LD (DE), A
  3693  1cc5  13                	INC DE
  3694  1cc6  7c                	LD A, H
  3695  1cc7  12                	LD (DE), A
  3696                          	; P:85
  3697                          	; L:71
  3698                          	; P:0
  3699                          	; L:72
  3700                          	; P:0
  3701                          	; L:73
  3702  1cc8  3e01              	LD A, $01
  3703  1cca  322400            	LD (_initGame_Ttmp72), A
  3704                          ; peephole(1): r250 (LD A, x; LD (x), A; LD A, x)->(LD A, x; LD (x), A)
  3705                          ;	LD A, $01
  3706  1ccd  322500            	LD (_initGame_Ttmp73), A
  3707  1cd0  3e00              	LD A, $00
  3708  1cd2  322900            	LD (_initGame_Ttmp80), A
  3709                          ; peephole(1): r250 (LD A, x; LD (x), A; LD A, x)->(LD A, x; LD (x), A)
  3710                          ;	LD A, $00
  3711  1cd5  322a00            	LD (_initGame_Ttmp80+1), A
  3712  1cd8  3e00              	LD A, $00
  3713  1cda  322b00            	LD (_initGame_Ttmp81), A
  3714                          ; peephole(1): r250 (LD A, x; LD (x), A; LD A, x)->(LD A, x; LD (x), A)
  3715                          ;	LD A, $00
  3716  1cdd  322c00            	LD (_initGame_Ttmp81+1), A
  3717  1ce0  3a2400            	LD A, (_initGame_Ttmp72)
  3718  1ce3  322b00            	LD (_initGame_Ttmp81), A
  3719  1ce6  2a2900            	LD HL, (_initGame_Ttmp80)
  3720  1ce9  ed5b2b00          	LD DE, (_initGame_Ttmp81)
  3721  1ced  19                	ADD HL, DE
  3722  1cee  222900            	LD (_initGame_Ttmp80), HL
  3723  1cf1  3e07              	LD A, $07
  3724  1cf3  322600            	LD (_initGame_Ttmp75), A
  3725  1cf6  3e00              	LD A, $00
  3726  1cf8  322700            	LD (_initGame_Ttmp75+1), A
  3727                          ; peephole(1): r250 (LD A, x; LD (x), A; LD A, x)->(LD A, x; LD (x), A)
  3728                          ;	LD A, $00
  3729  1cfb  322d00            	LD (_initGame_Ttmp82), A
  3730  1cfe  3e00              	LD A, $00
  3731  1d00  322e00            	LD (_initGame_Ttmp82+1), A
  3732  1d03  3a2500            	LD A, (_initGame_Ttmp73)
  3733  1d06  322d00            	LD (_initGame_Ttmp82), A
  3734  1d09  ed4b2d00          	LD BC, (_initGame_Ttmp82)
  3735  1d0d  ed5b2600          	LD DE, (_initGame_Ttmp75)
  3736  1d11  79                	LD A, C
  3737  1d12  48                	LD C, B
  3738  1d13  210000            	LD HL, 0
  3739  1d16  0610              	LD B, 16
  3740                          _label210:
  3741  1d18  29                	ADD HL, HL
  3742  1d19  17                	RLA
  3743  1d1a  cb11              	RL C
  3744  1d1c  3007              	JR NC,_label210b2
  3745  1d1e  19                	ADD HL, DE
  3746  1d1f  ce00              	ADC A, 0
  3747  1d21  d2251d            	JP NC,_label210b2
  3748  1d24  0c                	INC C
  3749                          _label210b2:
  3750  1d25  10f1              	DJNZ _label210
  3751  1d27  41                	LD B, C
  3752  1d28  4f                	LD C, A
  3753  1d29  223100            	LD (_initGame_Ttmp97), HL
  3754  1d2c  ed433300          	LD (_initGame_Ttmp97+2), BC
  3755  1d30  3a3100            	LD A, (_initGame_Ttmp97)
  3756  1d33  322f00            	LD (_initGame_Ttmp86), A
  3757  1d36  3a3200            	LD A, (_initGame_Ttmp97+1)
  3758  1d39  323000            	LD (_initGame_Ttmp86+1), A
  3759  1d3c  2a2900            	LD HL, (_initGame_Ttmp80)
  3760  1d3f  ed5b2f00          	LD DE, (_initGame_Ttmp86)
  3761  1d43  19                	ADD HL, DE
  3762  1d44  222900            	LD (_initGame_Ttmp80), HL
  3763  1d47  e600              	AND $0
  3764  1d49  2a2900            	LD HL, (_initGame_Ttmp80)
  3765  1d4c  118d71            	LD DE, _encountername
  3766  1d4f  19                	ADD HL, DE
  3767  1d50  222900            	LD (_initGame_Ttmp80), HL
  3768  1d53  ed5b2900          	LD DE, (_initGame_Ttmp80)
  3769  1d57  1a                	LD A, (DE)
  3770  1d58  325000            	LD (_initGame_Ttmp211), A
  3771  1d5b  3a0000            	LD A, (_initGame_Tstr206)
  3772  1d5e  323800            	LD (_initGame_Ttmp102), A
  3773  1d61  210000            	LD HL, _initGame_Tstr206
  3774  1d64  223600            	LD (_initGame_Ttmp101), HL
  3775  1d67  2a3600            	LD HL, (_initGame_Ttmp101)
  3776  1d6a  23                	INC HL
  3777  1d6b  223600            	LD (_initGame_Ttmp101), HL
  3778  1d6e  3a5000            	LD A, (_initGame_Ttmp211)
  3779  1d71  47                	LD B, A
  3780  1d72  cd6501            	CALL DSFREE
  3781  1d75  3a3800            	LD A, (_initGame_Ttmp102)
  3782  1d78  4f                	LD C, A
  3783  1d79  cd4e01            	CALL DSALLOC
  3784  1d7c  78                	LD A, B
  3785  1d7d  325000            	LD (_initGame_Ttmp211), A
  3786  1d80  3a5000            	LD A, (_initGame_Ttmp211)
  3787  1d83  47                	LD B, A
  3788  1d84  cdaa02            	CALL DSDESCRIPTOR
  3789  1d87  dd7e00            	LD A, (IX)
  3790                          ; peephole(3): unread
  3791                          ;	LD (_initGame_Ttmp104), A
  3792  1d8a  dd7e01            	LD A, (IX+1)
  3793  1d8d  323900            	LD (_initGame_Ttmp103), A
  3794  1d90  dd7e02            	LD A, (IX+2)
  3795  1d93  323a00            	LD (_initGame_Ttmp103+1), A
  3796  1d96  2a3600            	LD HL, (_initGame_Ttmp101)
  3797  1d99  ed5b3900          	LD DE, (_initGame_Ttmp103)
  3798  1d9d  3a3800            	LD A, (_initGame_Ttmp102)
  3799  1da0  4f                	LD C, A
  3800  1da1  0600              	LD B, 0
  3801  1da3  cdee02            	CALL DUFFDEVICE
  3802  1da6  ed5b2900          	LD DE, (_initGame_Ttmp80)
  3803  1daa  3a5000            	LD A, (_initGame_Ttmp211)
  3804  1dad  12                	LD (DE), A
  3805  1dae  3e00              	LD A, $00
  3806  1db0  325000            	LD (_initGame_Ttmp211), A
  3807                          	; P:100
  3808                          	; L:74
  3809  1db3  3e01              	LD A, $01
  3810  1db5  322400            	LD (_initGame_Ttmp72), A
  3811  1db8  3e02              	LD A, $02
  3812  1dba  322500            	LD (_initGame_Ttmp73), A
  3813  1dbd  3e00              	LD A, $00
  3814  1dbf  322900            	LD (_initGame_Ttmp80), A
  3815                          ; peephole(1): r250 (LD A, x; LD (x), A; LD A, x)->(LD A, x; LD (x), A)
  3816                          ;	LD A, $00
  3817  1dc2  322a00            	LD (_initGame_Ttmp80+1), A
  3818  1dc5  3e00              	LD A, $00
  3819  1dc7  322b00            	LD (_initGame_Ttmp81), A
  3820                          ; peephole(1): r250 (LD A, x; LD (x), A; LD A, x)->(LD A, x; LD (x), A)
  3821                          ;	LD A, $00
  3822  1dca  322c00            	LD (_initGame_Ttmp81+1), A
  3823  1dcd  3a2400            	LD A, (_initGame_Ttmp72)
  3824  1dd0  322b00            	LD (_initGame_Ttmp81), A
  3825  1dd3  2a2900            	LD HL, (_initGame_Ttmp80)
  3826  1dd6  ed5b2b00          	LD DE, (_initGame_Ttmp81)
  3827  1dda  19                	ADD HL, DE
  3828  1ddb  222900            	LD (_initGame_Ttmp80), HL
  3829  1dde  3e07              	LD A, $07
  3830  1de0  322600            	LD (_initGame_Ttmp75), A
  3831  1de3  3e00              	LD A, $00
  3832  1de5  322700            	LD (_initGame_Ttmp75+1), A
  3833                          ; peephole(1): r250 (LD A, x; LD (x), A; LD A, x)->(LD A, x; LD (x), A)
  3834                          ;	LD A, $00
  3835  1de8  322d00            	LD (_initGame_Ttmp82), A
  3836  1deb  3e00              	LD A, $00
  3837  1ded  322e00            	LD (_initGame_Ttmp82+1), A
  3838  1df0  3a2500            	LD A, (_initGame_Ttmp73)
  3839  1df3  322d00            	LD (_initGame_Ttmp82), A
  3840  1df6  ed4b2d00          	LD BC, (_initGame_Ttmp82)
  3841  1dfa  ed5b2600          	LD DE, (_initGame_Ttmp75)
  3842  1dfe  79                	LD A, C
  3843  1dff  48                	LD C, B
  3844  1e00  210000            	LD HL, 0
  3845  1e03  0610              	LD B, 16
  3846                          _label215:
  3847  1e05  29                	ADD HL, HL
  3848  1e06  17                	RLA
  3849  1e07  cb11              	RL C
  3850  1e09  3007              	JR NC,_label215b2
  3851  1e0b  19                	ADD HL, DE
  3852  1e0c  ce00              	ADC A, 0
  3853  1e0e  d2121e            	JP NC,_label215b2
  3854  1e11  0c                	INC C
  3855                          _label215b2:
  3856  1e12  10f1              	DJNZ _label215
  3857  1e14  41                	LD B, C
  3858  1e15  4f                	LD C, A
  3859  1e16  223100            	LD (_initGame_Ttmp97), HL
  3860  1e19  ed433300          	LD (_initGame_Ttmp97+2), BC
  3861  1e1d  3a3100            	LD A, (_initGame_Ttmp97)
  3862  1e20  322f00            	LD (_initGame_Ttmp86), A
  3863  1e23  3a3200            	LD A, (_initGame_Ttmp97+1)
  3864  1e26  323000            	LD (_initGame_Ttmp86+1), A
  3865  1e29  2a2900            	LD HL, (_initGame_Ttmp80)
  3866  1e2c  ed5b2f00          	LD DE, (_initGame_Ttmp86)
  3867  1e30  19                	ADD HL, DE
  3868  1e31  222900            	LD (_initGame_Ttmp80), HL
  3869  1e34  e600              	AND $0
  3870  1e36  2a2900            	LD HL, (_initGame_Ttmp80)
  3871  1e39  118d71            	LD DE, _encountername
  3872  1e3c  19                	ADD HL, DE
  3873  1e3d  222900            	LD (_initGame_Ttmp80), HL
  3874  1e40  ed5b2900          	LD DE, (_initGame_Ttmp80)
  3875  1e44  1a                	LD A, (DE)
  3876  1e45  325100            	LD (_initGame_Ttmp216), A
  3877  1e48  3a0000            	LD A, (_initGame_Tstr212)
  3878  1e4b  323800            	LD (_initGame_Ttmp102), A
  3879  1e4e  210000            	LD HL, _initGame_Tstr212
  3880  1e51  223600            	LD (_initGame_Ttmp101), HL
  3881  1e54  2a3600            	LD HL, (_initGame_Ttmp101)
  3882  1e57  23                	INC HL
  3883  1e58  223600            	LD (_initGame_Ttmp101), HL
  3884  1e5b  3a5100            	LD A, (_initGame_Ttmp216)
  3885  1e5e  47                	LD B, A
  3886  1e5f  cd6501            	CALL DSFREE
  3887  1e62  3a3800            	LD A, (_initGame_Ttmp102)
  3888  1e65  4f                	LD C, A
  3889  1e66  cd4e01            	CALL DSALLOC
  3890  1e69  78                	LD A, B
  3891  1e6a  325100            	LD (_initGame_Ttmp216), A
  3892  1e6d  3a5100            	LD A, (_initGame_Ttmp216)
  3893  1e70  47                	LD B, A
  3894  1e71  cdaa02            	CALL DSDESCRIPTOR
  3895  1e74  dd7e00            	LD A, (IX)
  3896                          ; peephole(3): unread
  3897                          ;	LD (_initGame_Ttmp104), A
  3898  1e77  dd7e01            	LD A, (IX+1)
  3899  1e7a  323900            	LD (_initGame_Ttmp103), A
  3900  1e7d  dd7e02            	LD A, (IX+2)
  3901  1e80  323a00            	LD (_initGame_Ttmp103+1), A
  3902  1e83  2a3600            	LD HL, (_initGame_Ttmp101)
  3903  1e86  ed5b3900          	LD DE, (_initGame_Ttmp103)
  3904  1e8a  3a3800            	LD A, (_initGame_Ttmp102)
  3905  1e8d  4f                	LD C, A
  3906  1e8e  0600              	LD B, 0
  3907  1e90  cdee02            	CALL DUFFDEVICE
  3908  1e93  ed5b2900          	LD DE, (_initGame_Ttmp80)
  3909  1e97  3a5100            	LD A, (_initGame_Ttmp216)
  3910  1e9a  12                	LD (DE), A
  3911  1e9b  3e00              	LD A, $00
  3912  1e9d  325100            	LD (_initGame_Ttmp216), A
  3913                          	; P:100
  3914                          	; L:75
  3915  1ea0  3e01              	LD A, $01
  3916  1ea2  322400            	LD (_initGame_Ttmp72), A
  3917  1ea5  3e03              	LD A, $03
  3918  1ea7  322500            	LD (_initGame_Ttmp73), A
  3919  1eaa  3e00              	LD A, $00
  3920  1eac  322900            	LD (_initGame_Ttmp80), A
  3921                          ; peephole(1): r250 (LD A, x; LD (x), A; LD A, x)->(LD A, x; LD (x), A)
  3922                          ;	LD A, $00
  3923  1eaf  322a00            	LD (_initGame_Ttmp80+1), A
  3924  1eb2  3e00              	LD A, $00
  3925  1eb4  322b00            	LD (_initGame_Ttmp81), A
  3926                          ; peephole(1): r250 (LD A, x; LD (x), A; LD A, x)->(LD A, x; LD (x), A)
  3927                          ;	LD A, $00
  3928  1eb7  322c00            	LD (_initGame_Ttmp81+1), A
  3929  1eba  3a2400            	LD A, (_initGame_Ttmp72)
  3930  1ebd  322b00            	LD (_initGame_Ttmp81), A
  3931  1ec0  2a2900            	LD HL, (_initGame_Ttmp80)
  3932  1ec3  ed5b2b00          	LD DE, (_initGame_Ttmp81)
  3933  1ec7  19                	ADD HL, DE
  3934  1ec8  222900            	LD (_initGame_Ttmp80), HL
  3935  1ecb  3e07              	LD A, $07
  3936  1ecd  322600            	LD (_initGame_Ttmp75), A
  3937  1ed0  3e00              	LD A, $00
  3938  1ed2  322700            	LD (_initGame_Ttmp75+1), A
  3939                          ; peephole(1): r250 (LD A, x; LD (x), A; LD A, x)->(LD A, x; LD (x), A)
  3940                          ;	LD A, $00
  3941  1ed5  322d00            	LD (_initGame_Ttmp82), A
  3942  1ed8  3e00              	LD A, $00
  3943  1eda  322e00            	LD (_initGame_Ttmp82+1), A
  3944  1edd  3a2500            	LD A, (_initGame_Ttmp73)
  3945  1ee0  322d00            	LD (_initGame_Ttmp82), A
  3946  1ee3  ed4b2d00          	LD BC, (_initGame_Ttmp82)
  3947  1ee7  ed5b2600          	LD DE, (_initGame_Ttmp75)
  3948  1eeb  79                	LD A, C
  3949  1eec  48                	LD C, B
  3950  1eed  210000            	LD HL, 0
  3951  1ef0  0610              	LD B, 16
  3952                          _label220:
  3953  1ef2  29                	ADD HL, HL
  3954  1ef3  17                	RLA
  3955  1ef4  cb11              	RL C
  3956  1ef6  3007              	JR NC,_label220b2
  3957  1ef8  19                	ADD HL, DE
  3958  1ef9  ce00              	ADC A, 0
  3959  1efb  d2ff1e            	JP NC,_label220b2
  3960  1efe  0c                	INC C
  3961                          _label220b2:
  3962  1eff  10f1              	DJNZ _label220
  3963  1f01  41                	LD B, C
  3964  1f02  4f                	LD C, A
  3965  1f03  223100            	LD (_initGame_Ttmp97), HL
  3966  1f06  ed433300          	LD (_initGame_Ttmp97+2), BC
  3967  1f0a  3a3100            	LD A, (_initGame_Ttmp97)
  3968  1f0d  322f00            	LD (_initGame_Ttmp86), A
  3969  1f10  3a3200            	LD A, (_initGame_Ttmp97+1)
  3970  1f13  323000            	LD (_initGame_Ttmp86+1), A
  3971  1f16  2a2900            	LD HL, (_initGame_Ttmp80)
  3972  1f19  ed5b2f00          	LD DE, (_initGame_Ttmp86)
  3973  1f1d  19                	ADD HL, DE
  3974  1f1e  222900            	LD (_initGame_Ttmp80), HL
  3975  1f21  e600              	AND $0
  3976  1f23  2a2900            	LD HL, (_initGame_Ttmp80)
  3977  1f26  118d71            	LD DE, _encountername
  3978  1f29  19                	ADD HL, DE
  3979  1f2a  222900            	LD (_initGame_Ttmp80), HL
  3980  1f2d  ed5b2900          	LD DE, (_initGame_Ttmp80)
  3981  1f31  1a                	LD A, (DE)
  3982  1f32  325200            	LD (_initGame_Ttmp221), A
  3983  1f35  3a0000            	LD A, (_initGame_Tstr217)
  3984  1f38  323800            	LD (_initGame_Ttmp102), A
  3985  1f3b  210000            	LD HL, _initGame_Tstr217
  3986  1f3e  223600            	LD (_initGame_Ttmp101), HL
  3987  1f41  2a3600            	LD HL, (_initGame_Ttmp101)
  3988  1f44  23                	INC HL
  3989  1f45  223600            	LD (_initGame_Ttmp101), HL
  3990  1f48  3a5200            	LD A, (_initGame_Ttmp221)
  3991  1f4b  47                	LD B, A
  3992  1f4c  cd6501            	CALL DSFREE
  3993  1f4f  3a3800            	LD A, (_initGame_Ttmp102)
  3994  1f52  4f                	LD C, A
  3995  1f53  cd4e01            	CALL DSALLOC
  3996  1f56  78                	LD A, B
  3997  1f57  325200            	LD (_initGame_Ttmp221), A
  3998  1f5a  3a5200            	LD A, (_initGame_Ttmp221)
  3999  1f5d  47                	LD B, A
  4000  1f5e  cdaa02            	CALL DSDESCRIPTOR
  4001  1f61  dd7e00            	LD A, (IX)
  4002                          ; peephole(3): unread
  4003                          ;	LD (_initGame_Ttmp104), A
  4004  1f64  dd7e01            	LD A, (IX+1)
  4005  1f67  323900            	LD (_initGame_Ttmp103), A
  4006  1f6a  dd7e02            	LD A, (IX+2)
  4007  1f6d  323a00            	LD (_initGame_Ttmp103+1), A
  4008  1f70  2a3600            	LD HL, (_initGame_Ttmp101)
  4009  1f73  ed5b3900          	LD DE, (_initGame_Ttmp103)
  4010  1f77  3a3800            	LD A, (_initGame_Ttmp102)
  4011  1f7a  4f                	LD C, A
  4012  1f7b  0600              	LD B, 0
  4013  1f7d  cdee02            	CALL DUFFDEVICE
  4014  1f80  ed5b2900          	LD DE, (_initGame_Ttmp80)
  4015  1f84  3a5200            	LD A, (_initGame_Ttmp221)
  4016  1f87  12                	LD (DE), A
  4017  1f88  3e00              	LD A, $00
  4018  1f8a  325200            	LD (_initGame_Ttmp221), A
  4019                          	; P:100
  4020                          	; L:76
  4021  1f8d  3e01              	LD A, $01
  4022  1f8f  322400            	LD (_initGame_Ttmp72), A
  4023  1f92  3e04              	LD A, $04
  4024  1f94  322500            	LD (_initGame_Ttmp73), A
  4025  1f97  3e00              	LD A, $00
  4026  1f99  322900            	LD (_initGame_Ttmp80), A
  4027                          ; peephole(1): r250 (LD A, x; LD (x), A; LD A, x)->(LD A, x; LD (x), A)
  4028                          ;	LD A, $00
  4029  1f9c  322a00            	LD (_initGame_Ttmp80+1), A
  4030  1f9f  3e00              	LD A, $00
  4031  1fa1  322b00            	LD (_initGame_Ttmp81), A
  4032                          ; peephole(1): r250 (LD A, x; LD (x), A; LD A, x)->(LD A, x; LD (x), A)
  4033                          ;	LD A, $00
  4034  1fa4  322c00            	LD (_initGame_Ttmp81+1), A
  4035  1fa7  3a2400            	LD A, (_initGame_Ttmp72)
  4036  1faa  322b00            	LD (_initGame_Ttmp81), A
  4037  1fad  2a2900            	LD HL, (_initGame_Ttmp80)
  4038  1fb0  ed5b2b00          	LD DE, (_initGame_Ttmp81)
  4039  1fb4  19                	ADD HL, DE
  4040  1fb5  222900            	LD (_initGame_Ttmp80), HL
  4041  1fb8  3e07              	LD A, $07
  4042  1fba  322600            	LD (_initGame_Ttmp75), A
  4043  1fbd  3e00              	LD A, $00
  4044  1fbf  322700            	LD (_initGame_Ttmp75+1), A
  4045                          ; peephole(1): r250 (LD A, x; LD (x), A; LD A, x)->(LD A, x; LD (x), A)
  4046                          ;	LD A, $00
  4047  1fc2  322d00            	LD (_initGame_Ttmp82), A
  4048  1fc5  3e00              	LD A, $00
  4049  1fc7  322e00            	LD (_initGame_Ttmp82+1), A
  4050  1fca  3a2500            	LD A, (_initGame_Ttmp73)
  4051  1fcd  322d00            	LD (_initGame_Ttmp82), A
  4052  1fd0  ed4b2d00          	LD BC, (_initGame_Ttmp82)
  4053  1fd4  ed5b2600          	LD DE, (_initGame_Ttmp75)
  4054  1fd8  79                	LD A, C
  4055  1fd9  48                	LD C, B
  4056  1fda  210000            	LD HL, 0
  4057  1fdd  0610              	LD B, 16
  4058                          _label225:
  4059  1fdf  29                	ADD HL, HL
  4060  1fe0  17                	RLA
  4061  1fe1  cb11              	RL C
  4062  1fe3  3007              	JR NC,_label225b2
  4063  1fe5  19                	ADD HL, DE
  4064  1fe6  ce00              	ADC A, 0
  4065  1fe8  d2ec1f            	JP NC,_label225b2
  4066  1feb  0c                	INC C
  4067                          _label225b2:
  4068  1fec  10f1              	DJNZ _label225
  4069  1fee  41                	LD B, C
  4070  1fef  4f                	LD C, A
  4071  1ff0  223100            	LD (_initGame_Ttmp97), HL
  4072  1ff3  ed433300          	LD (_initGame_Ttmp97+2), BC
  4073  1ff7  3a3100            	LD A, (_initGame_Ttmp97)
  4074  1ffa  322f00            	LD (_initGame_Ttmp86), A
  4075  1ffd  3a3200            	LD A, (_initGame_Ttmp97+1)
  4076  2000  323000            	LD (_initGame_Ttmp86+1), A
  4077  2003  2a2900            	LD HL, (_initGame_Ttmp80)
  4078  2006  ed5b2f00          	LD DE, (_initGame_Ttmp86)
  4079  200a  19                	ADD HL, DE
  4080  200b  222900            	LD (_initGame_Ttmp80), HL
  4081  200e  e600              	AND $0
  4082  2010  2a2900            	LD HL, (_initGame_Ttmp80)
  4083  2013  118d71            	LD DE, _encountername
  4084  2016  19                	ADD HL, DE
  4085  2017  222900            	LD (_initGame_Ttmp80), HL
  4086  201a  ed5b2900          	LD DE, (_initGame_Ttmp80)
  4087  201e  1a                	LD A, (DE)
  4088  201f  325300            	LD (_initGame_Ttmp226), A
  4089  2022  3a0000            	LD A, (_initGame_Tstr222)
  4090  2025  323800            	LD (_initGame_Ttmp102), A
  4091  2028  210000            	LD HL, _initGame_Tstr222
  4092  202b  223600            	LD (_initGame_Ttmp101), HL
  4093  202e  2a3600            	LD HL, (_initGame_Ttmp101)
  4094  2031  23                	INC HL
  4095  2032  223600            	LD (_initGame_Ttmp101), HL
  4096  2035  3a5300            	LD A, (_initGame_Ttmp226)
  4097  2038  47                	LD B, A
  4098  2039  cd6501            	CALL DSFREE
  4099  203c  3a3800            	LD A, (_initGame_Ttmp102)
  4100  203f  4f                	LD C, A
  4101  2040  cd4e01            	CALL DSALLOC
  4102  2043  78                	LD A, B
  4103  2044  325300            	LD (_initGame_Ttmp226), A
  4104  2047  3a5300            	LD A, (_initGame_Ttmp226)
  4105  204a  47                	LD B, A
  4106  204b  cdaa02            	CALL DSDESCRIPTOR
  4107  204e  dd7e00            	LD A, (IX)
  4108                          ; peephole(3): unread
  4109                          ;	LD (_initGame_Ttmp104), A
  4110  2051  dd7e01            	LD A, (IX+1)
  4111  2054  323900            	LD (_initGame_Ttmp103), A
  4112  2057  dd7e02            	LD A, (IX+2)
  4113  205a  323a00            	LD (_initGame_Ttmp103+1), A
  4114  205d  2a3600            	LD HL, (_initGame_Ttmp101)
  4115  2060  ed5b3900          	LD DE, (_initGame_Ttmp103)
  4116  2064  3a3800            	LD A, (_initGame_Ttmp102)
  4117  2067  4f                	LD C, A
  4118  2068  0600              	LD B, 0
  4119  206a  cdee02            	CALL DUFFDEVICE
  4120  206d  ed5b2900          	LD DE, (_initGame_Ttmp80)
  4121  2071  3a5300            	LD A, (_initGame_Ttmp226)
  4122  2074  12                	LD (DE), A
  4123  2075  3e00              	LD A, $00
  4124  2077  325300            	LD (_initGame_Ttmp226), A
  4125                          	; P:100
  4126                          	; L:77
  4127  207a  3e01              	LD A, $01
  4128  207c  322400            	LD (_initGame_Ttmp72), A
  4129  207f  3e05              	LD A, $05
  4130  2081  322500            	LD (_initGame_Ttmp73), A
  4131  2084  3e00              	LD A, $00
  4132  2086  322900            	LD (_initGame_Ttmp80), A
  4133                          ; peephole(1): r250 (LD A, x; LD (x), A; LD A, x)->(LD A, x; LD (x), A)
  4134                          ;	LD A, $00
  4135  2089  322a00            	LD (_initGame_Ttmp80+1), A
  4136  208c  3e00              	LD A, $00
  4137  208e  322b00            	LD (_initGame_Ttmp81), A
  4138                          ; peephole(1): r250 (LD A, x; LD (x), A; LD A, x)->(LD A, x; LD (x), A)
  4139                          ;	LD A, $00
  4140  2091  322c00            	LD (_initGame_Ttmp81+1), A
  4141  2094  3a2400            	LD A, (_initGame_Ttmp72)
  4142  2097  322b00            	LD (_initGame_Ttmp81), A
  4143  209a  2a2900            	LD HL, (_initGame_Ttmp80)
  4144  209d  ed5b2b00          	LD DE, (_initGame_Ttmp81)
  4145  20a1  19                	ADD HL, DE
  4146  20a2  222900            	LD (_initGame_Ttmp80), HL
  4147  20a5  3e07              	LD A, $07
  4148  20a7  322600            	LD (_initGame_Ttmp75), A
  4149  20aa  3e00              	LD A, $00
  4150  20ac  322700            	LD (_initGame_Ttmp75+1), A
  4151                          ; peephole(1): r250 (LD A, x; LD (x), A; LD A, x)->(LD A, x; LD (x), A)
  4152                          ;	LD A, $00
  4153  20af  322d00            	LD (_initGame_Ttmp82), A
  4154  20b2  3e00              	LD A, $00
  4155  20b4  322e00            	LD (_initGame_Ttmp82+1), A
  4156  20b7  3a2500            	LD A, (_initGame_Ttmp73)
  4157  20ba  322d00            	LD (_initGame_Ttmp82), A
  4158  20bd  ed4b2d00          	LD BC, (_initGame_Ttmp82)
  4159  20c1  ed5b2600          	LD DE, (_initGame_Ttmp75)
  4160  20c5  79                	LD A, C
  4161  20c6  48                	LD C, B
  4162  20c7  210000            	LD HL, 0
  4163  20ca  0610              	LD B, 16
  4164                          _label230:
  4165  20cc  29                	ADD HL, HL
  4166  20cd  17                	RLA
  4167  20ce  cb11              	RL C
  4168  20d0  3007              	JR NC,_label230b2
  4169  20d2  19                	ADD HL, DE
  4170  20d3  ce00              	ADC A, 0
  4171  20d5  d2d920            	JP NC,_label230b2
  4172  20d8  0c                	INC C
  4173                          _label230b2:
  4174  20d9  10f1              	DJNZ _label230
  4175  20db  41                	LD B, C
  4176  20dc  4f                	LD C, A
  4177  20dd  223100            	LD (_initGame_Ttmp97), HL
  4178  20e0  ed433300          	LD (_initGame_Ttmp97+2), BC
  4179  20e4  3a3100            	LD A, (_initGame_Ttmp97)
  4180  20e7  322f00            	LD (_initGame_Ttmp86), A
  4181  20ea  3a3200            	LD A, (_initGame_Ttmp97+1)
  4182  20ed  323000            	LD (_initGame_Ttmp86+1), A
  4183  20f0  2a2900            	LD HL, (_initGame_Ttmp80)
  4184  20f3  ed5b2f00          	LD DE, (_initGame_Ttmp86)
  4185  20f7  19                	ADD HL, DE
  4186  20f8  222900            	LD (_initGame_Ttmp80), HL
  4187  20fb  e600              	AND $0
  4188  20fd  2a2900            	LD HL, (_initGame_Ttmp80)
  4189  2100  118d71            	LD DE, _encountername
  4190  2103  19                	ADD HL, DE
  4191  2104  222900            	LD (_initGame_Ttmp80), HL
  4192  2107  ed5b2900          	LD DE, (_initGame_Ttmp80)
  4193  210b  1a                	LD A, (DE)
  4194  210c  325400            	LD (_initGame_Ttmp231), A
  4195  210f  3a0000            	LD A, (_initGame_Tstr227)
  4196  2112  323800            	LD (_initGame_Ttmp102), A
  4197  2115  210000            	LD HL, _initGame_Tstr227
  4198  2118  223600            	LD (_initGame_Ttmp101), HL
  4199  211b  2a3600            	LD HL, (_initGame_Ttmp101)
  4200  211e  23                	INC HL
  4201  211f  223600            	LD (_initGame_Ttmp101), HL
  4202  2122  3a5400            	LD A, (_initGame_Ttmp231)
  4203  2125  47                	LD B, A
  4204  2126  cd6501            	CALL DSFREE
  4205  2129  3a3800            	LD A, (_initGame_Ttmp102)
  4206  212c  4f                	LD C, A
  4207  212d  cd4e01            	CALL DSALLOC
  4208  2130  78                	LD A, B
  4209  2131  325400            	LD (_initGame_Ttmp231), A
  4210  2134  3a5400            	LD A, (_initGame_Ttmp231)
  4211  2137  47                	LD B, A
  4212  2138  cdaa02            	CALL DSDESCRIPTOR
  4213  213b  dd7e00            	LD A, (IX)
  4214                          ; peephole(3): unread
  4215                          ;	LD (_initGame_Ttmp104), A
  4216  213e  dd7e01            	LD A, (IX+1)
  4217  2141  323900            	LD (_initGame_Ttmp103), A
  4218  2144  dd7e02            	LD A, (IX+2)
  4219  2147  323a00            	LD (_initGame_Ttmp103+1), A
  4220  214a  2a3600            	LD HL, (_initGame_Ttmp101)
  4221  214d  ed5b3900          	LD DE, (_initGame_Ttmp103)
  4222  2151  3a3800            	LD A, (_initGame_Ttmp102)
  4223  2154  4f                	LD C, A
  4224  2155  0600              	LD B, 0
  4225  2157  cdee02            	CALL DUFFDEVICE
  4226  215a  ed5b2900          	LD DE, (_initGame_Ttmp80)
  4227  215e  3a5400            	LD A, (_initGame_Ttmp231)
  4228  2161  12                	LD (DE), A
  4229  2162  3e00              	LD A, $00
  4230  2164  325400            	LD (_initGame_Ttmp231), A
  4231                          	; P:100
  4232                          	; L:78
  4233  2167  3e01              	LD A, $01
  4234  2169  322400            	LD (_initGame_Ttmp72), A
  4235  216c  3e06              	LD A, $06
  4236  216e  322500            	LD (_initGame_Ttmp73), A
  4237  2171  3e00              	LD A, $00
  4238  2173  322900            	LD (_initGame_Ttmp80), A
  4239                          ; peephole(1): r250 (LD A, x; LD (x), A; LD A, x)->(LD A, x; LD (x), A)
  4240                          ;	LD A, $00
  4241  2176  322a00            	LD (_initGame_Ttmp80+1), A
  4242  2179  3e00              	LD A, $00
  4243  217b  322b00            	LD (_initGame_Ttmp81), A
  4244                          ; peephole(1): r250 (LD A, x; LD (x), A; LD A, x)->(LD A, x; LD (x), A)
  4245                          ;	LD A, $00
  4246  217e  322c00            	LD (_initGame_Ttmp81+1), A
  4247  2181  3a2400            	LD A, (_initGame_Ttmp72)
  4248  2184  322b00            	LD (_initGame_Ttmp81), A
  4249  2187  2a2900            	LD HL, (_initGame_Ttmp80)
  4250  218a  ed5b2b00          	LD DE, (_initGame_Ttmp81)
  4251  218e  19                	ADD HL, DE
  4252  218f  222900            	LD (_initGame_Ttmp80), HL
  4253  2192  3e07              	LD A, $07
  4254  2194  322600            	LD (_initGame_Ttmp75), A
  4255  2197  3e00              	LD A, $00
  4256  2199  322700            	LD (_initGame_Ttmp75+1), A
  4257                          ; peephole(1): r250 (LD A, x; LD (x), A; LD A, x)->(LD A, x; LD (x), A)
  4258                          ;	LD A, $00
  4259  219c  322d00            	LD (_initGame_Ttmp82), A
  4260  219f  3e00              	LD A, $00
  4261  21a1  322e00            	LD (_initGame_Ttmp82+1), A
  4262  21a4  3a2500            	LD A, (_initGame_Ttmp73)
  4263  21a7  322d00            	LD (_initGame_Ttmp82), A
  4264  21aa  ed4b2d00          	LD BC, (_initGame_Ttmp82)
  4265  21ae  ed5b2600          	LD DE, (_initGame_Ttmp75)
  4266  21b2  79                	LD A, C
  4267  21b3  48                	LD C, B
  4268  21b4  210000            	LD HL, 0
  4269  21b7  0610              	LD B, 16
  4270                          _label235:
  4271  21b9  29                	ADD HL, HL
  4272  21ba  17                	RLA
  4273  21bb  cb11              	RL C
  4274  21bd  3007              	JR NC,_label235b2
  4275  21bf  19                	ADD HL, DE
  4276  21c0  ce00              	ADC A, 0
  4277  21c2  d2c621            	JP NC,_label235b2
  4278  21c5  0c                	INC C
  4279                          _label235b2:
  4280  21c6  10f1              	DJNZ _label235
  4281  21c8  41                	LD B, C
  4282  21c9  4f                	LD C, A
  4283  21ca  223100            	LD (_initGame_Ttmp97), HL
  4284  21cd  ed433300          	LD (_initGame_Ttmp97+2), BC
  4285  21d1  3a3100            	LD A, (_initGame_Ttmp97)
  4286  21d4  322f00            	LD (_initGame_Ttmp86), A
  4287  21d7  3a3200            	LD A, (_initGame_Ttmp97+1)
  4288  21da  323000            	LD (_initGame_Ttmp86+1), A
  4289  21dd  2a2900            	LD HL, (_initGame_Ttmp80)
  4290  21e0  ed5b2f00          	LD DE, (_initGame_Ttmp86)
  4291  21e4  19                	ADD HL, DE
  4292  21e5  222900            	LD (_initGame_Ttmp80), HL
  4293  21e8  e600              	AND $0
  4294  21ea  2a2900            	LD HL, (_initGame_Ttmp80)
  4295  21ed  118d71            	LD DE, _encountername
  4296  21f0  19                	ADD HL, DE
  4297  21f1  222900            	LD (_initGame_Ttmp80), HL
  4298  21f4  ed5b2900          	LD DE, (_initGame_Ttmp80)
  4299  21f8  1a                	LD A, (DE)
  4300  21f9  325500            	LD (_initGame_Ttmp236), A
  4301  21fc  3a0000            	LD A, (_initGame_Tstr232)
  4302  21ff  323800            	LD (_initGame_Ttmp102), A
  4303  2202  210000            	LD HL, _initGame_Tstr232
  4304  2205  223600            	LD (_initGame_Ttmp101), HL
  4305  2208  2a3600            	LD HL, (_initGame_Ttmp101)
  4306  220b  23                	INC HL
  4307  220c  223600            	LD (_initGame_Ttmp101), HL
  4308  220f  3a5500            	LD A, (_initGame_Ttmp236)
  4309  2212  47                	LD B, A
  4310  2213  cd6501            	CALL DSFREE
  4311  2216  3a3800            	LD A, (_initGame_Ttmp102)
  4312  2219  4f                	LD C, A
  4313  221a  cd4e01            	CALL DSALLOC
  4314  221d  78                	LD A, B
  4315  221e  325500            	LD (_initGame_Ttmp236), A
  4316  2221  3a5500            	LD A, (_initGame_Ttmp236)
  4317  2224  47                	LD B, A
  4318  2225  cdaa02            	CALL DSDESCRIPTOR
  4319  2228  dd7e00            	LD A, (IX)
  4320                          ; peephole(3): unread
  4321                          ;	LD (_initGame_Ttmp104), A
  4322  222b  dd7e01            	LD A, (IX+1)
  4323  222e  323900            	LD (_initGame_Ttmp103), A
  4324  2231  dd7e02            	LD A, (IX+2)
  4325  2234  323a00            	LD (_initGame_Ttmp103+1), A
  4326  2237  2a3600            	LD HL, (_initGame_Ttmp101)
  4327  223a  ed5b3900          	LD DE, (_initGame_Ttmp103)
  4328  223e  3a3800            	LD A, (_initGame_Ttmp102)
  4329  2241  4f                	LD C, A
  4330  2242  0600              	LD B, 0
  4331  2244  cdee02            	CALL DUFFDEVICE
  4332  2247  ed5b2900          	LD DE, (_initGame_Ttmp80)
  4333  224b  3a5500            	LD A, (_initGame_Ttmp236)
  4334  224e  12                	LD (DE), A
  4335  224f  3e00              	LD A, $00
  4336  2251  325500            	LD (_initGame_Ttmp236), A
  4337                          	; P:100
  4338                          	; L:79
  4339                          	; P:0
  4340                          	; L:80
  4341  2254  3e01              	LD A, $01
  4342  2256  322400            	LD (_initGame_Ttmp72), A
  4343                          ; peephole(1): r250 (LD A, x; LD (x), A; LD A, x)->(LD A, x; LD (x), A)
  4344                          ;	LD A, $01
  4345  2259  322500            	LD (_initGame_Ttmp73), A
  4346  225c  3e04              	LD A, $04
  4347  225e  322800            	LD (_initGame_Ttmp76), A
  4348  2261  3e00              	LD A, $00
  4349  2263  322600            	LD (_initGame_Ttmp75), A
  4350                          ; peephole(1): r250 (LD A, x; LD (x), A; LD A, x)->(LD A, x; LD (x), A)
  4351                          ;	LD A, $00
  4352  2266  322700            	LD (_initGame_Ttmp75+1), A
  4353  2269  3a2800            	LD A, (_initGame_Ttmp76)
  4354  226c  322600            	LD (_initGame_Ttmp75), A
  4355  226f  3e00              	LD A, $00
  4356  2271  322b00            	LD (_initGame_Ttmp81), A
  4357                          ; peephole(1): r250 (LD A, x; LD (x), A; LD A, x)->(LD A, x; LD (x), A)
  4358                          ;	LD A, $00
  4359  2274  322c00            	LD (_initGame_Ttmp81+1), A
  4360  2277  3e00              	LD A, $00
  4361  2279  322d00            	LD (_initGame_Ttmp82), A
  4362                          ; peephole(1): r250 (LD A, x; LD (x), A; LD A, x)->(LD A, x; LD (x), A)
  4363                          ;	LD A, $00
  4364  227c  322e00            	LD (_initGame_Ttmp82+1), A
  4365  227f  3a2400            	LD A, (_initGame_Ttmp72)
  4366  2282  322d00            	LD (_initGame_Ttmp82), A
  4367  2285  2a2b00            	LD HL, (_initGame_Ttmp81)
  4368  2288  ed5b2d00          	LD DE, (_initGame_Ttmp82)
  4369  228c  19                	ADD HL, DE
  4370  228d  222b00            	LD (_initGame_Ttmp81), HL
  4371  2290  3e07              	LD A, $07
  4372  2292  322900            	LD (_initGame_Ttmp80), A
  4373  2295  3e00              	LD A, $00
  4374  2297  322a00            	LD (_initGame_Ttmp80+1), A
  4375                          ; peephole(1): r250 (LD A, x; LD (x), A; LD A, x)->(LD A, x; LD (x), A)
  4376                          ;	LD A, $00
  4377  229a  322f00            	LD (_initGame_Ttmp86), A
  4378  229d  3e00              	LD A, $00
  4379  229f  323000            	LD (_initGame_Ttmp86+1), A
  4380  22a2  3a2500            	LD A, (_initGame_Ttmp73)
  4381  22a5  322f00            	LD (_initGame_Ttmp86), A
  4382  22a8  ed4b2f00          	LD BC, (_initGame_Ttmp86)
  4383  22ac  ed5b2900          	LD DE, (_initGame_Ttmp80)
  4384  22b0  79                	LD A, C
  4385  22b1  48                	LD C, B
  4386  22b2  210000            	LD HL, 0
  4387  22b5  0610              	LD B, 16
  4388                          _label242:
  4389  22b7  29                	ADD HL, HL
  4390  22b8  17                	RLA
  4391  22b9  cb11              	RL C
  4392  22bb  3007              	JR NC,_label242b2
  4393  22bd  19                	ADD HL, DE
  4394  22be  ce00              	ADC A, 0
  4395  22c0  d2c422            	JP NC,_label242b2
  4396  22c3  0c                	INC C
  4397                          _label242b2:
  4398  22c4  10f1              	DJNZ _label242
  4399  22c6  41                	LD B, C
  4400  22c7  4f                	LD C, A
  4401  22c8  223100            	LD (_initGame_Ttmp97), HL
  4402  22cb  ed433300          	LD (_initGame_Ttmp97+2), BC
  4403  22cf  3a3100            	LD A, (_initGame_Ttmp97)
  4404  22d2  324c00            	LD (_initGame_Ttmp202), A
  4405  22d5  3a3200            	LD A, (_initGame_Ttmp97+1)
  4406  22d8  324d00            	LD (_initGame_Ttmp202+1), A
  4407  22db  2a2b00            	LD HL, (_initGame_Ttmp81)
  4408  22de  ed5b4c00          	LD DE, (_initGame_Ttmp202)
  4409  22e2  19                	ADD HL, DE
  4410  22e3  222b00            	LD (_initGame_Ttmp81), HL
  4411  22e6  3a2b00            	LD A, (_initGame_Ttmp81)
  4412  22e9  324e00            	LD (_initGame_Ttmp204), A
  4413  22ec  3a2c00            	LD A, (_initGame_Ttmp81+1)
  4414  22ef  324f00            	LD (_initGame_Ttmp204+1), A
  4415  22f2  2a4e00            	LD HL, (_initGame_Ttmp204)
  4416                          ; peephole(1): r349 (SLA+RL)->(ADD)
  4417                          ;	SLA L
  4418  22f5  29                	ADD HL, HL
  4419                          ;	RL H
  4420  22f6  224e00            	LD (_initGame_Ttmp204), HL
  4421  22f9  e600              	AND $0
  4422  22fb  2a4e00            	LD HL, (_initGame_Ttmp204)
  4423  22fe  11d371            	LD DE, _encounterstr
  4424  2301  19                	ADD HL, DE
  4425  2302  224e00            	LD (_initGame_Ttmp204), HL
  4426  2305  ed5b4e00          	LD DE, (_initGame_Ttmp204)
  4427  2309  2a2600            	LD HL, (_initGame_Ttmp75)
  4428  230c  7d                	LD A, L
  4429  230d  12                	LD (DE), A
  4430  230e  13                	INC DE
  4431  230f  7c                	LD A, H
  4432  2310  12                	LD (DE), A
  4433                          	; P:85
  4434                          	; L:81
  4435  2311  3e01              	LD A, $01
  4436  2313  322400            	LD (_initGame_Ttmp72), A
  4437  2316  3e02              	LD A, $02
  4438  2318  322500            	LD (_initGame_Ttmp73), A
  4439  231b  3e04              	LD A, $04
  4440  231d  322800            	LD (_initGame_Ttmp76), A
  4441  2320  3e00              	LD A, $00
  4442  2322  322600            	LD (_initGame_Ttmp75), A
  4443                          ; peephole(1): r250 (LD A, x; LD (x), A; LD A, x)->(LD A, x; LD (x), A)
  4444                          ;	LD A, $00
  4445  2325  322700            	LD (_initGame_Ttmp75+1), A
  4446  2328  3a2800            	LD A, (_initGame_Ttmp76)
  4447  232b  322600            	LD (_initGame_Ttmp75), A
  4448  232e  3e00              	LD A, $00
  4449  2330  322b00            	LD (_initGame_Ttmp81), A
  4450                          ; peephole(1): r250 (LD A, x; LD (x), A; LD A, x)->(LD A, x; LD (x), A)
  4451                          ;	LD A, $00
  4452  2333  322c00            	LD (_initGame_Ttmp81+1), A
  4453  2336  3e00              	LD A, $00
  4454  2338  322d00            	LD (_initGame_Ttmp82), A
  4455                          ; peephole(1): r250 (LD A, x; LD (x), A; LD A, x)->(LD A, x; LD (x), A)
  4456                          ;	LD A, $00
  4457  233b  322e00            	LD (_initGame_Ttmp82+1), A
  4458  233e  3a2400            	LD A, (_initGame_Ttmp72)
  4459  2341  322d00            	LD (_initGame_Ttmp82), A
  4460  2344  2a2b00            	LD HL, (_initGame_Ttmp81)
  4461  2347  ed5b2d00          	LD DE, (_initGame_Ttmp82)
  4462  234b  19                	ADD HL, DE
  4463  234c  222b00            	LD (_initGame_Ttmp81), HL
  4464  234f  3e07              	LD A, $07
  4465  2351  322900            	LD (_initGame_Ttmp80), A
  4466  2354  3e00              	LD A, $00
  4467  2356  322a00            	LD (_initGame_Ttmp80+1), A
  4468                          ; peephole(1): r250 (LD A, x; LD (x), A; LD A, x)->(LD A, x; LD (x), A)
  4469                          ;	LD A, $00
  4470  2359  322f00            	LD (_initGame_Ttmp86), A
  4471  235c  3e00              	LD A, $00
  4472  235e  323000            	LD (_initGame_Ttmp86+1), A
  4473  2361  3a2500            	LD A, (_initGame_Ttmp73)
  4474  2364  322f00            	LD (_initGame_Ttmp86), A
  4475  2367  ed4b2f00          	LD BC, (_initGame_Ttmp86)
  4476  236b  ed5b2900          	LD DE, (_initGame_Ttmp80)
  4477  236f  79                	LD A, C
  4478  2370  48                	LD C, B
  4479  2371  210000            	LD HL, 0
  4480  2374  0610              	LD B, 16
  4481                          _label249:
  4482  2376  29                	ADD HL, HL
  4483  2377  17                	RLA
  4484  2378  cb11              	RL C
  4485  237a  3007              	JR NC,_label249b2
  4486  237c  19                	ADD HL, DE
  4487  237d  ce00              	ADC A, 0
  4488  237f  d28323            	JP NC,_label249b2
  4489  2382  0c                	INC C
  4490                          _label249b2:
  4491  2383  10f1              	DJNZ _label249
  4492  2385  41                	LD B, C
  4493  2386  4f                	LD C, A
  4494  2387  223100            	LD (_initGame_Ttmp97), HL
  4495  238a  ed433300          	LD (_initGame_Ttmp97+2), BC
  4496  238e  3a3100            	LD A, (_initGame_Ttmp97)
  4497  2391  324c00            	LD (_initGame_Ttmp202), A
  4498  2394  3a3200            	LD A, (_initGame_Ttmp97+1)
  4499  2397  324d00            	LD (_initGame_Ttmp202+1), A
  4500  239a  2a2b00            	LD HL, (_initGame_Ttmp81)
  4501  239d  ed5b4c00          	LD DE, (_initGame_Ttmp202)
  4502  23a1  19                	ADD HL, DE
  4503  23a2  222b00            	LD (_initGame_Ttmp81), HL
  4504  23a5  3a2b00            	LD A, (_initGame_Ttmp81)
  4505  23a8  324e00            	LD (_initGame_Ttmp204), A
  4506  23ab  3a2c00            	LD A, (_initGame_Ttmp81+1)
  4507  23ae  324f00            	LD (_initGame_Ttmp204+1), A
  4508  23b1  2a4e00            	LD HL, (_initGame_Ttmp204)
  4509                          ; peephole(1): r349 (SLA+RL)->(ADD)
  4510                          ;	SLA L
  4511  23b4  29                	ADD HL, HL
  4512                          ;	RL H
  4513  23b5  224e00            	LD (_initGame_Ttmp204), HL
  4514  23b8  e600              	AND $0
  4515  23ba  2a4e00            	LD HL, (_initGame_Ttmp204)
  4516  23bd  11d371            	LD DE, _encounterstr
  4517  23c0  19                	ADD HL, DE
  4518  23c1  224e00            	LD (_initGame_Ttmp204), HL
  4519  23c4  ed5b4e00          	LD DE, (_initGame_Ttmp204)
  4520  23c8  2a2600            	LD HL, (_initGame_Ttmp75)
  4521  23cb  7d                	LD A, L
  4522  23cc  12                	LD (DE), A
  4523  23cd  13                	INC DE
  4524  23ce  7c                	LD A, H
  4525  23cf  12                	LD (DE), A
  4526                          	; P:85
  4527                          	; L:82
  4528  23d0  3e01              	LD A, $01
  4529  23d2  322400            	LD (_initGame_Ttmp72), A
  4530  23d5  3e03              	LD A, $03
  4531  23d7  322500            	LD (_initGame_Ttmp73), A
  4532  23da  3e04              	LD A, $04
  4533  23dc  322800            	LD (_initGame_Ttmp76), A
  4534  23df  3e00              	LD A, $00
  4535  23e1  322600            	LD (_initGame_Ttmp75), A
  4536                          ; peephole(1): r250 (LD A, x; LD (x), A; LD A, x)->(LD A, x; LD (x), A)
  4537                          ;	LD A, $00
  4538  23e4  322700            	LD (_initGame_Ttmp75+1), A
  4539  23e7  3a2800            	LD A, (_initGame_Ttmp76)
  4540  23ea  322600            	LD (_initGame_Ttmp75), A
  4541  23ed  3e00              	LD A, $00
  4542  23ef  322b00            	LD (_initGame_Ttmp81), A
  4543                          ; peephole(1): r250 (LD A, x; LD (x), A; LD A, x)->(LD A, x; LD (x), A)
  4544                          ;	LD A, $00
  4545  23f2  322c00            	LD (_initGame_Ttmp81+1), A
  4546  23f5  3e00              	LD A, $00
  4547  23f7  322d00            	LD (_initGame_Ttmp82), A
  4548                          ; peephole(1): r250 (LD A, x; LD (x), A; LD A, x)->(LD A, x; LD (x), A)
  4549                          ;	LD A, $00
  4550  23fa  322e00            	LD (_initGame_Ttmp82+1), A
  4551  23fd  3a2400            	LD A, (_initGame_Ttmp72)
  4552  2400  322d00            	LD (_initGame_Ttmp82), A
  4553  2403  2a2b00            	LD HL, (_initGame_Ttmp81)
  4554  2406  ed5b2d00          	LD DE, (_initGame_Ttmp82)
  4555  240a  19                	ADD HL, DE
  4556  240b  222b00            	LD (_initGame_Ttmp81), HL
  4557  240e  3e07              	LD A, $07
  4558  2410  322900            	LD (_initGame_Ttmp80), A
  4559  2413  3e00              	LD A, $00
  4560  2415  322a00            	LD (_initGame_Ttmp80+1), A
  4561                          ; peephole(1): r250 (LD A, x; LD (x), A; LD A, x)->(LD A, x; LD (x), A)
  4562                          ;	LD A, $00
  4563  2418  322f00            	LD (_initGame_Ttmp86), A
  4564  241b  3e00              	LD A, $00
  4565  241d  323000            	LD (_initGame_Ttmp86+1), A
  4566  2420  3a2500            	LD A, (_initGame_Ttmp73)
  4567  2423  322f00            	LD (_initGame_Ttmp86), A
  4568  2426  ed4b2f00          	LD BC, (_initGame_Ttmp86)
  4569  242a  ed5b2900          	LD DE, (_initGame_Ttmp80)
  4570  242e  79                	LD A, C
  4571  242f  48                	LD C, B
  4572  2430  210000            	LD HL, 0
  4573  2433  0610              	LD B, 16
  4574                          _label256:
  4575  2435  29                	ADD HL, HL
  4576  2436  17                	RLA
  4577  2437  cb11              	RL C
  4578  2439  3007              	JR NC,_label256b2
  4579  243b  19                	ADD HL, DE
  4580  243c  ce00              	ADC A, 0
  4581  243e  d24224            	JP NC,_label256b2
  4582  2441  0c                	INC C
  4583                          _label256b2:
  4584  2442  10f1              	DJNZ _label256
  4585  2444  41                	LD B, C
  4586  2445  4f                	LD C, A
  4587  2446  223100            	LD (_initGame_Ttmp97), HL
  4588  2449  ed433300          	LD (_initGame_Ttmp97+2), BC
  4589  244d  3a3100            	LD A, (_initGame_Ttmp97)
  4590  2450  324c00            	LD (_initGame_Ttmp202), A
  4591  2453  3a3200            	LD A, (_initGame_Ttmp97+1)
  4592  2456  324d00            	LD (_initGame_Ttmp202+1), A
  4593  2459  2a2b00            	LD HL, (_initGame_Ttmp81)
  4594  245c  ed5b4c00          	LD DE, (_initGame_Ttmp202)
  4595  2460  19                	ADD HL, DE
  4596  2461  222b00            	LD (_initGame_Ttmp81), HL
  4597  2464  3a2b00            	LD A, (_initGame_Ttmp81)
  4598  2467  324e00            	LD (_initGame_Ttmp204), A
  4599  246a  3a2c00            	LD A, (_initGame_Ttmp81+1)
  4600  246d  324f00            	LD (_initGame_Ttmp204+1), A
  4601  2470  2a4e00            	LD HL, (_initGame_Ttmp204)
  4602                          ; peephole(1): r349 (SLA+RL)->(ADD)
  4603                          ;	SLA L
  4604  2473  29                	ADD HL, HL
  4605                          ;	RL H
  4606  2474  224e00            	LD (_initGame_Ttmp204), HL
  4607  2477  e600              	AND $0
  4608  2479  2a4e00            	LD HL, (_initGame_Ttmp204)
  4609  247c  11d371            	LD DE, _encounterstr
  4610  247f  19                	ADD HL, DE
  4611  2480  224e00            	LD (_initGame_Ttmp204), HL
  4612  2483  ed5b4e00          	LD DE, (_initGame_Ttmp204)
  4613  2487  2a2600            	LD HL, (_initGame_Ttmp75)
  4614  248a  7d                	LD A, L
  4615  248b  12                	LD (DE), A
  4616  248c  13                	INC DE
  4617  248d  7c                	LD A, H
  4618  248e  12                	LD (DE), A
  4619                          	; P:85
  4620                          	; L:83
  4621  248f  3e01              	LD A, $01
  4622  2491  322400            	LD (_initGame_Ttmp72), A
  4623  2494  3e04              	LD A, $04
  4624  2496  322500            	LD (_initGame_Ttmp73), A
  4625  2499  3e03              	LD A, $03
  4626  249b  322800            	LD (_initGame_Ttmp76), A
  4627  249e  3e00              	LD A, $00
  4628  24a0  322600            	LD (_initGame_Ttmp75), A
  4629                          ; peephole(1): r250 (LD A, x; LD (x), A; LD A, x)->(LD A, x; LD (x), A)
  4630                          ;	LD A, $00
  4631  24a3  322700            	LD (_initGame_Ttmp75+1), A
  4632  24a6  3a2800            	LD A, (_initGame_Ttmp76)
  4633  24a9  322600            	LD (_initGame_Ttmp75), A
  4634  24ac  3e00              	LD A, $00
  4635  24ae  322b00            	LD (_initGame_Ttmp81), A
  4636                          ; peephole(1): r250 (LD A, x; LD (x), A; LD A, x)->(LD A, x; LD (x), A)
  4637                          ;	LD A, $00
  4638  24b1  322c00            	LD (_initGame_Ttmp81+1), A
  4639  24b4  3e00              	LD A, $00
  4640  24b6  322d00            	LD (_initGame_Ttmp82), A
  4641                          ; peephole(1): r250 (LD A, x; LD (x), A; LD A, x)->(LD A, x; LD (x), A)
  4642                          ;	LD A, $00
  4643  24b9  322e00            	LD (_initGame_Ttmp82+1), A
  4644  24bc  3a2400            	LD A, (_initGame_Ttmp72)
  4645  24bf  322d00            	LD (_initGame_Ttmp82), A
  4646  24c2  2a2b00            	LD HL, (_initGame_Ttmp81)
  4647  24c5  ed5b2d00          	LD DE, (_initGame_Ttmp82)
  4648  24c9  19                	ADD HL, DE
  4649  24ca  222b00            	LD (_initGame_Ttmp81), HL
  4650  24cd  3e07              	LD A, $07
  4651  24cf  322900            	LD (_initGame_Ttmp80), A
  4652  24d2  3e00              	LD A, $00
  4653  24d4  322a00            	LD (_initGame_Ttmp80+1), A
  4654                          ; peephole(1): r250 (LD A, x; LD (x), A; LD A, x)->(LD A, x; LD (x), A)
  4655                          ;	LD A, $00
  4656  24d7  322f00            	LD (_initGame_Ttmp86), A
  4657  24da  3e00              	LD A, $00
  4658  24dc  323000            	LD (_initGame_Ttmp86+1), A
  4659  24df  3a2500            	LD A, (_initGame_Ttmp73)
  4660  24e2  322f00            	LD (_initGame_Ttmp86), A
  4661  24e5  ed4b2f00          	LD BC, (_initGame_Ttmp86)
  4662  24e9  ed5b2900          	LD DE, (_initGame_Ttmp80)
  4663  24ed  79                	LD A, C
  4664  24ee  48                	LD C, B
  4665  24ef  210000            	LD HL, 0
  4666  24f2  0610              	LD B, 16
  4667                          _label263:
  4668  24f4  29                	ADD HL, HL
  4669  24f5  17                	RLA
  4670  24f6  cb11              	RL C
  4671  24f8  3007              	JR NC,_label263b2
  4672  24fa  19                	ADD HL, DE
  4673  24fb  ce00              	ADC A, 0
  4674  24fd  d20125            	JP NC,_label263b2
  4675  2500  0c                	INC C
  4676                          _label263b2:
  4677  2501  10f1              	DJNZ _label263
  4678  2503  41                	LD B, C
  4679  2504  4f                	LD C, A
  4680  2505  223100            	LD (_initGame_Ttmp97), HL
  4681  2508  ed433300          	LD (_initGame_Ttmp97+2), BC
  4682  250c  3a3100            	LD A, (_initGame_Ttmp97)
  4683  250f  324c00            	LD (_initGame_Ttmp202), A
  4684  2512  3a3200            	LD A, (_initGame_Ttmp97+1)
  4685  2515  324d00            	LD (_initGame_Ttmp202+1), A
  4686  2518  2a2b00            	LD HL, (_initGame_Ttmp81)
  4687  251b  ed5b4c00          	LD DE, (_initGame_Ttmp202)
  4688  251f  19                	ADD HL, DE
  4689  2520  222b00            	LD (_initGame_Ttmp81), HL
  4690  2523  3a2b00            	LD A, (_initGame_Ttmp81)
  4691  2526  324e00            	LD (_initGame_Ttmp204), A
  4692  2529  3a2c00            	LD A, (_initGame_Ttmp81+1)
  4693  252c  324f00            	LD (_initGame_Ttmp204+1), A
  4694  252f  2a4e00            	LD HL, (_initGame_Ttmp204)
  4695                          ; peephole(1): r349 (SLA+RL)->(ADD)
  4696                          ;	SLA L
  4697  2532  29                	ADD HL, HL
  4698                          ;	RL H
  4699  2533  224e00            	LD (_initGame_Ttmp204), HL
  4700  2536  e600              	AND $0
  4701  2538  2a4e00            	LD HL, (_initGame_Ttmp204)
  4702  253b  11d371            	LD DE, _encounterstr
  4703  253e  19                	ADD HL, DE
  4704  253f  224e00            	LD (_initGame_Ttmp204), HL
  4705  2542  ed5b4e00          	LD DE, (_initGame_Ttmp204)
  4706  2546  2a2600            	LD HL, (_initGame_Ttmp75)
  4707  2549  7d                	LD A, L
  4708  254a  12                	LD (DE), A
  4709  254b  13                	INC DE
  4710  254c  7c                	LD A, H
  4711  254d  12                	LD (DE), A
  4712                          	; P:85
  4713                          	; L:84
  4714  254e  3e01              	LD A, $01
  4715  2550  322400            	LD (_initGame_Ttmp72), A
  4716  2553  3e05              	LD A, $05
  4717  2555  322500            	LD (_initGame_Ttmp73), A
  4718  2558  3e04              	LD A, $04
  4719  255a  322800            	LD (_initGame_Ttmp76), A
  4720  255d  3e00              	LD A, $00
  4721  255f  322600            	LD (_initGame_Ttmp75), A
  4722                          ; peephole(1): r250 (LD A, x; LD (x), A; LD A, x)->(LD A, x; LD (x), A)
  4723                          ;	LD A, $00
  4724  2562  322700            	LD (_initGame_Ttmp75+1), A
  4725  2565  3a2800            	LD A, (_initGame_Ttmp76)
  4726  2568  322600            	LD (_initGame_Ttmp75), A
  4727  256b  3e00              	LD A, $00
  4728  256d  322b00            	LD (_initGame_Ttmp81), A
  4729                          ; peephole(1): r250 (LD A, x; LD (x), A; LD A, x)->(LD A, x; LD (x), A)
  4730                          ;	LD A, $00
  4731  2570  322c00            	LD (_initGame_Ttmp81+1), A
  4732  2573  3e00              	LD A, $00
  4733  2575  322d00            	LD (_initGame_Ttmp82), A
  4734                          ; peephole(1): r250 (LD A, x; LD (x), A; LD A, x)->(LD A, x; LD (x), A)
  4735                          ;	LD A, $00
  4736  2578  322e00            	LD (_initGame_Ttmp82+1), A
  4737  257b  3a2400            	LD A, (_initGame_Ttmp72)
  4738  257e  322d00            	LD (_initGame_Ttmp82), A
  4739  2581  2a2b00            	LD HL, (_initGame_Ttmp81)
  4740  2584  ed5b2d00          	LD DE, (_initGame_Ttmp82)
  4741  2588  19                	ADD HL, DE
  4742  2589  222b00            	LD (_initGame_Ttmp81), HL
  4743  258c  3e07              	LD A, $07
  4744  258e  322900            	LD (_initGame_Ttmp80), A
  4745  2591  3e00              	LD A, $00
  4746  2593  322a00            	LD (_initGame_Ttmp80+1), A
  4747                          ; peephole(1): r250 (LD A, x; LD (x), A; LD A, x)->(LD A, x; LD (x), A)
  4748                          ;	LD A, $00
  4749  2596  322f00            	LD (_initGame_Ttmp86), A
  4750  2599  3e00              	LD A, $00
  4751  259b  323000            	LD (_initGame_Ttmp86+1), A
  4752  259e  3a2500            	LD A, (_initGame_Ttmp73)
  4753  25a1  322f00            	LD (_initGame_Ttmp86), A
  4754  25a4  ed4b2f00          	LD BC, (_initGame_Ttmp86)
  4755  25a8  ed5b2900          	LD DE, (_initGame_Ttmp80)
  4756  25ac  79                	LD A, C
  4757  25ad  48                	LD C, B
  4758  25ae  210000            	LD HL, 0
  4759  25b1  0610              	LD B, 16
  4760                          _label270:
  4761  25b3  29                	ADD HL, HL
  4762  25b4  17                	RLA
  4763  25b5  cb11              	RL C
  4764  25b7  3007              	JR NC,_label270b2
  4765  25b9  19                	ADD HL, DE
  4766  25ba  ce00              	ADC A, 0
  4767  25bc  d2c025            	JP NC,_label270b2
  4768  25bf  0c                	INC C
  4769                          _label270b2:
  4770  25c0  10f1              	DJNZ _label270
  4771  25c2  41                	LD B, C
  4772  25c3  4f                	LD C, A
  4773  25c4  223100            	LD (_initGame_Ttmp97), HL
  4774  25c7  ed433300          	LD (_initGame_Ttmp97+2), BC
  4775  25cb  3a3100            	LD A, (_initGame_Ttmp97)
  4776  25ce  324c00            	LD (_initGame_Ttmp202), A
  4777  25d1  3a3200            	LD A, (_initGame_Ttmp97+1)
  4778  25d4  324d00            	LD (_initGame_Ttmp202+1), A
  4779  25d7  2a2b00            	LD HL, (_initGame_Ttmp81)
  4780  25da  ed5b4c00          	LD DE, (_initGame_Ttmp202)
  4781  25de  19                	ADD HL, DE
  4782  25df  222b00            	LD (_initGame_Ttmp81), HL
  4783  25e2  3a2b00            	LD A, (_initGame_Ttmp81)
  4784  25e5  324e00            	LD (_initGame_Ttmp204), A
  4785  25e8  3a2c00            	LD A, (_initGame_Ttmp81+1)
  4786  25eb  324f00            	LD (_initGame_Ttmp204+1), A
  4787  25ee  2a4e00            	LD HL, (_initGame_Ttmp204)
  4788                          ; peephole(1): r349 (SLA+RL)->(ADD)
  4789                          ;	SLA L
  4790  25f1  29                	ADD HL, HL
  4791                          ;	RL H
  4792  25f2  224e00            	LD (_initGame_Ttmp204), HL
  4793  25f5  e600              	AND $0
  4794  25f7  2a4e00            	LD HL, (_initGame_Ttmp204)
  4795  25fa  11d371            	LD DE, _encounterstr
  4796  25fd  19                	ADD HL, DE
  4797  25fe  224e00            	LD (_initGame_Ttmp204), HL
  4798  2601  ed5b4e00          	LD DE, (_initGame_Ttmp204)
  4799  2605  2a2600            	LD HL, (_initGame_Ttmp75)
  4800  2608  7d                	LD A, L
  4801  2609  12                	LD (DE), A
  4802  260a  13                	INC DE
  4803  260b  7c                	LD A, H
  4804  260c  12                	LD (DE), A
  4805                          	; P:85
  4806                          	; L:85
  4807  260d  3e01              	LD A, $01
  4808  260f  322400            	LD (_initGame_Ttmp72), A
  4809  2612  3e06              	LD A, $06
  4810  2614  322500            	LD (_initGame_Ttmp73), A
  4811  2617  3e04              	LD A, $04
  4812  2619  322800            	LD (_initGame_Ttmp76), A
  4813  261c  3e00              	LD A, $00
  4814  261e  322600            	LD (_initGame_Ttmp75), A
  4815                          ; peephole(1): r250 (LD A, x; LD (x), A; LD A, x)->(LD A, x; LD (x), A)
  4816                          ;	LD A, $00
  4817  2621  322700            	LD (_initGame_Ttmp75+1), A
  4818  2624  3a2800            	LD A, (_initGame_Ttmp76)
  4819  2627  322600            	LD (_initGame_Ttmp75), A
  4820  262a  3e00              	LD A, $00
  4821  262c  322b00            	LD (_initGame_Ttmp81), A
  4822                          ; peephole(1): r250 (LD A, x; LD (x), A; LD A, x)->(LD A, x; LD (x), A)
  4823                          ;	LD A, $00
  4824  262f  322c00            	LD (_initGame_Ttmp81+1), A
  4825  2632  3e00              	LD A, $00
  4826  2634  322d00            	LD (_initGame_Ttmp82), A
  4827                          ; peephole(1): r250 (LD A, x; LD (x), A; LD A, x)->(LD A, x; LD (x), A)
  4828                          ;	LD A, $00
  4829  2637  322e00            	LD (_initGame_Ttmp82+1), A
  4830  263a  3a2400            	LD A, (_initGame_Ttmp72)
  4831  263d  322d00            	LD (_initGame_Ttmp82), A
  4832  2640  2a2b00            	LD HL, (_initGame_Ttmp81)
  4833  2643  ed5b2d00          	LD DE, (_initGame_Ttmp82)
  4834  2647  19                	ADD HL, DE
  4835  2648  222b00            	LD (_initGame_Ttmp81), HL
  4836  264b  3e07              	LD A, $07
  4837  264d  322900            	LD (_initGame_Ttmp80), A
  4838  2650  3e00              	LD A, $00
  4839  2652  322a00            	LD (_initGame_Ttmp80+1), A
  4840                          ; peephole(1): r250 (LD A, x; LD (x), A; LD A, x)->(LD A, x; LD (x), A)
  4841                          ;	LD A, $00
  4842  2655  322f00            	LD (_initGame_Ttmp86), A
  4843  2658  3e00              	LD A, $00
  4844  265a  323000            	LD (_initGame_Ttmp86+1), A
  4845  265d  3a2500            	LD A, (_initGame_Ttmp73)
  4846  2660  322f00            	LD (_initGame_Ttmp86), A
  4847  2663  ed4b2f00          	LD BC, (_initGame_Ttmp86)
  4848  2667  ed5b2900          	LD DE, (_initGame_Ttmp80)
  4849  266b  79                	LD A, C
  4850  266c  48                	LD C, B
  4851  266d  210000            	LD HL, 0
  4852  2670  0610              	LD B, 16
  4853                          _label277:
  4854  2672  29                	ADD HL, HL
  4855  2673  17                	RLA
  4856  2674  cb11              	RL C
  4857  2676  3007              	JR NC,_label277b2
  4858  2678  19                	ADD HL, DE
  4859  2679  ce00              	ADC A, 0
  4860  267b  d27f26            	JP NC,_label277b2
  4861  267e  0c                	INC C
  4862                          _label277b2:
  4863  267f  10f1              	DJNZ _label277
  4864  2681  41                	LD B, C
  4865  2682  4f                	LD C, A
  4866  2683  223100            	LD (_initGame_Ttmp97), HL
  4867  2686  ed433300          	LD (_initGame_Ttmp97+2), BC
  4868  268a  3a3100            	LD A, (_initGame_Ttmp97)
  4869  268d  324c00            	LD (_initGame_Ttmp202), A
  4870  2690  3a3200            	LD A, (_initGame_Ttmp97+1)
  4871  2693  324d00            	LD (_initGame_Ttmp202+1), A
  4872  2696  2a2b00            	LD HL, (_initGame_Ttmp81)
  4873  2699  ed5b4c00          	LD DE, (_initGame_Ttmp202)
  4874  269d  19                	ADD HL, DE
  4875  269e  222b00            	LD (_initGame_Ttmp81), HL
  4876  26a1  3a2b00            	LD A, (_initGame_Ttmp81)
  4877  26a4  324e00            	LD (_initGame_Ttmp204), A
  4878  26a7  3a2c00            	LD A, (_initGame_Ttmp81+1)
  4879  26aa  324f00            	LD (_initGame_Ttmp204+1), A
  4880  26ad  2a4e00            	LD HL, (_initGame_Ttmp204)
  4881                          ; peephole(1): r349 (SLA+RL)->(ADD)
  4882                          ;	SLA L
  4883  26b0  29                	ADD HL, HL
  4884                          ;	RL H
  4885  26b1  224e00            	LD (_initGame_Ttmp204), HL
  4886  26b4  e600              	AND $0
  4887  26b6  2a4e00            	LD HL, (_initGame_Ttmp204)
  4888  26b9  11d371            	LD DE, _encounterstr
  4889  26bc  19                	ADD HL, DE
  4890  26bd  224e00            	LD (_initGame_Ttmp204), HL
  4891  26c0  ed5b4e00          	LD DE, (_initGame_Ttmp204)
  4892  26c4  2a2600            	LD HL, (_initGame_Ttmp75)
  4893  26c7  7d                	LD A, L
  4894  26c8  12                	LD (DE), A
  4895  26c9  13                	INC DE
  4896  26ca  7c                	LD A, H
  4897  26cb  12                	LD (DE), A
  4898                          	; P:85
  4899                          	; L:86
  4900  26cc  c9                	RET
  4901                          initGameafter:
  4902                          	; P:2
  4903                          	; L:87
  4904                          	; P:0
  4905                          	; L:88
  4906  26cd  cd7d0a            	call initGame
  4907                          	; P:1
  4908                          	; L:89
  4909                          	; P:0
  4910                          	; L:90
  4911                          	; P:0
  4912                          	; L:91
  4913                          	; P:0
  4914                          	; L:92
  4915                          	; P:0
  4916                          	; L:93
  4917                          	; P:0
  4918                          	; L:94
  4919                          	; P:0
  4920                          	; L:95
  4921                          	; P:0
  4922                          	; L:96
  4923                          	; P:0
  4924                          	; L:97
  4925                          	; P:0
  4926                          	; L:98
  4927  26d0  c3b72f            	jp printPointerafter
  4928                          printPointer:
  4929                          	; P:2
  4930                          	; L:99
  4931                          	; P:0
  4932                          	; L:100
  4933  26d3  3e01              	LD A, $01
  4934  26d5  325600            	LD (_printPointer_Ttmp279), A
  4935  26d8  3e08              	LD A, $08
  4936  26da  325700            	LD (_printPointer_Ttmp280), A
  4937  26dd  3e00              	LD A, $00
  4938  26df  325800            	LD (_printPointer_Ttmp280+1), A
  4939                          	; _TRtmp281 <-> (step 1) (resident)
  4940                          	; _TRtmp282 <-> (resident to) (resident)
  4941  26e2  3a5700            	LD A, (_printPointer_Ttmp280)
  4942  26e5  326801            	LD (_TRtmp282), A
  4943  26e8  3a5800            	LD A, (_printPointer_Ttmp280+1)
  4944  26eb  326901            	LD (_TRtmp282+1), A
  4945  26ee  3e01              	LD A, $01
  4946  26f0  326601            	LD (_TRtmp281), A
  4947  26f3  3e00              	LD A, $00
  4948  26f5  326701            	LD (_TRtmp281+1), A
  4949                          ; peephole(1): r250 (LD A, x; LD (x), A; LD A, x)->(LD A, x; LD (x), A)
  4950                          ;	LD A, $00
  4951  26f8  328972            	LD (_printPointer_c), A
  4952  26fb  3e00              	LD A, $00
  4953  26fd  328a72            	LD (_printPointer_c+1), A
  4954  2700  3a5600            	LD A, (_printPointer_Ttmp279)
  4955  2703  328972            	LD (_printPointer_c), A
  4956                          _label284bf:
  4957  2706  3a6901            	LD A, (_TRtmp282+1)
  4958  2709  47                	LD B, A
  4959  270a  3a8a72            	LD A, (_printPointer_c+1)
  4960  270d  b8                	CP B
  4961  270e  2804              	JR Z, _label290l2
  4962  2710  3815              	JR C, _label290
  4963  2712  180c              	JR _label290_0
  4964                          _label290l2:
  4965  2714  3a6801            	LD A, (_TRtmp282)
  4966  2717  47                	LD B, A
  4967  2718  3a8972            	LD A, (_printPointer_c)
  4968  271b  b8                	CP B
  4969  271c  3809              	JR C, _label290
  4970  271e  2807              	JR Z, _label290
  4971                          _label290_0:
  4972                          ; peephole(1): r228 (LD A, 0)->(XOR A)
  4973                          ;	LD A, 0
  4974  2720  af                	XOR A
  4975  2721  325a00            	LD (_printPointer_Ttmp289), A
  4976  2724  c32c27            	JMP _label290b2
  4977                          _label290:
  4978  2727  3eff              	LD A, $ff
  4979  2729  325a00            	LD (_printPointer_Ttmp289), A
  4980                          _label290b2:
  4981  272c  3a5a00            	LD A, (_printPointer_Ttmp289)
  4982                          ; peephole(1): r319 (XOR $FF)->(CPL)
  4983                          ;	XOR $FF
  4984  272f  2f                	CPL
  4985  2730  325a00            	LD (_printPointer_Ttmp289), A
  4986  2733  3a5a00            	LD A, (_printPointer_Ttmp289)
  4987  2736  fe00              	CP 0
  4988  2738  c23e27            	JP NZ, _label291
  4989  273b  c34127            	JMP _label291b2
  4990                          _label291:
  4991  273e  c3982e            	JMP _label284bis
  4992                          _label291b2:
  4993                          	; P:53
  4994                          	; L:101
  4995  2741  3e00              	LD A, $00
  4996  2743  325600            	LD (_printPointer_Ttmp279), A
  4997  2746  3e03              	LD A, $03
  4998  2748  325700            	LD (_printPointer_Ttmp280), A
  4999  274b  3e00              	LD A, $00
  5000  274d  325800            	LD (_printPointer_Ttmp280+1), A
  5001  2750  2a5700            	LD HL, (_printPointer_Ttmp280)
  5002  2753  ed5b8972          	LD DE, (_printPointer_c)
  5003  2757  19                	ADD HL, DE
  5004  2758  225b00            	LD (_printPointer_Ttmp292), HL
  5005                          	 ; variable_move_8bit_8bit
  5006                          	 ; 8 BIT (unsigned) -> 8 BIT (unsigned)
  5007  275b  3a5600            	LD A, (_printPointer_Ttmp279)
  5008  275e  320d71            	LD (XCURSYS), A
  5009  2761  3a5c00            	LD A, (_printPointer_Ttmp292+1)
  5010  2764  e680              	AND $80
  5011  2766  fe00              	CP 0
  5012  2768  2808              	JR Z,_label295
  5013  276a  3eff              	LD A, $FF
  5014  276c  325900            	LD (_printPointer_Ttmp286), A
  5015  276f  c37727            	JMP _label295done
  5016                          _label295:
  5017  2772  3e00              	LD A, $0
  5018  2774  325900            	LD (_printPointer_Ttmp286), A
  5019                          _label295done:
  5020  2777  3a5900            	LD A, (_printPointer_Ttmp286)
  5021  277a  fe00              	CP 0
  5022  277c  ca8227            	JP Z, _label296
  5023  277f  c38527            	JMP _label296b2
  5024                          _label296:
  5025  2782  c3b927            	JMP _label294
  5026                          _label296b2:
  5027  2785  3a5b00            	LD A, (_printPointer_Ttmp292)
  5028                          ; peephole(1): r319 (XOR $FF)->(CPL)
  5029                          ;	XOR $FF
  5030  2788  2f                	CPL
  5031  2789  325d00            	LD (_printPointer_Ttmp293), A
  5032  278c  3a5c00            	LD A, (_printPointer_Ttmp292+1)
  5033                          ; peephole(1): r319 (XOR $FF)->(CPL)
  5034                          ;	XOR $FF
  5035  278f  2f                	CPL
  5036  2790  325e00            	LD (_printPointer_Ttmp293+1), A
  5037  2793  2a5d00            	LD HL, (_printPointer_Ttmp293)
  5038  2796  23                	INC HL
  5039  2797  225d00            	LD (_printPointer_Ttmp293), HL
  5040  279a  3a5d00            	LD A, (_printPointer_Ttmp293)
  5041  279d  325a00            	LD (_printPointer_Ttmp289), A
  5042  27a0  3a5a00            	LD A, (_printPointer_Ttmp289)
  5043  27a3  e67f              	AND $7f
  5044  27a5  325a00            	LD (_printPointer_Ttmp289), A
  5045  27a8  3a5a00            	LD A, (_printPointer_Ttmp289)
  5046                          ; peephole(1): r319 (XOR $FF)->(CPL)
  5047                          ;	XOR $FF
  5048  27ab  2f                	CPL
  5049  27ac  325a00            	LD (_printPointer_Ttmp289), A
  5050  27af  3a5a00            	LD A, (_printPointer_Ttmp289)
  5051  27b2  3c                	INC A
  5052  27b3  325a00            	LD (_printPointer_Ttmp289), A
  5053  27b6  c3c727            	jp _label294done
  5054                          _label294:
  5055  27b9  3a5b00            	LD A, (_printPointer_Ttmp292)
  5056  27bc  325a00            	LD (_printPointer_Ttmp289), A
  5057  27bf  3a5a00            	LD A, (_printPointer_Ttmp289)
  5058  27c2  e67f              	AND $7f
  5059  27c4  325a00            	LD (_printPointer_Ttmp289), A
  5060                          _label294done:
  5061                          	 ; variable_move_8bit_8bit
  5062                          	 ; 8 BIT (signed) -> 8 BIT (unsigned)
  5063  27c7  3a5a00            	LD A, (_printPointer_Ttmp289)
  5064  27ca  320e71            	LD (YCURSYS), A
  5065  27cd  3a0e71            	LD A, (YCURSYS)
  5066  27d0  e680              	AND $80
  5067  27d2  fe00              	CP 0
  5068  27d4  2805              	JR Z,_label300
  5069  27d6  3eff              	LD A, $FF
  5070                          ; peephole(3): unread
  5071                          ;	LD (_printPointer_Ttmp299), A
  5072  27d8  c3dd27            	JMP _label300done
  5073                          _label300:
  5074  27db  3e00              	LD A, $0
  5075                          ; peephole(3): unread
  5076                          ;	LD (_printPointer_Ttmp299), A
  5077                          _label300done:
  5078  27dd  cae327            	JP Z, _label301
  5079  27e0  c3e627            	JMP _label301b2
  5080                          _label301:
  5081  27e3  c3f427            	JMP _label298
  5082                          _label301b2:
  5083  27e6  3a0e71            	LD A, (YCURSYS)
  5084                          ; peephole(1): r319 (XOR $FF)->(CPL)
  5085                          ;	XOR $FF
  5086  27e9  2f                	CPL
  5087  27ea  320e71            	LD (YCURSYS), A
  5088  27ed  3a0e71            	LD A, (YCURSYS)
  5089  27f0  3c                	INC A
  5090  27f1  320e71            	LD (YCURSYS), A
  5091                          _label298:
  5092                          	; P:83
  5093                          	; L:102
  5094  27f4  3a0000            	LD A, (_printPointer_Tstr302)
  5095  27f7  325600            	LD (_printPointer_Ttmp279), A
  5096  27fa  210000            	LD HL, _printPointer_Tstr302
  5097  27fd  225f00            	LD (_printPointer_Ttmp305), HL
  5098  2800  2a5f00            	LD HL, (_printPointer_Ttmp305)
  5099  2803  23                	INC HL
  5100  2804  225f00            	LD (_printPointer_Ttmp305), HL
  5101  2807  c30a28            	jp vars_after
  5102                          ; /*****************************************************************************
  5103                          ;  * ugBASIC - an isomorphic BASIC language compiler for retrocomputers        *
  5104                          ;  *****************************************************************************
  5105                          ;  * Copyright 2021-2023 Marco Spedaletti (asimov@mclink.it)
  5106                          ;  *
  5107                          ;  * Licensed under the Apache License, Version 2.0 (the "License");
  5108                          ;  * you may not use this file except in compliance with the License.
  5109                          ;  * You may obtain a copy of the License at
  5110                          ;  *
  5111                          ;  * http://www.apache.org/licenses/LICENSE-2.0
  5112                          ;  *
  5113                          ;  * Unless required by applicable law or agreed to in writing, software
  5114                          ;  * distributed under the License is distributed on an "AS IS" BASIS,
  5115                          ;  * WITHOUT WARRANTIES OR CONDITIONS OF ANY KIND, either express or implied.
  5116                          ;  * See the License for the specific language governing permissions and
  5117                          ;  * limitations under the License.
  5118                          ;  *----------------------------------------------------------------------------
  5119                          ;  * Concesso in licenza secondo i termini della Licenza Apache, versione 2.0
  5120                          ;  * (la "Licenza"); è proibito usare questo file se non in conformità alla
  5121                          ;  * Licenza. Una copia della Licenza è disponibile all'indirizzo:
  5122                          ;  *
  5123                          ;  * http://www.apache.org/licenses/LICENSE-2.0
  5124                          ;  *
  5125                          ;  * Se non richiesto dalla legislazione vigente o concordato per iscritto,
  5126                          ;  * il software distribuito nei termini della Licenza è distribuito
  5127                          ;  * "COSì COM'è", SENZA GARANZIE O CONDIZIONI DI ALCUN TIPO, esplicite o
  5128                          ;  * implicite. Consultare la Licenza per il testo specifico che regola le
  5129                          ;  * autorizzazioni e le limitazioni previste dalla medesima.
  5130                          ;  ****************************************************************************/
  5131                          ;* * * * * * * * * * * * * * * * * * * * * * * * * * * * * * * * * * * * * * * *
  5132                          ;*                                                                             *
  5133                          ;*                 INTERNAL VARIABLES FOR ZX SPECTRUM TARGET                   *
  5134                          ;*                                                                             *
  5135                          ;*                             by Marco Spedaletti                             *
  5136                          ;*                                                                             *
  5137                          ;* * * * * * * * * * * * * * * * * * * * * * * * * * * * * * * * * * * * * * * *
  5138                          ; BITMAPADDRESS: DEFW $4000
  5139                          ; COLORMAPADDRESS: DEFW $5800
  5140                          ; TABCOUNT:   DEFB    4
  5141                          ; XCURS:      DEFB    0
  5142                          ; YCURS:      DEFB    0
  5143                          ; EMPTYTILE:  DEFB   32
  5144                          ; EVERYSTATUS:DEFB   0
  5145                          ; XCURSYS:      DEFB    0
  5146                          ; YCURSYS:      DEFB    0
  5147                          ; XGR:    DEFW 0
  5148                          ; YGR:    DEFW 0
  5149                          ; LINE:   DEFB $ff, $ff
  5150                          ; CLIPX1:    DEFW 0
  5151                          ; CLIPY1:    DEFW 0
  5152                          ; CLIPX2:    DEFW 255
  5153                          ; CLIPY2:    DEFW 191
  5154                          ; CURRENTWIDTH:   DEFW    256
  5155                          ; CURRENTHEIGHT:   DEFW    192
  5156                          ; CURRENTTILESWIDTH:   DEFB   32
  5157                          ; CURRENTTILESHEIGHT:   DEFB    24
  5158                          ; CURRENTTILES:   DEFB    255
  5159                          ; CURRENTMODE:        DEFB 0
  5160                          ; TEXTWW:             DEFB 3
  5161                          ; FONTWIDTH:          DEFB 8
  5162                          ; FONTHEIGHT:         DEFB 8
  5163                          ; CPURANDOM_SEED:     DEFB $FF, $FF, $FF, $FF
  5164                          vars_after:
  5165  280a  c3a32c            	jp vScroll_after
  5166                          ; /*****************************************************************************
  5167                          ;  * ugBASIC - an isomorphic BASIC language compiler for retrocomputers        *
  5168                          ;  *****************************************************************************
  5169                          ;  * Copyright 2021-2023 Marco Spedaletti (asimov@mclink.it)
  5170                          ;  *
  5171                          ;  * Licensed under the Apache License, Version 2.0 (the "License");
  5172                          ;  * you may not use this file except in compliance with the License.
  5173                          ;  * You may obtain a copy of the License at
  5174                          ;  *
  5175                          ;  * http://www.apache.org/licenses/LICENSE-2.0
  5176                          ;  *
  5177                          ;  * Unless required by applicable law or agreed to in writing, software
  5178                          ;  * distributed under the License is distributed on an "AS IS" BASIS,
  5179                          ;  * WITHOUT WARRANTIES OR CONDITIONS OF ANY KIND, either express or implied.
  5180                          ;  * See the License for the specific language governing permissions and
  5181                          ;  * limitations under the License.
  5182                          ;  *----------------------------------------------------------------------------
  5183                          ;  * Concesso in licenza secondo i termini della Licenza Apache, versione 2.0
  5184                          ;  * (la "Licenza"); è proibito usare questo file se non in conformità alla
  5185                          ;  * Licenza. Una copia della Licenza è disponibile all'indirizzo:
  5186                          ;  *
  5187                          ;  * http://www.apache.org/licenses/LICENSE-2.0
  5188                          ;  *
  5189                          ;  * Se non richiesto dalla legislazione vigente o concordato per iscritto,
  5190                          ;  * il software distribuito nei termini della Licenza è distribuito
  5191                          ;  * "COSì COM'è", SENZA GARANZIE O CONDIZIONI DI ALCUN TIPO, esplicite o
  5192                          ;  * implicite. Consultare la Licenza per il testo specifico che regola le
  5193                          ;  * autorizzazioni e le limitazioni previste dalla medesima.
  5194                          ;  ****************************************************************************/
  5195                          ;* * * * * * * * * * * * * * * * * * * * * * * * * * * * * * * * * * * * * * * *
  5196                          ;*                                                                             *
  5197                          ;*                          VERTICAL SCROLL ON ZX SPECTRUM                     *
  5198                          ;*                                                                             *
  5199                          ;*                             by Marco Spedaletti                             *
  5200                          ;*                                                                             *
  5201                          ;* * * * * * * * * * * * * * * * * * * * * * * * * * * * * * * * * * * * * * * *
  5202                          VSCROLL:
  5203  280d  f5                	PUSH AF
  5204  280e  c5                	PUSH BC
  5205  280f  d5                	PUSH DE
  5206  2810  e5                	PUSH HL
  5207  2811  fe80              	CP $80
  5208  2813  dac328            	JP C, VSCROLLDOWN
  5209                          ; ------------------------------------------------------------
  5210                          ; | SCROLL UP
  5211                          ; ------------------------------------------------------------
  5212                          VSCROLLUP:
  5213                          ; peephole(1): r319 (XOR $FF)->(CPL)
  5214                          ;    XOR $FF
  5215  2816  2f                	CPL
  5216  2817  c601              	ADD A, 1
  5217  2819  47                	LD B, A
  5218                          VSCROLLUPL:
  5219  281a  0ec0              	LD C, 192
  5220  281c  79                	LD A, C
  5221  281d  90                	SUB A, B
  5222  281e  4f                	LD C, A
  5223  281f  dd21a129          	LD IX, ROWSADDRESS
  5224                          ROWSELECTUP:
  5225  2823  dd7e00            	LD A, (IX)
  5226  2826  5f                	LD E, A
  5227  2827  dd23              	INC IX
  5228  2829  dd7e00            	LD A, (IX)
  5229  282c  57                	LD D, A
  5230  282d  dd23              	INC IX
  5231  282f  c5                	PUSH B
  5232  2830  05                	DEC B
  5233  2831  2806              	JR Z, ROWSELECTUP1
  5234                          ROWSELECTUP0:
  5235  2833  dd23              	INC IX
  5236  2835  dd23              	INC IX
  5237                          ; peephole(1): r397 (DEC B+JR NZ)->(DJNZ)
  5238                          ;    DEC B
  5239  2837  10fa              	DJNZ ROWSELECTUP0
  5240                          ;    JR NZ, ROWSELECTUP0
  5241                          ROWSELECTUP1:
  5242  2839  c1                	POP B
  5243  283a  dd7e00            	LD A, (IX)
  5244  283d  6f                	LD L, A
  5245  283e  dd23              	INC IX
  5246  2840  dd7e00            	LD A, (IX)
  5247  2843  67                	LD H, A
  5248  2844  dd23              	INC IX
  5249  2846  dd2b              	DEC IX
  5250  2848  dd2b              	DEC IX
  5251  284a  c5                	PUSH B
  5252  284b  05                	DEC B
  5253  284c  2806              	JR Z, ROWSELECTUP3
  5254                          ROWSELECTUP2:
  5255  284e  dd2b              	DEC IX
  5256  2850  dd2b              	DEC IX
  5257                          ; peephole(1): r397 (DEC B+JR NZ)->(DJNZ)
  5258                          ;    DEC B
  5259  2852  10fa              	DJNZ ROWSELECTUP2
  5260                          ;    JR NZ, ROWSELECTUP2
  5261                          ROWSELECTUP3:
  5262  2854  c1                	POP B
  5263  2855  cd8129            	CALL ROWCOPY
  5264  2858  0d                	DEC C
  5265  2859  20c8              	JR NZ, ROWSELECTUP
  5266  285b  e5                	PUSH HL
  5267  285c  d1                	POP DE
  5268  285d  cd9129            	CALL ROWCLEAR
  5269                              ;
  5270                              ;
  5271  2860  c5                	PUSH B
  5272  2861  05                	DEC B
  5273  2862  2811              	JR Z, ROWSELECTUP5
  5274                          ROWSELECTUP4:
  5275  2864  dd7e00            	LD A, (IX)
  5276  2867  5f                	LD E, A
  5277  2868  dd23              	INC IX
  5278  286a  dd7e00            	LD A, (IX)
  5279  286d  57                	LD D, A
  5280  286e  dd23              	INC IX
  5281  2870  cd9129            	CALL ROWCLEAR
  5282                          ; peephole(1): r397 (DEC B+JR NZ)->(DJNZ)
  5283                          ;    DEC B
  5284  2873  10ef              	DJNZ ROWSELECTUP4
  5285                          ;    JR NZ, ROWSELECTUP4
  5286                          ROWSELECTUP5:
  5287  2875  c1                	POP B
  5288                              ;
  5289                              ;
  5290  2876  dd21212b          	LD IX, COLRADDRESS
  5291  287a  dd7e00            	LD A, (IX)
  5292  287d  5f                	LD E, A
  5293  287e  dd23              	INC IX
  5294  2880  dd5600            	LD D, (IX)
  5295  2883  5f                	LD E, A
  5296  2884  dd23              	INC IX
  5297  2886  c5                	PUSH B
  5298  2887  05                	DEC B
  5299  2888  2806              	JR Z, ROWCSELECTUPL2
  5300                          ROWCSELECTUPL:
  5301  288a  dd23              	INC IX
  5302  288c  dd23              	INC IX
  5303                          ; peephole(1): r397 (DEC B+JR NZ)->(DJNZ)
  5304                          ;    DEC B
  5305  288e  10fa              	DJNZ ROWCSELECTUPL
  5306                          ;    JR NZ, ROWCSELECTUPL
  5307                          ROWCSELECTUPL2:
  5308  2890  c1                	POP B
  5309  2891  dd7e00            	LD A, (IX)
  5310  2894  6f                	LD L, A
  5311  2895  dd23              	INC IX
  5312  2897  dd7e00            	LD A, (IX)
  5313  289a  67                	LD H, A
  5314  289b  78                	LD A, B
  5315  289c  cb2f              	SRA A
  5316  289e  cb2f              	SRA A
  5317  28a0  cb2f              	SRA A
  5318  28a2  cb2f              	SRA A
  5319  28a4  cb2f              	SRA A
  5320  28a6  2002              	JR NZ, ROWCSELECTUPL3A
  5321  28a8  3e01              	LD A, 1
  5322                          ROWCSELECTUPL3A:
  5323  28aa  e5                	PUSH HL
  5324  28ab  d5                	PUSH DE
  5325  28ac  218002            	LD HL, $280
  5326  28af  112000            	LD DE, $20
  5327  28b2  3d                	DEC A
  5328  28b3  2805              	JR Z, ROWCSELECTUPL4
  5329                          ROWCSELECTUPL3:
  5330  28b5  ed52              	SBC HL, DE
  5331  28b7  3d                	DEC A
  5332  28b8  20fb              	JR NZ, ROWCSELECTUPL3
  5333                          ROWCSELECTUPL4:
  5334  28ba  444d              	LD BC, HL
  5335  28bc  d1                	POP DE
  5336  28bd  e1                	POP HL
  5337  28be  edb0              	LDIR
  5338  28c0  c39c29            	JP VSCROLLE
  5339                          ; ------------------------------------------------------------
  5340                          ; | SCROLL DOWN
  5341                          ; ------------------------------------------------------------
  5342                          VSCROLLDOWN:
  5343  28c3  47                	LD B, A
  5344                          VSCROLLDOWNL:
  5345  28c4  0ec0              	LD C, 192
  5346  28c6  79                	LD A, C
  5347  28c7  90                	SUB A, B
  5348  28c8  4f                	LD C, A
  5349  28c9  dd211f2b          	LD IX, ROWSADDRESSL
  5350                          ROWSELECTDOWN:
  5351  28cd  dd2b              	DEC IX
  5352  28cf  dd2b              	DEC IX
  5353  28d1  c5                	PUSH B
  5354                          ; peephole(1): r397 (DEC B+JR NZ)->(DJNZ)
  5355                          ;    DEC B
  5356  28d2  1006              	DJNZ ROWSELECTDOWN1
  5357                          ;    JR NZ, ROWSELECTDOWN1
  5358                          ROWSELECTDOWN0:
  5359  28d4  dd2b              	DEC IX
  5360  28d6  dd2b              	DEC IX
  5361                          ; peephole(1): r397 (DEC B+JR NZ)->(DJNZ)
  5362                          ;    DEC B
  5363  28d8  10fa              	DJNZ ROWSELECTDOWN0
  5364                          ;    JR NZ, ROWSELECTDOWN0
  5365                          ROWSELECTDOWN1:
  5366  28da  c1                	POP B
  5367  28db  dd7e00            	LD A, (IX)
  5368  28de  6f                	LD L, A
  5369  28df  dd23              	INC IX
  5370  28e1  dd7e00            	LD A, (IX)
  5371  28e4  67                	LD H, A
  5372  28e5  dd23              	INC IX
  5373  28e7  c5                	PUSH B
  5374  28e8  05                	DEC B
  5375  28e9  2806              	JR Z, ROWSELECTDOWN2
  5376                          ROWSELECTDOWN3:
  5377  28eb  dd23              	INC IX
  5378  28ed  dd23              	INC IX
  5379  28ef  20fa              	JR NZ, ROWSELECTDOWN3
  5380                          ROWSELECTDOWN2:
  5381  28f1  c1                	POP B
  5382  28f2  dd7e00            	LD A, (IX)
  5383  28f5  5f                	LD E, A
  5384  28f6  dd23              	INC IX
  5385  28f8  dd7e00            	LD A, (IX)
  5386  28fb  57                	LD D, A
  5387  28fc  dd23              	INC IX
  5388  28fe  dd2b              	DEC IX
  5389  2900  dd2b              	DEC IX
  5390  2902  dd2b              	DEC IX
  5391  2904  dd2b              	DEC IX
  5392  2906  c5                	PUSH B
  5393  2907  05                	DEC B
  5394  2908  2806              	JR Z, ROWSELECTDOWN5
  5395                          ROWSELECTDOWN4:
  5396  290a  dd2b              	DEC IX
  5397  290c  dd2b              	DEC IX
  5398                          ; peephole(1): r397 (DEC B+JR NZ)->(DJNZ)
  5399                          ;    DEC B
  5400  290e  10fa              	DJNZ ROWSELECTDOWN4
  5401                          ;    JR NZ, ROWSELECTDOWN4
  5402                          ROWSELECTDOWN5:
  5403  2910  c1                	POP B
  5404  2911  cd8129            	CALL ROWCOPY
  5405  2914  0d                	DEC C
  5406  2915  20b6              	JR NZ, ROWSELECTDOWN
  5407  2917  c5                	PUSH B
  5408  2918  05                	DEC B
  5409  2919  2811              	JR Z, ROWSELECTDOWN7
  5410                          ROWSELECTDOWN6:
  5411  291b  dd7e00            	LD A, (IX)
  5412  291e  5f                	LD E, A
  5413  291f  dd23              	INC IX
  5414  2921  dd7e00            	LD A, (IX)
  5415  2924  57                	LD D, A
  5416  2925  dd23              	INC IX
  5417  2927  cd9129            	CALL ROWCLEAR
  5418                          ; peephole(1): r397 (DEC B+JR NZ)->(DJNZ)
  5419                          ;    DEC B
  5420  292a  10ef              	DJNZ ROWSELECTDOWN6
  5421                          ;    JR NZ, ROWSELECTDOWN6
  5422                          ROWSELECTDOWN7:
  5423  292c  c1                	POP B
  5424  292d  cd9129            	CALL ROWCLEAR
  5425  2930  dd21a12c          	LD IX, COLRADDRESSL
  5426  2934  dd7e00            	LD A, (IX)
  5427  2937  6f                	LD L, A
  5428  2938  dd23              	INC IX
  5429  293a  dd7e00            	LD A, (IX)
  5430  293d  67                	LD H, A
  5431  293e  dd23              	INC IX
  5432  2940  dd2b              	DEC IX
  5433  2942  dd2b              	DEC IX
  5434  2944  c5                	PUSH B
  5435  2945  05                	DEC B
  5436  2946  2806              	JR Z, ROWCSELECTDOWNL2
  5437                          ROWCSELECTDOWNL:
  5438  2948  dd2b              	DEC IX
  5439  294a  dd2b              	DEC IX
  5440                          ; peephole(1): r397 (DEC B+JR NZ)->(DJNZ)
  5441                          ;    DEC B
  5442  294c  10fa              	DJNZ ROWCSELECTDOWNL
  5443                          ;    JR NZ, ROWCSELECTDOWNL
  5444                          ROWCSELECTDOWNL2:
  5445  294e  c1                	POP B
  5446  294f  dd7e00            	LD A, (IX)
  5447  2952  5f                	LD E, A
  5448  2953  dd23              	INC IX
  5449  2955  dd7e00            	LD A, (IX)
  5450  2958  57                	LD D, A
  5451  2959  78                	LD A, B
  5452  295a  cb2f              	SRA A
  5453  295c  cb2f              	SRA A
  5454  295e  cb2f              	SRA A
  5455  2960  cb2f              	SRA A
  5456  2962  cb2f              	SRA A
  5457  2964  2002              	JR NZ, ROWCSELECTDOWNL3A
  5458  2966  3e01              	LD A, 1
  5459                          ROWCSELECTDOWNL3A:
  5460  2968  e5                	PUSH HL
  5461  2969  d5                	PUSH DE
  5462  296a  218002            	LD HL, $280
  5463  296d  112000            	LD DE, $20
  5464  2970  3d                	DEC A
  5465  2971  2805              	JR Z, ROWCSELECTDOWNL4
  5466                          ROWCSELECTDOWNL3:
  5467  2973  ed52              	SBC HL, DE
  5468  2975  3d                	DEC A
  5469  2976  20fb              	JR NZ, ROWCSELECTDOWNL3
  5470                          ROWCSELECTDOWNL4:
  5471  2978  444d              	LD BC, HL
  5472  297a  d1                	POP DE
  5473  297b  e1                	POP HL
  5474  297c  edb0              	LDIR
  5475  297e  c39c29            	JP VSCROLLE
  5476                          ;;;;;;;;;;;;;;;;;;;
  5477                          ROWCOPY:
  5478  2981  e5                	PUSH HL
  5479  2982  d5                	PUSH DE
  5480  2983  c5                	PUSH BC
  5481  2984  3e20              	LD A, 32
  5482  2986  47                	LD B, A
  5483                          ROWCOPYL:
  5484  2987  7e                	LD A, (HL)
  5485  2988  12                	LD (DE), A
  5486  2989  23                	INC HL
  5487  298a  13                	INC DE
  5488                          ; peephole(1): r397 (DEC B+JR NZ)->(DJNZ)
  5489                          ;    DEC B
  5490  298b  10fa              	DJNZ ROWCOPYL
  5491                          ;    JR NZ, ROWCOPYL
  5492  298d  c1                	POP BC
  5493  298e  d1                	POP DE
  5494  298f  e1                	POP HL
  5495  2990  c9                	RET
  5496                          ROWCLEAR:
  5497  2991  c5                	PUSH BC
  5498  2992  3e20              	LD A, 32
  5499  2994  47                	LD B, A
  5500                          ; peephole(1): r228 (LD A, 0)->(XOR A)
  5501                          ;    LD A, 0
  5502  2995  af                	XOR A
  5503                          ROWCLEARL:
  5504  2996  12                	LD (DE), A
  5505  2997  13                	INC DE
  5506                          ; peephole(1): r397 (DEC B+JR NZ)->(DJNZ)
  5507                          ;    DEC B
  5508  2998  10fc              	DJNZ ROWCLEARL
  5509                          ;    JR NZ, ROWCLEARL
  5510  299a  c1                	POP BC
  5511  299b  c9                	RET
  5512                          VSCROLLE:
  5513  299c  e1                	POP HL
  5514  299d  d1                	POP DE
  5515  299e  c1                	POP BC
  5516  299f  f1                	POP AF
  5517  29a0  c9                	RET
  5518                          ROWSADDRESS:
  5519  29a1  0040              	DEFW 16384
  5520  29a3  0041              	DEFW 16640
  5521  29a5  0042              	DEFW 16896
  5522  29a7  0043              	DEFW 17152
  5523  29a9  0044              	DEFW 17408
  5524  29ab  0045              	DEFW 17664
  5525  29ad  0046              	DEFW 17920
  5526  29af  0047              	DEFW 18176
  5527  29b1  2040              	DEFW 16416
  5528  29b3  2041              	DEFW 16672
  5529  29b5  2042              	DEFW 16928
  5530  29b7  2043              	DEFW 17184
  5531  29b9  2044              	DEFW 17440
  5532  29bb  2045              	DEFW 17696
  5533  29bd  2046              	DEFW 17952
  5534  29bf  2047              	DEFW 18208
  5535  29c1  4040              	DEFW 16448
  5536  29c3  4041              	DEFW 16704
  5537  29c5  4042              	DEFW 16960
  5538  29c7  4043              	DEFW 17216
  5539  29c9  4044              	DEFW 17472
  5540  29cb  4045              	DEFW 17728
  5541  29cd  4046              	DEFW 17984
  5542  29cf  4047              	DEFW 18240
  5543  29d1  6040              	DEFW 16480
  5544  29d3  6041              	DEFW 16736
  5545  29d5  6042              	DEFW 16992
  5546  29d7  6043              	DEFW 17248
  5547  29d9  6044              	DEFW 17504
  5548  29db  6045              	DEFW 17760
  5549  29dd  6046              	DEFW 18016
  5550  29df  6047              	DEFW 18272
  5551  29e1  8040              	DEFW 16512
  5552  29e3  8041              	DEFW 16768
  5553  29e5  8042              	DEFW 17024
  5554  29e7  8043              	DEFW 17280
  5555  29e9  8044              	DEFW 17536
  5556  29eb  8045              	DEFW 17792
  5557  29ed  8046              	DEFW 18048
  5558  29ef  8047              	DEFW 18304
  5559  29f1  a040              	DEFW 16544
  5560  29f3  a041              	DEFW 16800
  5561  29f5  a042              	DEFW 17056
  5562  29f7  a043              	DEFW 17312
  5563  29f9  a044              	DEFW 17568
  5564  29fb  a045              	DEFW 17824
  5565  29fd  a046              	DEFW 18080
  5566  29ff  a047              	DEFW 18336
  5567  2a01  c040              	DEFW 16576
  5568  2a03  c041              	DEFW 16832
  5569  2a05  c042              	DEFW 17088
  5570  2a07  c043              	DEFW 17344
  5571  2a09  c044              	DEFW 17600
  5572  2a0b  c045              	DEFW 17856
  5573  2a0d  c046              	DEFW 18112
  5574  2a0f  c047              	DEFW 18368
  5575  2a11  e040              	DEFW 16608
  5576  2a13  e041              	DEFW 16864
  5577  2a15  e042              	DEFW 17120
  5578  2a17  e043              	DEFW 17376
  5579  2a19  e044              	DEFW 17632
  5580  2a1b  e045              	DEFW 17888
  5581  2a1d  e046              	DEFW 18144
  5582  2a1f  e047              	DEFW 18400
  5583  2a21  0048              	DEFW 18432
  5584  2a23  0049              	DEFW 18688
  5585  2a25  004a              	DEFW 18944
  5586  2a27  004b              	DEFW 19200
  5587  2a29  004c              	DEFW 19456
  5588  2a2b  004d              	DEFW 19712
  5589  2a2d  004e              	DEFW 19968
  5590  2a2f  0a4f              	DEFW 20234
  5591  2a31  2048              	DEFW 18464
  5592  2a33  2049              	DEFW 18720
  5593  2a35  204a              	DEFW 18976
  5594  2a37  204b              	DEFW 19232
  5595  2a39  204c              	DEFW 19488
  5596  2a3b  204d              	DEFW 19744
  5597  2a3d  204e              	DEFW 20000
  5598  2a3f  204f              	DEFW 20256
  5599  2a41  4048              	DEFW 18496
  5600  2a43  4049              	DEFW 18752
  5601  2a45  404a              	DEFW 19008
  5602  2a47  404b              	DEFW 19264
  5603  2a49  404c              	DEFW 19520
  5604  2a4b  404d              	DEFW 19776
  5605  2a4d  404e              	DEFW 20032
  5606  2a4f  404f              	DEFW 20288
  5607  2a51  6048              	DEFW 18528
  5608  2a53  6049              	DEFW 18784
  5609  2a55  604a              	DEFW 19040
  5610  2a57  604b              	DEFW 19296
  5611  2a59  604c              	DEFW 19552
  5612  2a5b  604d              	DEFW 19808
  5613  2a5d  604e              	DEFW 20064
  5614  2a5f  604f              	DEFW 20320
  5615  2a61  8048              	DEFW 18560
  5616  2a63  8049              	DEFW 18816
  5617  2a65  804a              	DEFW 19072
  5618  2a67  804b              	DEFW 19328
  5619  2a69  804c              	DEFW 19584
  5620  2a6b  804d              	DEFW 19840
  5621  2a6d  804e              	DEFW 20096
  5622  2a6f  804f              	DEFW 20352
  5623  2a71  a048              	DEFW 18592
  5624  2a73  a049              	DEFW 18848
  5625  2a75  a04a              	DEFW 19104
  5626  2a77  a04b              	DEFW 19360
  5627  2a79  a04c              	DEFW 19616
  5628  2a7b  a04d              	DEFW 19872
  5629  2a7d  a04e              	DEFW 20128
  5630  2a7f  a04f              	DEFW 20384
  5631  2a81  c048              	DEFW 18624
  5632  2a83  c049              	DEFW 18880
  5633  2a85  c04a              	DEFW 19136
  5634  2a87  c04b              	DEFW 19392
  5635  2a89  c04c              	DEFW 19648
  5636  2a8b  c04d              	DEFW 19904
  5637  2a8d  c04e              	DEFW 20160
  5638  2a8f  c04f              	DEFW 20416
  5639  2a91  e048              	DEFW 18656
  5640  2a93  e049              	DEFW 18912
  5641  2a95  e04a              	DEFW 19168
  5642  2a97  e04b              	DEFW 19424
  5643  2a99  e04c              	DEFW 19680
  5644  2a9b  e04d              	DEFW 19936
  5645  2a9d  e04e              	DEFW 20192
  5646  2a9f  e04f              	DEFW 20448
  5647  2aa1  0050              	DEFW 20480
  5648  2aa3  0051              	DEFW 20736
  5649  2aa5  0052              	DEFW 20992
  5650  2aa7  0053              	DEFW 21248
  5651  2aa9  0054              	DEFW 21504
  5652  2aab  0055              	DEFW 21760
  5653  2aad  0056              	DEFW 22016
  5654  2aaf  0057              	DEFW 22272
  5655  2ab1  2050              	DEFW 20512
  5656  2ab3  2051              	DEFW 20768
  5657  2ab5  2052              	DEFW 21024
  5658  2ab7  2053              	DEFW 21280
  5659  2ab9  2054              	DEFW 21536
  5660  2abb  2055              	DEFW 21792
  5661  2abd  2056              	DEFW 22048
  5662  2abf  2057              	DEFW 22304
  5663  2ac1  4050              	DEFW 20544
  5664  2ac3  4051              	DEFW 20800
  5665  2ac5  4052              	DEFW 21056
  5666  2ac7  4053              	DEFW 21312
  5667  2ac9  4054              	DEFW 21568
  5668  2acb  4055              	DEFW 21824
  5669  2acd  4056              	DEFW 22080
  5670  2acf  4057              	DEFW 22336
  5671  2ad1  6050              	DEFW 20576
  5672  2ad3  6051              	DEFW 20832
  5673  2ad5  6052              	DEFW 21088
  5674  2ad7  6053              	DEFW 21344
  5675  2ad9  6054              	DEFW 21600
  5676  2adb  6055              	DEFW 21856
  5677  2add  6056              	DEFW 22112
  5678  2adf  6057              	DEFW 22368
  5679  2ae1  8050              	DEFW 20608
  5680  2ae3  8051              	DEFW 20864
  5681  2ae5  8052              	DEFW 21120
  5682  2ae7  8053              	DEFW 21376
  5683  2ae9  8054              	DEFW 21632
  5684  2aeb  8055              	DEFW 21888
  5685  2aed  8056              	DEFW 22144
  5686  2aef  8057              	DEFW 22400
  5687  2af1  a050              	DEFW 20640
  5688  2af3  a051              	DEFW 20896
  5689  2af5  a052              	DEFW 21152
  5690  2af7  a053              	DEFW 21408
  5691  2af9  a054              	DEFW 21664
  5692  2afb  a055              	DEFW 21920
  5693  2afd  a056              	DEFW 22176
  5694  2aff  a057              	DEFW 22432
  5695  2b01  c050              	DEFW 20672
  5696  2b03  c051              	DEFW 20928
  5697  2b05  c052              	DEFW 21184
  5698  2b07  c053              	DEFW 21440
  5699  2b09  c054              	DEFW 21696
  5700  2b0b  c055              	DEFW 21952
  5701  2b0d  c056              	DEFW 22208
  5702  2b0f  c057              	DEFW 22464
  5703  2b11  e050              	DEFW 20704
  5704  2b13  e051              	DEFW 20960
  5705  2b15  e052              	DEFW 21216
  5706  2b17  e053              	DEFW 21472
  5707  2b19  e054              	DEFW 21728
  5708  2b1b  e055              	DEFW 21984
  5709  2b1d  e056              	DEFW 22240
  5710                          ROWSADDRESSL:
  5711  2b1f  e057              	DEFW 22496
  5712                          COLRADDRESS:
  5713  2b21  0058              	DEFW 22528
  5714  2b23  0058              	DEFW 22528
  5715  2b25  0058              	DEFW 22528
  5716  2b27  0058              	DEFW 22528
  5717  2b29  0058              	DEFW 22528
  5718  2b2b  0058              	DEFW 22528
  5719  2b2d  0058              	DEFW 22528
  5720  2b2f  0058              	DEFW 22528
  5721  2b31  2058              	DEFW 22560
  5722  2b33  2058              	DEFW 22560
  5723  2b35  2058              	DEFW 22560
  5724  2b37  2058              	DEFW 22560
  5725  2b39  2058              	DEFW 22560
  5726  2b3b  2058              	DEFW 22560
  5727  2b3d  2058              	DEFW 22560
  5728  2b3f  2058              	DEFW 22560
  5729  2b41  4058              	DEFW 22592
  5730  2b43  4058              	DEFW 22592
  5731  2b45  4058              	DEFW 22592
  5732  2b47  4058              	DEFW 22592
  5733  2b49  4058              	DEFW 22592
  5734  2b4b  4058              	DEFW 22592
  5735  2b4d  4058              	DEFW 22592
  5736  2b4f  4058              	DEFW 22592
  5737  2b51  6058              	DEFW 22624
  5738  2b53  6058              	DEFW 22624
  5739  2b55  6058              	DEFW 22624
  5740  2b57  6058              	DEFW 22624
  5741  2b59  6058              	DEFW 22624
  5742  2b5b  6058              	DEFW 22624
  5743  2b5d  6058              	DEFW 22624
  5744  2b5f  6058              	DEFW 22624
  5745  2b61  8058              	DEFW 22656
  5746  2b63  8058              	DEFW 22656
  5747  2b65  8058              	DEFW 22656
  5748  2b67  8058              	DEFW 22656
  5749  2b69  8058              	DEFW 22656
  5750  2b6b  8058              	DEFW 22656
  5751  2b6d  8058              	DEFW 22656
  5752  2b6f  8058              	DEFW 22656
  5753  2b71  a058              	DEFW 22688
  5754  2b73  a058              	DEFW 22688
  5755  2b75  a058              	DEFW 22688
  5756  2b77  a058              	DEFW 22688
  5757  2b79  a058              	DEFW 22688
  5758  2b7b  a058              	DEFW 22688
  5759  2b7d  a058              	DEFW 22688
  5760  2b7f  a058              	DEFW 22688
  5761  2b81  c058              	DEFW 22720
  5762  2b83  c058              	DEFW 22720
  5763  2b85  c058              	DEFW 22720
  5764  2b87  c058              	DEFW 22720
  5765  2b89  c058              	DEFW 22720
  5766  2b8b  c058              	DEFW 22720
  5767  2b8d  c058              	DEFW 22720
  5768  2b8f  c058              	DEFW 22720
  5769  2b91  e058              	DEFW 22752
  5770  2b93  e058              	DEFW 22752
  5771  2b95  e058              	DEFW 22752
  5772  2b97  e058              	DEFW 22752
  5773  2b99  e058              	DEFW 22752
  5774  2b9b  e058              	DEFW 22752
  5775  2b9d  e058              	DEFW 22752
  5776  2b9f  e058              	DEFW 22752
  5777  2ba1  0059              	DEFW 22784
  5778  2ba3  0059              	DEFW 22784
  5779  2ba5  0059              	DEFW 22784
  5780  2ba7  0059              	DEFW 22784
  5781  2ba9  0059              	DEFW 22784
  5782  2bab  0059              	DEFW 22784
  5783  2bad  0059              	DEFW 22784
  5784  2baf  0059              	DEFW 22784
  5785  2bb1  2059              	DEFW 22816
  5786  2bb3  2059              	DEFW 22816
  5787  2bb5  2059              	DEFW 22816
  5788  2bb7  2059              	DEFW 22816
  5789  2bb9  2059              	DEFW 22816
  5790  2bbb  2059              	DEFW 22816
  5791  2bbd  2059              	DEFW 22816
  5792  2bbf  2059              	DEFW 22816
  5793  2bc1  4059              	DEFW 22848
  5794  2bc3  4059              	DEFW 22848
  5795  2bc5  4059              	DEFW 22848
  5796  2bc7  4059              	DEFW 22848
  5797  2bc9  4059              	DEFW 22848
  5798  2bcb  4059              	DEFW 22848
  5799  2bcd  4059              	DEFW 22848
  5800  2bcf  4059              	DEFW 22848
  5801  2bd1  6059              	DEFW 22880
  5802  2bd3  6059              	DEFW 22880
  5803  2bd5  6059              	DEFW 22880
  5804  2bd7  6059              	DEFW 22880
  5805  2bd9  6059              	DEFW 22880
  5806  2bdb  6059              	DEFW 22880
  5807  2bdd  6059              	DEFW 22880
  5808  2bdf  6059              	DEFW 22880
  5809  2be1  8059              	DEFW 22912
  5810  2be3  8059              	DEFW 22912
  5811  2be5  8059              	DEFW 22912
  5812  2be7  8059              	DEFW 22912
  5813  2be9  8059              	DEFW 22912
  5814  2beb  8059              	DEFW 22912
  5815  2bed  8059              	DEFW 22912
  5816  2bef  8059              	DEFW 22912
  5817  2bf1  a059              	DEFW 22944
  5818  2bf3  a059              	DEFW 22944
  5819  2bf5  a059              	DEFW 22944
  5820  2bf7  a059              	DEFW 22944
  5821  2bf9  a059              	DEFW 22944
  5822  2bfb  a059              	DEFW 22944
  5823  2bfd  a059              	DEFW 22944
  5824  2bff  a059              	DEFW 22944
  5825  2c01  c059              	DEFW 22976
  5826  2c03  c059              	DEFW 22976
  5827  2c05  c059              	DEFW 22976
  5828  2c07  c059              	DEFW 22976
  5829  2c09  c059              	DEFW 22976
  5830  2c0b  c059              	DEFW 22976
  5831  2c0d  c059              	DEFW 22976
  5832  2c0f  c059              	DEFW 22976
  5833  2c11  e059              	DEFW 23008
  5834  2c13  e059              	DEFW 23008
  5835  2c15  e059              	DEFW 23008
  5836  2c17  e059              	DEFW 23008
  5837  2c19  e059              	DEFW 23008
  5838  2c1b  e059              	DEFW 23008
  5839  2c1d  e059              	DEFW 23008
  5840  2c1f  e059              	DEFW 23008
  5841  2c21  005a              	DEFW 23040
  5842  2c23  005a              	DEFW 23040
  5843  2c25  005a              	DEFW 23040
  5844  2c27  005a              	DEFW 23040
  5845  2c29  005a              	DEFW 23040
  5846  2c2b  005a              	DEFW 23040
  5847  2c2d  005a              	DEFW 23040
  5848  2c2f  005a              	DEFW 23040
  5849  2c31  205a              	DEFW 23072
  5850  2c33  205a              	DEFW 23072
  5851  2c35  205a              	DEFW 23072
  5852  2c37  205a              	DEFW 23072
  5853  2c39  205a              	DEFW 23072
  5854  2c3b  205a              	DEFW 23072
  5855  2c3d  205a              	DEFW 23072
  5856  2c3f  205a              	DEFW 23072
  5857  2c41  405a              	DEFW 23104
  5858  2c43  405a              	DEFW 23104
  5859  2c45  405a              	DEFW 23104
  5860  2c47  405a              	DEFW 23104
  5861  2c49  405a              	DEFW 23104
  5862  2c4b  405a              	DEFW 23104
  5863  2c4d  405a              	DEFW 23104
  5864  2c4f  405a              	DEFW 23104
  5865  2c51  605a              	DEFW 23136
  5866  2c53  605a              	DEFW 23136
  5867  2c55  605a              	DEFW 23136
  5868  2c57  605a              	DEFW 23136
  5869  2c59  605a              	DEFW 23136
  5870  2c5b  605a              	DEFW 23136
  5871  2c5d  605a              	DEFW 23136
  5872  2c5f  605a              	DEFW 23136
  5873  2c61  805a              	DEFW 23168
  5874  2c63  805a              	DEFW 23168
  5875  2c65  805a              	DEFW 23168
  5876  2c67  805a              	DEFW 23168
  5877  2c69  805a              	DEFW 23168
  5878  2c6b  805a              	DEFW 23168
  5879  2c6d  805a              	DEFW 23168
  5880  2c6f  805a              	DEFW 23168
  5881  2c71  a05a              	DEFW 23200
  5882  2c73  a05a              	DEFW 23200
  5883  2c75  a05a              	DEFW 23200
  5884  2c77  a05a              	DEFW 23200
  5885  2c79  a05a              	DEFW 23200
  5886  2c7b  a05a              	DEFW 23200
  5887  2c7d  a05a              	DEFW 23200
  5888  2c7f  a05a              	DEFW 23200
  5889  2c81  c05a              	DEFW 23232
  5890  2c83  c05a              	DEFW 23232
  5891  2c85  c05a              	DEFW 23232
  5892  2c87  c05a              	DEFW 23232
  5893  2c89  c05a              	DEFW 23232
  5894  2c8b  c05a              	DEFW 23232
  5895  2c8d  c05a              	DEFW 23232
  5896  2c8f  c05a              	DEFW 23232
  5897  2c91  e05a              	DEFW 23264
  5898  2c93  e05a              	DEFW 23264
  5899  2c95  e05a              	DEFW 23264
  5900  2c97  e05a              	DEFW 23264
  5901  2c99  e05a              	DEFW 23264
  5902  2c9b  e05a              	DEFW 23264
  5903  2c9d  e05a              	DEFW 23264
  5904  2c9f  e05a              	DEFW 23264
  5905                          COLRADDRESSL:
  5906  2ca1  005b              	DEFW 23296
  5907                          vScroll_after:
  5908  2ca3  c3222e            	jp textEncodedAt_after
  5909                          ; /*****************************************************************************
  5910                          ;  * ugBASIC - an isomorphic BASIC language compiler for retrocomputers        *
  5911                          ;  *****************************************************************************
  5912                          ;  * Copyright 2021-2023 Marco Spedaletti (asimov@mclink.it)
  5913                          ;  *
  5914                          ;  * Licensed under the Apache License, Version 2.0 (the "License");
  5915                          ;  * you may not use this file except in compliance with the License.
  5916                          ;  * You may obtain a copy of the License at
  5917                          ;  *
  5918                          ;  * http://www.apache.org/licenses/LICENSE-2.0
  5919                          ;  *
  5920                          ;  * Unless required by applicable law or agreed to in writing, software
  5921                          ;  * distributed under the License is distributed on an "AS IS" BASIS,
  5922                          ;  * WITHOUT WARRANTIES OR CONDITIONS OF ANY KIND, either express or implied.
  5923                          ;  * See the License for the specific language governing permissions and
  5924                          ;  * limitations under the License.
  5925                          ;  *----------------------------------------------------------------------------
  5926                          ;  * Concesso in licenza secondo i termini della Licenza Apache, versione 2.0
  5927                          ;  * (la "Licenza"); è proibito usare questo file se non in conformità alla
  5928                          ;  * Licenza. Una copia della Licenza è disponibile all'indirizzo:
  5929                          ;  *
  5930                          ;  * http://www.apache.org/licenses/LICENSE-2.0
  5931                          ;  *
  5932                          ;  * Se non richiesto dalla legislazione vigente o concordato per iscritto,
  5933                          ;  * il software distribuito nei termini della Licenza è distribuito
  5934                          ;  * "COSì COM'è", SENZA GARANZIE O CONDIZIONI DI ALCUN TIPO, esplicite o
  5935                          ;  * implicite. Consultare la Licenza per il testo specifico che regola le
  5936                          ;  * autorizzazioni e le limitazioni previste dalla medesima.
  5937                          ;  ****************************************************************************/
  5938                          ;* * * * * * * * * * * * * * * * * * * * * * * * * * * * * * * * * * * * * * * *
  5939                          ;*                                                                             *
  5940                          ;*                      TEXT AT GIVEN POSITION ON ZX SPECTRUM                  *
  5941                          ;*                                                                             *
  5942                          ;*                             by Marco Spedaletti                             *
  5943                          ;*                                                                             *
  5944                          ;* * * * * * * * * * * * * * * * * * * * * * * * * * * * * * * * * * * * * * * *
  5945                          TEXTAT:
  5946  2ca6  3a0d71            	LD A, (XCURSYS)
  5947  2ca9  5f                	LD E, A
  5948  2caa  3a0e71            	LD A, (YCURSYS)
  5949  2cad  57                	LD D, A
  5950                          TEXTATL:
  5951  2cae  7e                	LD A, (HL)
  5952  2caf  0d                	DEC C
  5953  2cb0  23                	INC HL
  5954  2cb1  fe0e              	CP 14
  5955  2cb3  dae32c            	JP C, TEXTATCC
  5956  2cb6  fe20              	CP 32
  5957  2cb8  daae2c            	JP C, TEXTATL
  5958  2cbb  d5                	PUSH DE
  5959  2cbc  e5                	PUSH HL
  5960  2cbd  c5                	PUSH BC
  5961  2cbe  cd9a2d            	CALL TEXTATPC
  5962  2cc1  c1                	POP BC
  5963  2cc2  e1                	POP HL
  5964  2cc3  d1                	POP DE
  5965  2cc4  1c                	INC E
  5966                          TEXTATNEXTCOLCHK:
  5967  2cc5  7b                	LD A, E
  5968  2cc6  fe20              	CP 32
  5969  2cc8  da8c2d            	JP C, TEXTATNEXTCOL
  5970  2ccb  1e00              	LD E, 0
  5971  2ccd  14                	INC D
  5972  2cce  7a                	LD A, D
  5973  2ccf  fe18              	CP 24
  5974  2cd1  da8c2d            	JP C, TEXTATNEXTCOL
  5975                          TEXTATVSCROLL:
  5976  2cd4  15                	DEC D
  5977  2cd5  d5                	PUSH DE
  5978  2cd6  e5                	PUSH HL
  5979  2cd7  c5                	PUSH BC
  5980  2cd8  3ef8              	LD A, $F8
  5981  2cda  cd0d28            	CALL VSCROLL
  5982  2cdd  c1                	POP BC
  5983  2cde  e1                	POP HL
  5984  2cdf  d1                	POP DE
  5985  2ce0  c38c2d            	JMP TEXTATNEXTCOL
  5986                          TEXTATCC:
  5987  2ce3  fe0d              	CP 13
  5988  2ce5  ca862d            	JP Z, TEXTATLF
  5989  2ce8  fe0a              	CP 10
  5990  2cea  ca862d            	JP Z, TEXTATLF
  5991  2ced  fe09              	CP 9
  5992  2cef  ca092d            	JP Z, TEXTATTAB
  5993  2cf2  fe01              	CP 1
  5994  2cf4  ca2b2d            	JP Z, TEXTATPEN
  5995  2cf7  fe02              	CP 2
  5996  2cf9  ca392d            	JP Z, TEXTATPAPER
  5997  2cfc  fe03              	CP 3
  5998  2cfe  ca632d            	JP Z, TEXTATCMOVE
  5999  2d01  fe04              	CP 4
  6000  2d03  ca422d            	JP Z, TEXTATAT
  6001  2d06  c38c2d            	JMP TEXTATNEXTCOL
  6002                          TEXTATTAB:
  6003  2d09  7b                	LD A, E
  6004                          TEXTATTABL:
  6005  2d0a  3a1e71            	LD A, (TABCOUNT)
  6006  2d0d  47                	LD B, A
  6007  2d0e  98                	SBC A, B
  6008  2d0f  ca182d            	JP Z, TEXTATTABN
  6009  2d12  fa182d            	JP M, TEXTATTABN
  6010  2d15  c30a2d            	JMP TEXTATTABL
  6011                          TEXTATTABN:
  6012  2d18  80                	ADD A, B
  6013  2d19  83                	ADD A, E
  6014  2d1a  5f                	LD E, A
  6015  2d1b  fe20              	CP 32
  6016  2d1d  da8c2d            	JP C, TEXTATNEXTCOL
  6017  2d20  1e00              	LD E, 0
  6018  2d22  14                	INC D
  6019  2d23  fe18              	CP 24
  6020  2d25  da8c2d            	JP C, TEXTATNEXTCOL
  6021  2d28  c3d42c            	JMP TEXTATVSCROLL
  6022                          TEXTATPEN:
  6023  2d2b  7e                	LD A, (HL)
  6024  2d2c  feff              	CP $FF
  6025  2d2e  2001              	JR NZ, TEXTATPEN2
  6026                          ; peephole(1): r228 (LD A, 0)->(XOR A)
  6027                          ;    LD A, 0
  6028  2d30  af                	XOR A
  6029                          TEXTATPEN2:
  6030  2d31  23                	INC HL
  6031  2d32  0d                	DEC C
  6032  2d33  320f71            	LD (_PEN), A
  6033  2d36  c38c2d            	JMP TEXTATNEXTCOL
  6034                          TEXTATPAPER:
  6035  2d39  7e                	LD A, (HL)
  6036  2d3a  23                	INC HL
  6037  2d3b  0d                	DEC C
  6038  2d3c  321071            	LD (_PAPER), A
  6039  2d3f  c38c2d            	JMP TEXTATNEXTCOL
  6040                          TEXTATAT:
  6041  2d42  7e                	LD A, (HL)
  6042  2d43  23                	INC HL
  6043  2d44  0d                	DEC C
  6044  2d45  5f                	LD E, A
  6045  2d46  7e                	LD A, (HL)
  6046  2d47  23                	INC HL
  6047  2d48  0d                	DEC C
  6048  2d49  57                	LD D, A
  6049  2d4a  fe18              	CP 24
  6050  2d4c  da522d            	JP C, TEXTATAT2
  6051  2d4f  c3d42c            	JMP TEXTATVSCROLL
  6052                          TEXTATAT2:
  6053  2d52  7b                	LD A, E
  6054  2d53  fe20              	CP 32
  6055  2d55  dac52c            	JP C, TEXTATNEXTCOLCHK
  6056  2d58  1e00              	LD E, 0
  6057  2d5a  14                	INC D
  6058  2d5b  fe18              	CP 24
  6059  2d5d  dac52c            	JP C, TEXTATNEXTCOLCHK
  6060  2d60  c3d42c            	JMP TEXTATVSCROLL
  6061                          TEXTATCMOVE:
  6062  2d63  7e                	LD A, (HL)
  6063  2d64  23                	INC HL
  6064  2d65  0d                	DEC C
  6065  2d66  83                	ADD A, E
  6066  2d67  5f                	LD E, A
  6067  2d68  7e                	LD A, (HL)
  6068  2d69  23                	INC HL
  6069  2d6a  0d                	DEC C
  6070  2d6b  82                	ADD A, D
  6071  2d6c  57                	LD D, A
  6072  2d6d  fe18              	CP 24
  6073  2d6f  da752d            	JP C, TEXTATCMOVE2
  6074  2d72  c3d42c            	JMP TEXTATVSCROLL
  6075                          TEXTATCMOVE2:
  6076  2d75  7b                	LD A, E
  6077  2d76  fe20              	CP 32
  6078  2d78  dac52c            	JP C, TEXTATNEXTCOLCHK
  6079  2d7b  1e00              	LD E, 0
  6080  2d7d  14                	INC D
  6081  2d7e  fe18              	CP 24
  6082  2d80  dac52c            	JP C, TEXTATNEXTCOLCHK
  6083  2d83  c3d42c            	JMP TEXTATVSCROLL
  6084                          TEXTATLF:
  6085  2d86  3e20              	LD A, 32
  6086  2d88  5f                	LD E, A
  6087  2d89  c3c52c            	JMP TEXTATNEXTCOLCHK
  6088                          TEXTATNEXTCOL:
  6089  2d8c  0c                	INC C
  6090  2d8d  0d                	DEC C
  6091  2d8e  c2ae2c            	JP NZ, TEXTATL
  6092  2d91  7a                	LD A, D
  6093  2d92  320e71            	LD (YCURSYS), A
  6094  2d95  7b                	LD A, E
  6095  2d96  320d71            	LD (XCURSYS), A
  6096  2d99  c9                	RET
  6097                          TEXTATPC:
  6098  2d9a  f5                	PUSH AF
  6099  2d9b  d5                	PUSH DE
  6100  2d9c  210058            	LD HL, $5800
  6101  2d9f  7a                	LD A, D
  6102  2da0  fe00              	CP 0
  6103  2da2  caaf2d            	JP Z, TEXTATROW
  6104                          TEXTATPC2:
  6105  2da5  d511200019d1      	ADD HL, 32
  6106  2dab  15                	DEC D
  6107  2dac  c2a52d            	JP NZ, TEXTATPC2
  6108                          TEXTATROW:
  6109  2daf  d5                	PUSH DE
  6110  2db0  1600              	LD D,0
  6111  2db2  19                	ADD HL, DE
  6112  2db3  d1                	POP DE
  6113  2db4  d1                	POP DE
  6114  2db5  7e                	LD A, (HL)
  6115  2db6  e638              	AND $38
  6116  2db8  47                	LD B, A
  6117  2db9  3a1171            	LD A, (TEXTWW)
  6118  2dbc  e601              	AND 1
  6119  2dbe  cacd2d            	JP Z, TEXTATPC3
  6120  2dc1  3a1071            	LD A, (_PAPER)
  6121  2dc4  e60f              	AND $0F
  6122  2dc6  cb27              	SLA A
  6123  2dc8  cb27              	SLA A
  6124  2dca  cb27              	SLA A
  6125  2dcc  47                	LD B, A
  6126                          TEXTATPC3:
  6127  2dcd  3a1171            	LD A, (TEXTWW)
  6128  2dd0  e602              	AND 2
  6129  2dd2  caed2d            	JP Z, TEXTATPC4
  6130  2dd5  c5                	PUSH BC
  6131  2dd6  3a0f71            	LD A, (_PEN)
  6132  2dd9  e607              	AND $07
  6133  2ddb  b0                	OR A, B
  6134  2ddc  47                	LD B, A
  6135  2ddd  3a0f71            	LD A, (_PEN)
  6136  2de0  e608              	AND $08
  6137  2de2  cb27              	SLA A
  6138  2de4  cb27              	SLA A
  6139  2de6  cb27              	SLA A
  6140  2de8  b0                	OR A, B
  6141  2de9  c1                	POP BC
  6142  2dea  c3f02d            	JMP TEXTATPC5
  6143                          TEXTATPC4:
  6144  2ded  7e                	LD A, (HL)
  6145  2dee  e607              	AND $07
  6146                          TEXTATPC5:
  6147  2df0  b0                	OR A, B
  6148  2df1  77                	LD (HL), A
  6149  2df2  f1                	POP AF
  6150  2df3  21003c            	LD HL, $3C00
  6151  2df6  0600              	LD B,0
  6152  2df8  4f                	LD C, A
  6153  2df9  cb21              	SLA C
  6154  2dfb  cb10              	RL B
  6155  2dfd  cb21              	SLA C
  6156  2dff  cb10              	RL B
  6157  2e01  cb21              	SLA C
  6158  2e03  cb10              	RL B
  6159  2e05  09                	ADD HL, BC
  6160  2e06  cd122e            	CALL TEXTATGC
  6161  2e09  0608              	LD B,8
  6162                          TEXTATL1:
  6163  2e0b  7e                	LD A, (HL)
  6164  2e0c  12                	LD (DE),A
  6165  2e0d  23                	INC HL
  6166  2e0e  14                	INC D
  6167  2e0f  10fa              	DJNZ TEXTATL1
  6168  2e11  c9                	RET
  6169                          TEXTATGC:
  6170  2e12  7a                	LD A,D
  6171  2e13  e607              	AND %00000111
  6172  2e15  1f                	RRA
  6173  2e16  1f                	RRA
  6174  2e17  1f                	RRA
  6175  2e18  1f                	RRA
  6176  2e19  b3                	OR E
  6177  2e1a  5f                	LD E,A
  6178  2e1b  7a                	LD A,D
  6179  2e1c  e618              	AND %00011000
  6180  2e1e  f640              	OR %01000000
  6181  2e20  57                	LD D,A
  6182  2e21  c9                	RET
  6183                          
  6184                          textEncodedAt_after:
  6185  2e22  3a5600            	LD A, (_printPointer_Ttmp279)
  6186  2e25  4f                	LD C, A
  6187  2e26  0600              	LD B, 0
  6188  2e28  2a5f00            	LD HL, (_printPointer_Ttmp305)
  6189  2e2b  cda62c            	CALL TEXTAT
  6190  2e2e  3e00              	LD A, $00
  6191  2e30  320d71            	LD (XCURSYS), A
  6192  2e33  3a0e71            	LD A, (YCURSYS)
  6193  2e36  3c                	INC A
  6194  2e37  320e71            	LD (YCURSYS), A
  6195  2e3a  3a1b71            	LD A, (CURRENTTILESHEIGHT)
  6196  2e3d  47                	LD B, A
  6197  2e3e  3a0e71            	LD A, (YCURSYS)
  6198  2e41  b8                	CP B
  6199  2e42  3807              	JR C, _label308
  6200                          ; peephole(1): r228 (LD A, 0)->(XOR A)
  6201                          ;	LD A, 0
  6202  2e44  af                	XOR A
  6203  2e45  325a00            	LD (_printPointer_Ttmp289), A
  6204  2e48  c3502e            	JMP _label308b2
  6205                          _label308:
  6206  2e4b  3eff              	LD A, $ff
  6207  2e4d  325a00            	LD (_printPointer_Ttmp289), A
  6208                          _label308b2:
  6209  2e50  3a5a00            	LD A, (_printPointer_Ttmp289)
  6210                          ; peephole(1): r319 (XOR $FF)->(CPL)
  6211                          ;	XOR $FF
  6212  2e53  2f                	CPL
  6213  2e54  325a00            	LD (_printPointer_Ttmp289), A
  6214  2e57  3a5a00            	LD A, (_printPointer_Ttmp289)
  6215  2e5a  fe00              	CP 0
  6216  2e5c  c2622e            	JP NZ, _label309
  6217  2e5f  c3652e            	JMP _label309b2
  6218                          _label309:
  6219  2e62  c3682e            	JMP _label306scroll
  6220                          _label309b2:
  6221  2e65  c37a2e            	jp _label306end
  6222                          _label306scroll:
  6223  2e68  3ef8              	LD A, $f8
  6224  2e6a  cd0d28            	CALL VSCROLL
  6225  2e6d  3a1b71            	LD A, (CURRENTTILESHEIGHT)
  6226  2e70  320e71            	LD (YCURSYS), A
  6227  2e73  3a0e71            	LD A, (YCURSYS)
  6228  2e76  3d                	DEC A
  6229  2e77  320e71            	LD (YCURSYS), A
  6230                          _label306end:
  6231                          	; P:960
  6232                          	; L:103
  6233  2e7a  2a8972            	LD HL, (_printPointer_c)
  6234  2e7d  ed5b6601          	LD DE, (_TRtmp281)
  6235  2e81  19                	ADD HL, DE
  6236  2e82  228972            	LD (_printPointer_c), HL
  6237  2e85  3a8a72            	LD A, (_printPointer_c+1)
  6238  2e88  fe00              	CP $00
  6239  2e8a  c2952e            	JP NZ, _label311
  6240  2e8d  3a8972            	LD A, (_printPointer_c)
  6241  2e90  fe00              	CP $00
  6242  2e92  ca982e            	JP Z, _label284bis
  6243                          _label311:
  6244  2e95  c30627            	jp _label284bf
  6245                          _label284bis:
  6246                          	; P:13
  6247                          	; L:104
  6248  2e98  3e00              	LD A, $00
  6249  2e9a  325600            	LD (_printPointer_Ttmp279), A
  6250  2e9d  3e03              	LD A, $03
  6251  2e9f  325700            	LD (_printPointer_Ttmp280), A
  6252  2ea2  3e00              	LD A, $00
  6253  2ea4  325800            	LD (_printPointer_Ttmp280+1), A
  6254  2ea7  2a5700            	LD HL, (_printPointer_Ttmp280)
  6255  2eaa  ed5b8772          	LD DE, (_optionspointer)
  6256  2eae  19                	ADD HL, DE
  6257  2eaf  225b00            	LD (_printPointer_Ttmp292), HL
  6258                          	 ; variable_move_8bit_8bit
  6259                          	 ; 8 BIT (unsigned) -> 8 BIT (unsigned)
  6260  2eb2  3a5600            	LD A, (_printPointer_Ttmp279)
  6261  2eb5  320d71            	LD (XCURSYS), A
  6262  2eb8  3a5c00            	LD A, (_printPointer_Ttmp292+1)
  6263  2ebb  e680              	AND $80
  6264  2ebd  fe00              	CP 0
  6265  2ebf  2808              	JR Z,_label313
  6266  2ec1  3eff              	LD A, $FF
  6267  2ec3  325900            	LD (_printPointer_Ttmp286), A
  6268  2ec6  c3ce2e            	JMP _label313done
  6269                          _label313:
  6270  2ec9  3e00              	LD A, $0
  6271  2ecb  325900            	LD (_printPointer_Ttmp286), A
  6272                          _label313done:
  6273  2ece  3a5900            	LD A, (_printPointer_Ttmp286)
  6274  2ed1  fe00              	CP 0
  6275  2ed3  cad92e            	JP Z, _label314
  6276  2ed6  c3dc2e            	JMP _label314b2
  6277                          _label314:
  6278  2ed9  c3102f            	JMP _label312
  6279                          _label314b2:
  6280  2edc  3a5b00            	LD A, (_printPointer_Ttmp292)
  6281                          ; peephole(1): r319 (XOR $FF)->(CPL)
  6282                          ;	XOR $FF
  6283  2edf  2f                	CPL
  6284  2ee0  325d00            	LD (_printPointer_Ttmp293), A
  6285  2ee3  3a5c00            	LD A, (_printPointer_Ttmp292+1)
  6286                          ; peephole(1): r319 (XOR $FF)->(CPL)
  6287                          ;	XOR $FF
  6288  2ee6  2f                	CPL
  6289  2ee7  325e00            	LD (_printPointer_Ttmp293+1), A
  6290  2eea  2a5d00            	LD HL, (_printPointer_Ttmp293)
  6291  2eed  23                	INC HL
  6292  2eee  225d00            	LD (_printPointer_Ttmp293), HL
  6293  2ef1  3a5d00            	LD A, (_printPointer_Ttmp293)
  6294  2ef4  325a00            	LD (_printPointer_Ttmp289), A
  6295  2ef7  3a5a00            	LD A, (_printPointer_Ttmp289)
  6296  2efa  e67f              	AND $7f
  6297  2efc  325a00            	LD (_printPointer_Ttmp289), A
  6298  2eff  3a5a00            	LD A, (_printPointer_Ttmp289)
  6299                          ; peephole(1): r319 (XOR $FF)->(CPL)
  6300                          ;	XOR $FF
  6301  2f02  2f                	CPL
  6302  2f03  325a00            	LD (_printPointer_Ttmp289), A
  6303  2f06  3a5a00            	LD A, (_printPointer_Ttmp289)
  6304  2f09  3c                	INC A
  6305  2f0a  325a00            	LD (_printPointer_Ttmp289), A
  6306  2f0d  c31e2f            	jp _label312done
  6307                          _label312:
  6308  2f10  3a5b00            	LD A, (_printPointer_Ttmp292)
  6309  2f13  325a00            	LD (_printPointer_Ttmp289), A
  6310  2f16  3a5a00            	LD A, (_printPointer_Ttmp289)
  6311  2f19  e67f              	AND $7f
  6312  2f1b  325a00            	LD (_printPointer_Ttmp289), A
  6313                          _label312done:
  6314                          	 ; variable_move_8bit_8bit
  6315                          	 ; 8 BIT (signed) -> 8 BIT (unsigned)
  6316  2f1e  3a5a00            	LD A, (_printPointer_Ttmp289)
  6317  2f21  320e71            	LD (YCURSYS), A
  6318  2f24  3a0e71            	LD A, (YCURSYS)
  6319  2f27  e680              	AND $80
  6320  2f29  fe00              	CP 0
  6321  2f2b  2805              	JR Z,_label316
  6322  2f2d  3eff              	LD A, $FF
  6323                          ; peephole(3): unread
  6324                          ;	LD (_printPointer_Ttmp299), A
  6325  2f2f  c3342f            	JMP _label316done
  6326                          _label316:
  6327  2f32  3e00              	LD A, $0
  6328                          ; peephole(3): unread
  6329                          ;	LD (_printPointer_Ttmp299), A
  6330                          _label316done:
  6331  2f34  ca3a2f            	JP Z, _label317
  6332  2f37  c33d2f            	JMP _label317b2
  6333                          _label317:
  6334  2f3a  c34b2f            	JMP _label315
  6335                          _label317b2:
  6336  2f3d  3a0e71            	LD A, (YCURSYS)
  6337                          ; peephole(1): r319 (XOR $FF)->(CPL)
  6338                          ;	XOR $FF
  6339  2f40  2f                	CPL
  6340  2f41  320e71            	LD (YCURSYS), A
  6341  2f44  3a0e71            	LD A, (YCURSYS)
  6342  2f47  3c                	INC A
  6343  2f48  320e71            	LD (YCURSYS), A
  6344                          _label315:
  6345                          	; P:83
  6346                          	; L:105
  6347  2f4b  3a0000            	LD A, (_printPointer_Tstr318)
  6348  2f4e  325600            	LD (_printPointer_Ttmp279), A
  6349  2f51  210000            	LD HL, _printPointer_Tstr318
  6350  2f54  225f00            	LD (_printPointer_Ttmp305), HL
  6351  2f57  2a5f00            	LD HL, (_printPointer_Ttmp305)
  6352  2f5a  23                	INC HL
  6353  2f5b  225f00            	LD (_printPointer_Ttmp305), HL
  6354  2f5e  3a5600            	LD A, (_printPointer_Ttmp279)
  6355  2f61  4f                	LD C, A
  6356  2f62  0600              	LD B, 0
  6357  2f64  2a5f00            	LD HL, (_printPointer_Ttmp305)
  6358  2f67  cda62c            	CALL TEXTAT
  6359  2f6a  3e00              	LD A, $00
  6360  2f6c  320d71            	LD (XCURSYS), A
  6361  2f6f  3a0e71            	LD A, (YCURSYS)
  6362  2f72  3c                	INC A
  6363  2f73  320e71            	LD (YCURSYS), A
  6364  2f76  3a1b71            	LD A, (CURRENTTILESHEIGHT)
  6365  2f79  47                	LD B, A
  6366  2f7a  3a0e71            	LD A, (YCURSYS)
  6367  2f7d  b8                	CP B
  6368  2f7e  3807              	JR C, _label323
  6369                          ; peephole(1): r228 (LD A, 0)->(XOR A)
  6370                          ;	LD A, 0
  6371  2f80  af                	XOR A
  6372  2f81  325a00            	LD (_printPointer_Ttmp289), A
  6373  2f84  c38c2f            	JMP _label323b2
  6374                          _label323:
  6375  2f87  3eff              	LD A, $ff
  6376  2f89  325a00            	LD (_printPointer_Ttmp289), A
  6377                          _label323b2:
  6378  2f8c  3a5a00            	LD A, (_printPointer_Ttmp289)
  6379                          ; peephole(1): r319 (XOR $FF)->(CPL)
  6380                          ;	XOR $FF
  6381  2f8f  2f                	CPL
  6382  2f90  325a00            	LD (_printPointer_Ttmp289), A
  6383  2f93  3a5a00            	LD A, (_printPointer_Ttmp289)
  6384  2f96  fe00              	CP 0
  6385  2f98  c29e2f            	JP NZ, _label324
  6386  2f9b  c3a12f            	JMP _label324b2
  6387                          _label324:
  6388  2f9e  c3a42f            	JMP _label321scroll
  6389                          _label324b2:
  6390  2fa1  c3b62f            	jp _label321end
  6391                          _label321scroll:
  6392  2fa4  3ef8              	LD A, $f8
  6393  2fa6  cd0d28            	CALL VSCROLL
  6394  2fa9  3a1b71            	LD A, (CURRENTTILESHEIGHT)
  6395  2fac  320e71            	LD (YCURSYS), A
  6396  2faf  3a0e71            	LD A, (YCURSYS)
  6397  2fb2  3d                	DEC A
  6398  2fb3  320e71            	LD (YCURSYS), A
  6399                          _label321end:
  6400                          	; P:49
  6401                          	; L:106
  6402  2fb6  c9                	RET
  6403                          printPointerafter:
  6404                          	; P:2
  6405                          	; L:107
  6406                          	; P:0
  6407                          	; L:108
  6408  2fb7  c32832            	jp printOptionsafter
  6409                          printOptions:
  6410                          	; P:2
  6411                          	; L:109
  6412                          	; P:0
  6413                          	; L:110
  6414                          	; P:0
  6415                          	; L:111
  6416  2fba  3e01              	LD A, $01
  6417  2fbc  326100            	LD (_printOptions_Ttmp325), A
  6418  2fbf  3e08              	LD A, $08
  6419  2fc1  326200            	LD (_printOptions_Ttmp326), A
  6420  2fc4  3e00              	LD A, $00
  6421  2fc6  326300            	LD (_printOptions_Ttmp326+1), A
  6422                          	; _TRtmp327 <-> (step 1) (resident)
  6423                          	; _TRtmp328 <-> (resident to) (resident)
  6424  2fc9  3a6200            	LD A, (_printOptions_Ttmp326)
  6425  2fcc  326c01            	LD (_TRtmp328), A
  6426  2fcf  3a6300            	LD A, (_printOptions_Ttmp326+1)
  6427  2fd2  326d01            	LD (_TRtmp328+1), A
  6428  2fd5  3e01              	LD A, $01
  6429  2fd7  326a01            	LD (_TRtmp327), A
  6430  2fda  3e00              	LD A, $00
  6431  2fdc  326b01            	LD (_TRtmp327+1), A
  6432                          ; peephole(1): r250 (LD A, x; LD (x), A; LD A, x)->(LD A, x; LD (x), A)
  6433                          ;	LD A, $00
  6434  2fdf  328b72            	LD (_printOptions_c), A
  6435  2fe2  3e00              	LD A, $00
  6436  2fe4  328c72            	LD (_printOptions_c+1), A
  6437  2fe7  3a6100            	LD A, (_printOptions_Ttmp325)
  6438  2fea  328b72            	LD (_printOptions_c), A
  6439                          _label330bf:
  6440  2fed  3a6d01            	LD A, (_TRtmp328+1)
  6441  2ff0  47                	LD B, A
  6442  2ff1  3a8c72            	LD A, (_printOptions_c+1)
  6443  2ff4  b8                	CP B
  6444  2ff5  2804              	JR Z, _label336l2
  6445  2ff7  3815              	JR C, _label336
  6446  2ff9  180c              	JR _label336_0
  6447                          _label336l2:
  6448  2ffb  3a6c01            	LD A, (_TRtmp328)
  6449  2ffe  47                	LD B, A
  6450  2fff  3a8b72            	LD A, (_printOptions_c)
  6451  3002  b8                	CP B
  6452  3003  3809              	JR C, _label336
  6453  3005  2807              	JR Z, _label336
  6454                          _label336_0:
  6455                          ; peephole(1): r228 (LD A, 0)->(XOR A)
  6456                          ;	LD A, 0
  6457  3007  af                	XOR A
  6458  3008  326600            	LD (_printOptions_Ttmp335), A
  6459  300b  c31330            	JMP _label336b2
  6460                          _label336:
  6461  300e  3eff              	LD A, $ff
  6462  3010  326600            	LD (_printOptions_Ttmp335), A
  6463                          _label336b2:
  6464  3013  3a6600            	LD A, (_printOptions_Ttmp335)
  6465                          ; peephole(1): r319 (XOR $FF)->(CPL)
  6466                          ;	XOR $FF
  6467  3016  2f                	CPL
  6468  3017  326600            	LD (_printOptions_Ttmp335), A
  6469  301a  3a6600            	LD A, (_printOptions_Ttmp335)
  6470  301d  fe00              	CP 0
  6471  301f  c22530            	JP NZ, _label337
  6472  3022  c32830            	JMP _label337b2
  6473                          _label337:
  6474  3025  c32732            	JMP _label330bis
  6475                          _label337b2:
  6476                          	; P:53
  6477                          	; L:112
  6478  3028  3a8b72            	LD A, (_printOptions_c)
  6479  302b  326100            	LD (_printOptions_Ttmp325), A
  6480  302e  214871            	LD HL, _availableoptions
  6481  3031  3a6100            	LD A, (_printOptions_Ttmp325)
  6482  3034  5f                	LD E, A
  6483                          ; peephole(1): r228 (LD A, 0)->(XOR A)
  6484                          ;	LD A, 0
  6485  3035  af                	XOR A
  6486  3036  57                	LD D, A
  6487  3037  19                	ADD HL, DE
  6488  3038  19                	ADD HL, DE
  6489  3039  7e                	LD A, (HL)
  6490  303a  326200            	LD (_printOptions_Ttmp326), A
  6491  303d  23                	INC HL
  6492  303e  7e                	LD A, (HL)
  6493  303f  326300            	LD (_printOptions_Ttmp326+1), A
  6494  3042  3e01              	LD A, $01
  6495  3044  326400            	LD (_printOptions_Ttmp331), A
  6496  3047  3a6200            	LD A, (_printOptions_Ttmp326)
  6497  304a  47                	LD B, A
  6498  304b  3a6400            	LD A, (_printOptions_Ttmp331)
  6499  304e  b8                	CP B
  6500  304f  c25a30            	JP NZ, _label340
  6501  3052  3eff              	LD A, $ff
  6502  3054  326600            	LD (_printOptions_Ttmp335), A
  6503  3057  c35f30            	JMP _label340b2
  6504                          _label340:
  6505  305a  3e00              	LD A, $00
  6506  305c  326600            	LD (_printOptions_Ttmp335), A
  6507                          _label340b2:
  6508  305f  3a6600            	LD A, (_printOptions_Ttmp335)
  6509  3062  fe00              	CP 0
  6510  3064  ca6a30            	JP Z, _label342
  6511  3067  c36d30            	JMP _label342b2
  6512                          _label342:
  6513  306a  c30932            	JMP _label341e0
  6514                          _label342b2:
  6515                          _label341t:
  6516                          	; P:36
  6517                          	; L:113
  6518  306d  3e01              	LD A, $01
  6519  306f  326100            	LD (_printOptions_Ttmp325), A
  6520  3072  3e03              	LD A, $03
  6521  3074  326200            	LD (_printOptions_Ttmp326), A
  6522  3077  3e00              	LD A, $00
  6523  3079  326300            	LD (_printOptions_Ttmp326+1), A
  6524  307c  2a6200            	LD HL, (_printOptions_Ttmp326)
  6525  307f  ed5b8b72          	LD DE, (_printOptions_c)
  6526  3083  19                	ADD HL, DE
  6527  3084  226700            	LD (_printOptions_Ttmp343), HL
  6528                          	 ; variable_move_8bit_8bit
  6529                          	 ; 8 BIT (unsigned) -> 8 BIT (unsigned)
  6530  3087  3a6100            	LD A, (_printOptions_Ttmp325)
  6531  308a  320d71            	LD (XCURSYS), A
  6532  308d  3a6800            	LD A, (_printOptions_Ttmp343+1)
  6533  3090  e680              	AND $80
  6534  3092  fe00              	CP 0
  6535  3094  2808              	JR Z,_label347
  6536  3096  3eff              	LD A, $FF
  6537  3098  326500            	LD (_printOptions_Ttmp332), A
  6538  309b  c3a330            	JMP _label347done
  6539                          _label347:
  6540  309e  3e00              	LD A, $0
  6541  30a0  326500            	LD (_printOptions_Ttmp332), A
  6542                          _label347done:
  6543  30a3  3a6500            	LD A, (_printOptions_Ttmp332)
  6544  30a6  fe00              	CP 0
  6545  30a8  caae30            	JP Z, _label348
  6546  30ab  c3b130            	JMP _label348b2
  6547                          _label348:
  6548  30ae  c3e530            	JMP _label346
  6549                          _label348b2:
  6550  30b1  3a6700            	LD A, (_printOptions_Ttmp343)
  6551                          ; peephole(1): r319 (XOR $FF)->(CPL)
  6552                          ;	XOR $FF
  6553  30b4  2f                	CPL
  6554  30b5  326a00            	LD (_printOptions_Ttmp345), A
  6555  30b8  3a6800            	LD A, (_printOptions_Ttmp343+1)
  6556                          ; peephole(1): r319 (XOR $FF)->(CPL)
  6557                          ;	XOR $FF
  6558  30bb  2f                	CPL
  6559  30bc  326b00            	LD (_printOptions_Ttmp345+1), A
  6560  30bf  2a6a00            	LD HL, (_printOptions_Ttmp345)
  6561  30c2  23                	INC HL
  6562  30c3  226a00            	LD (_printOptions_Ttmp345), HL
  6563  30c6  3a6a00            	LD A, (_printOptions_Ttmp345)
  6564  30c9  326900            	LD (_printOptions_Ttmp344), A
  6565  30cc  3a6900            	LD A, (_printOptions_Ttmp344)
  6566  30cf  e67f              	AND $7f
  6567  30d1  326900            	LD (_printOptions_Ttmp344), A
  6568  30d4  3a6900            	LD A, (_printOptions_Ttmp344)
  6569                          ; peephole(1): r319 (XOR $FF)->(CPL)
  6570                          ;	XOR $FF
  6571  30d7  2f                	CPL
  6572  30d8  326900            	LD (_printOptions_Ttmp344), A
  6573  30db  3a6900            	LD A, (_printOptions_Ttmp344)
  6574  30de  3c                	INC A
  6575  30df  326900            	LD (_printOptions_Ttmp344), A
  6576  30e2  c3f330            	jp _label346done
  6577                          _label346:
  6578  30e5  3a6700            	LD A, (_printOptions_Ttmp343)
  6579  30e8  326900            	LD (_printOptions_Ttmp344), A
  6580  30eb  3a6900            	LD A, (_printOptions_Ttmp344)
  6581  30ee  e67f              	AND $7f
  6582  30f0  326900            	LD (_printOptions_Ttmp344), A
  6583                          _label346done:
  6584                          	 ; variable_move_8bit_8bit
  6585                          	 ; 8 BIT (signed) -> 8 BIT (unsigned)
  6586  30f3  3a6900            	LD A, (_printOptions_Ttmp344)
  6587  30f6  320e71            	LD (YCURSYS), A
  6588  30f9  3a0e71            	LD A, (YCURSYS)
  6589  30fc  e680              	AND $80
  6590  30fe  fe00              	CP 0
  6591  3100  2805              	JR Z,_label352
  6592  3102  3eff              	LD A, $FF
  6593                          ; peephole(3): unread
  6594                          ;	LD (_printOptions_Ttmp351), A
  6595  3104  c30931            	JMP _label352done
  6596                          _label352:
  6597  3107  3e00              	LD A, $0
  6598                          ; peephole(3): unread
  6599                          ;	LD (_printOptions_Ttmp351), A
  6600                          _label352done:
  6601  3109  ca0f31            	JP Z, _label353
  6602  310c  c31231            	JMP _label353b2
  6603                          _label353:
  6604  310f  c32031            	JMP _label350
  6605                          _label353b2:
  6606  3112  3a0e71            	LD A, (YCURSYS)
  6607                          ; peephole(1): r319 (XOR $FF)->(CPL)
  6608                          ;	XOR $FF
  6609  3115  2f                	CPL
  6610  3116  320e71            	LD (YCURSYS), A
  6611  3119  3a0e71            	LD A, (YCURSYS)
  6612  311c  3c                	INC A
  6613  311d  320e71            	LD (YCURSYS), A
  6614                          _label350:
  6615                          	; P:83
  6616                          	; L:114
  6617  3120  3e00              	LD A, $00
  6618  3122  326d00            	LD (_printOptions_Ttmp356), A
  6619                          ; peephole(1): r250 (LD A, x; LD (x), A; LD A, x)->(LD A, x; LD (x), A)
  6620                          ;	LD A, $00
  6621  3125  326e00            	LD (_printOptions_Ttmp356+1), A
  6622  3128  2a6d00            	LD HL, (_printOptions_Ttmp356)
  6623  312b  ed5b8b72          	LD DE, (_printOptions_c)
  6624  312f  19                	ADD HL, DE
  6625  3130  226d00            	LD (_printOptions_Ttmp356), HL
  6626  3133  e600              	AND $0
  6627  3135  2a6d00            	LD HL, (_printOptions_Ttmp356)
  6628  3138  115871            	LD DE, _options
  6629  313b  19                	ADD HL, DE
  6630  313c  226d00            	LD (_printOptions_Ttmp356), HL
  6631  313f  ed5b6d00          	LD DE, (_printOptions_Ttmp356)
  6632  3143  1a                	LD A, (DE)
  6633  3144  326f00            	LD (_printOptions_Ttmp357), A
  6634  3147  3a6f00            	LD A, (_printOptions_Ttmp357)
  6635  314a  47                	LD B, A
  6636  314b  cdaa02            	CALL DSDESCRIPTOR
  6637  314e  dd7e00            	LD A, (IX)
  6638  3151  326100            	LD (_printOptions_Ttmp325), A
  6639  3154  dd7e01            	LD A, (IX+1)
  6640  3157  327000            	LD (_printOptions_Ttmp358), A
  6641  315a  dd7e02            	LD A, (IX+2)
  6642  315d  327100            	LD (_printOptions_Ttmp358+1), A
  6643  3160  3a6c00            	LD A, (_printOptions_Ttmp355)
  6644  3163  47                	LD B, A
  6645  3164  cd6501            	CALL DSFREE
  6646  3167  3a6100            	LD A, (_printOptions_Ttmp325)
  6647  316a  4f                	LD C, A
  6648  316b  cd4e01            	CALL DSALLOC
  6649  316e  78                	LD A, B
  6650  316f  326c00            	LD (_printOptions_Ttmp355), A
  6651  3172  3a6c00            	LD A, (_printOptions_Ttmp355)
  6652  3175  47                	LD B, A
  6653  3176  cdaa02            	CALL DSDESCRIPTOR
  6654  3179  dd7e00            	LD A, (IX)
  6655                          ; peephole(3): unread
  6656                          ;	LD (_printOptions_Ttmp329), A
  6657  317c  dd7e01            	LD A, (IX+1)
  6658  317f  327200            	LD (_printOptions_Ttmp359), A
  6659  3182  dd7e02            	LD A, (IX+2)
  6660  3185  327300            	LD (_printOptions_Ttmp359+1), A
  6661  3188  2a7000            	LD HL, (_printOptions_Ttmp358)
  6662  318b  ed5b7200          	LD DE, (_printOptions_Ttmp359)
  6663  318f  3a6100            	LD A, (_printOptions_Ttmp325)
  6664  3192  4f                	LD C, A
  6665  3193  0600              	LD B, 0
  6666  3195  cdee02            	CALL DUFFDEVICE
  6667  3198  3a6c00            	LD A, (_printOptions_Ttmp355)
  6668  319b  47                	LD B, A
  6669  319c  cdaa02            	CALL DSDESCRIPTOR
  6670  319f  dd7e00            	LD A, (IX)
  6671  31a2  326400            	LD (_printOptions_Ttmp331), A
  6672  31a5  dd7e01            	LD A, (IX+1)
  6673  31a8  327400            	LD (_printOptions_Ttmp361), A
  6674  31ab  dd7e02            	LD A, (IX+2)
  6675  31ae  327500            	LD (_printOptions_Ttmp361+1), A
  6676  31b1  3a6400            	LD A, (_printOptions_Ttmp331)
  6677  31b4  4f                	LD C, A
  6678  31b5  0600              	LD B, 0
  6679  31b7  2a7400            	LD HL, (_printOptions_Ttmp361)
  6680  31ba  cda62c            	CALL TEXTAT
  6681  31bd  3e00              	LD A, $00
  6682  31bf  320d71            	LD (XCURSYS), A
  6683  31c2  3a0e71            	LD A, (YCURSYS)
  6684  31c5  3c                	INC A
  6685  31c6  320e71            	LD (YCURSYS), A
  6686  31c9  3a1b71            	LD A, (CURRENTTILESHEIGHT)
  6687  31cc  47                	LD B, A
  6688  31cd  3a0e71            	LD A, (YCURSYS)
  6689  31d0  b8                	CP B
  6690  31d1  3807              	JR C, _label364
  6691                          ; peephole(1): r228 (LD A, 0)->(XOR A)
  6692                          ;	LD A, 0
  6693  31d3  af                	XOR A
  6694  31d4  326900            	LD (_printOptions_Ttmp344), A
  6695  31d7  c3df31            	JMP _label364b2
  6696                          _label364:
  6697  31da  3eff              	LD A, $ff
  6698  31dc  326900            	LD (_printOptions_Ttmp344), A
  6699                          _label364b2:
  6700  31df  3a6900            	LD A, (_printOptions_Ttmp344)
  6701                          ; peephole(1): r319 (XOR $FF)->(CPL)
  6702                          ;	XOR $FF
  6703  31e2  2f                	CPL
  6704  31e3  326900            	LD (_printOptions_Ttmp344), A
  6705  31e6  3a6900            	LD A, (_printOptions_Ttmp344)
  6706  31e9  fe00              	CP 0
  6707  31eb  c2f131            	JP NZ, _label365
  6708  31ee  c3f431            	JMP _label365b2
  6709                          _label365:
  6710  31f1  c3f731            	JMP _label362scroll
  6711                          _label365b2:
  6712  31f4  c30932            	jp _label362end
  6713                          _label362scroll:
  6714  31f7  3ef8              	LD A, $f8
  6715  31f9  cd0d28            	CALL VSCROLL
  6716  31fc  3a1b71            	LD A, (CURRENTTILESHEIGHT)
  6717  31ff  320e71            	LD (YCURSYS), A
  6718  3202  3a0e71            	LD A, (YCURSYS)
  6719  3205  3d                	DEC A
  6720  3206  320e71            	LD (YCURSYS), A
  6721                          _label362end:
  6722                          	; P:99
  6723                          	; L:115
  6724                          _label341f:
  6725                          _label341e0:
  6726                          	; P:2
  6727                          	; L:116
  6728  3209  2a8b72            	LD HL, (_printOptions_c)
  6729  320c  ed5b6a01          	LD DE, (_TRtmp327)
  6730  3210  19                	ADD HL, DE
  6731  3211  228b72            	LD (_printOptions_c), HL
  6732  3214  3a8c72            	LD A, (_printOptions_c+1)
  6733  3217  fe00              	CP $00
  6734  3219  c22432            	JP NZ, _label367
  6735  321c  3a8b72            	LD A, (_printOptions_c)
  6736  321f  fe00              	CP $00
  6737  3221  ca2732            	JP Z, _label330bis
  6738                          _label367:
  6739  3224  c3ed2f            	jp _label330bf
  6740                          _label330bis:
  6741                          	; P:13
  6742                          	; L:117
  6743                          	; P:0
  6744                          	; L:118
  6745  3227  c9                	RET
  6746                          printOptionsafter:
  6747                          	; P:2
  6748                          	; L:119
  6749                          	; P:0
  6750                          	; L:120
  6751  3228  c38833            	jp resetOptionsafter
  6752                          resetOptions:
  6753                          	; P:2
  6754                          	; L:121
  6755  322b  3e01              	LD A, $01
  6756  322d  327600            	LD (_resetOptions_Ttmp368), A
  6757  3230  3e08              	LD A, $08
  6758  3232  327700            	LD (_resetOptions_Ttmp369), A
  6759  3235  3e00              	LD A, $00
  6760  3237  327800            	LD (_resetOptions_Ttmp369+1), A
  6761                          	; _TRtmp370 <-> (step 1) (resident)
  6762                          	; _TRtmp371 <-> (resident to) (resident)
  6763  323a  3a7700            	LD A, (_resetOptions_Ttmp369)
  6764  323d  327001            	LD (_TRtmp371), A
  6765  3240  3a7800            	LD A, (_resetOptions_Ttmp369+1)
  6766  3243  327101            	LD (_TRtmp371+1), A
  6767  3246  3e01              	LD A, $01
  6768  3248  326e01            	LD (_TRtmp370), A
  6769  324b  3e00              	LD A, $00
  6770  324d  326f01            	LD (_TRtmp370+1), A
  6771                          ; peephole(1): r250 (LD A, x; LD (x), A; LD A, x)->(LD A, x; LD (x), A)
  6772                          ;	LD A, $00
  6773  3250  328d72            	LD (_resetOptions_c), A
  6774  3253  3e00              	LD A, $00
  6775  3255  328e72            	LD (_resetOptions_c+1), A
  6776  3258  3a7600            	LD A, (_resetOptions_Ttmp368)
  6777  325b  328d72            	LD (_resetOptions_c), A
  6778                          _label373bf:
  6779  325e  3a7101            	LD A, (_TRtmp371+1)
  6780  3261  47                	LD B, A
  6781  3262  3a8e72            	LD A, (_resetOptions_c+1)
  6782  3265  b8                	CP B
  6783  3266  2804              	JR Z, _label379l2
  6784  3268  3815              	JR C, _label379
  6785  326a  180c              	JR _label379_0
  6786                          _label379l2:
  6787  326c  3a7001            	LD A, (_TRtmp371)
  6788  326f  47                	LD B, A
  6789  3270  3a8d72            	LD A, (_resetOptions_c)
  6790  3273  b8                	CP B
  6791  3274  3809              	JR C, _label379
  6792  3276  2807              	JR Z, _label379
  6793                          _label379_0:
  6794                          ; peephole(1): r228 (LD A, 0)->(XOR A)
  6795                          ;	LD A, 0
  6796  3278  af                	XOR A
  6797  3279  327900            	LD (_resetOptions_Ttmp378), A
  6798  327c  c38432            	JMP _label379b2
  6799                          _label379:
  6800  327f  3eff              	LD A, $ff
  6801  3281  327900            	LD (_resetOptions_Ttmp378), A
  6802                          _label379b2:
  6803  3284  3a7900            	LD A, (_resetOptions_Ttmp378)
  6804                          ; peephole(1): r319 (XOR $FF)->(CPL)
  6805                          ;	XOR $FF
  6806  3287  2f                	CPL
  6807  3288  327900            	LD (_resetOptions_Ttmp378), A
  6808  328b  3a7900            	LD A, (_resetOptions_Ttmp378)
  6809  328e  fe00              	CP 0
  6810  3290  c29632            	JP NZ, _label380
  6811  3293  c39932            	JMP _label380b2
  6812                          _label380:
  6813  3296  c38733            	JMP _label373bis
  6814                          _label380b2:
  6815                          	; P:53
  6816                          	; L:122
  6817  3299  3e00              	LD A, $00
  6818  329b  327600            	LD (_resetOptions_Ttmp368), A
  6819                          ; peephole(1): r250 (LD A, x; LD (x), A; LD A, x)->(LD A, x; LD (x), A)
  6820                          ;	LD A, $00
  6821  329e  327700            	LD (_resetOptions_Ttmp369), A
  6822  32a1  3e00              	LD A, $00
  6823  32a3  327800            	LD (_resetOptions_Ttmp369+1), A
  6824  32a6  3a7600            	LD A, (_resetOptions_Ttmp368)
  6825  32a9  327700            	LD (_resetOptions_Ttmp369), A
  6826  32ac  3e00              	LD A, $00
  6827  32ae  327c00            	LD (_resetOptions_Ttmp385), A
  6828                          ; peephole(1): r250 (LD A, x; LD (x), A; LD A, x)->(LD A, x; LD (x), A)
  6829                          ;	LD A, $00
  6830  32b1  327d00            	LD (_resetOptions_Ttmp385+1), A
  6831  32b4  2a7c00            	LD HL, (_resetOptions_Ttmp385)
  6832  32b7  ed5b8d72          	LD DE, (_resetOptions_c)
  6833  32bb  19                	ADD HL, DE
  6834  32bc  227c00            	LD (_resetOptions_Ttmp385), HL
  6835  32bf  3a7c00            	LD A, (_resetOptions_Ttmp385)
  6836  32c2  327e00            	LD (_resetOptions_Ttmp386), A
  6837  32c5  3a7d00            	LD A, (_resetOptions_Ttmp385+1)
  6838  32c8  327f00            	LD (_resetOptions_Ttmp386+1), A
  6839  32cb  2a7e00            	LD HL, (_resetOptions_Ttmp386)
  6840                          ; peephole(1): r349 (SLA+RL)->(ADD)
  6841                          ;	SLA L
  6842  32ce  29                	ADD HL, HL
  6843                          ;	RL H
  6844  32cf  227e00            	LD (_resetOptions_Ttmp386), HL
  6845  32d2  e600              	AND $0
  6846  32d4  2a7e00            	LD HL, (_resetOptions_Ttmp386)
  6847  32d7  114871            	LD DE, _availableoptions
  6848  32da  19                	ADD HL, DE
  6849  32db  227e00            	LD (_resetOptions_Ttmp386), HL
  6850  32de  ed5b7e00          	LD DE, (_resetOptions_Ttmp386)
  6851  32e2  2a7700            	LD HL, (_resetOptions_Ttmp369)
  6852  32e5  7d                	LD A, L
  6853  32e6  12                	LD (DE), A
  6854  32e7  13                	INC DE
  6855  32e8  7c                	LD A, H
  6856  32e9  12                	LD (DE), A
  6857                          	; P:36
  6858                          	; L:123
  6859  32ea  3e00              	LD A, $00
  6860  32ec  327a00            	LD (_resetOptions_Ttmp384), A
  6861                          ; peephole(1): r250 (LD A, x; LD (x), A; LD A, x)->(LD A, x; LD (x), A)
  6862                          ;	LD A, $00
  6863  32ef  327b00            	LD (_resetOptions_Ttmp384+1), A
  6864  32f2  2a7a00            	LD HL, (_resetOptions_Ttmp384)
  6865  32f5  ed5b8d72          	LD DE, (_resetOptions_c)
  6866  32f9  19                	ADD HL, DE
  6867  32fa  227a00            	LD (_resetOptions_Ttmp384), HL
  6868  32fd  e600              	AND $0
  6869  32ff  2a7a00            	LD HL, (_resetOptions_Ttmp384)
  6870  3302  115871            	LD DE, _options
  6871  3305  19                	ADD HL, DE
  6872  3306  227a00            	LD (_resetOptions_Ttmp384), HL
  6873  3309  ed5b7a00          	LD DE, (_resetOptions_Ttmp384)
  6874  330d  1a                	LD A, (DE)
  6875  330e  328000            	LD (_resetOptions_Ttmp389), A
  6876  3311  3a0000            	LD A, (_resetOptions_Tstr388)
  6877  3314  327600            	LD (_resetOptions_Ttmp368), A
  6878  3317  210000            	LD HL, _resetOptions_Tstr388
  6879  331a  228100            	LD (_resetOptions_Ttmp390), HL
  6880  331d  2a8100            	LD HL, (_resetOptions_Ttmp390)
  6881  3320  23                	INC HL
  6882  3321  228100            	LD (_resetOptions_Ttmp390), HL
  6883  3324  3a8000            	LD A, (_resetOptions_Ttmp389)
  6884  3327  47                	LD B, A
  6885  3328  cd6501            	CALL DSFREE
  6886  332b  3a7600            	LD A, (_resetOptions_Ttmp368)
  6887  332e  4f                	LD C, A
  6888  332f  cd4e01            	CALL DSALLOC
  6889  3332  78                	LD A, B
  6890  3333  328000            	LD (_resetOptions_Ttmp389), A
  6891  3336  3a8000            	LD A, (_resetOptions_Ttmp389)
  6892  3339  47                	LD B, A
  6893  333a  cdaa02            	CALL DSDESCRIPTOR
  6894  333d  dd7e00            	LD A, (IX)
  6895                          ; peephole(3): unread
  6896                          ;	LD (_resetOptions_Ttmp372), A
  6897  3340  dd7e01            	LD A, (IX+1)
  6898  3343  328300            	LD (_resetOptions_Ttmp391), A
  6899  3346  dd7e02            	LD A, (IX+2)
  6900  3349  328400            	LD (_resetOptions_Ttmp391+1), A
  6901  334c  2a8100            	LD HL, (_resetOptions_Ttmp390)
  6902  334f  ed5b8300          	LD DE, (_resetOptions_Ttmp391)
  6903  3353  3a7600            	LD A, (_resetOptions_Ttmp368)
  6904  3356  4f                	LD C, A
  6905  3357  0600              	LD B, 0
  6906  3359  cdee02            	CALL DUFFDEVICE
  6907  335c  ed5b7a00          	LD DE, (_resetOptions_Ttmp384)
  6908  3360  3a8000            	LD A, (_resetOptions_Ttmp389)
  6909  3363  12                	LD (DE), A
  6910  3364  3e00              	LD A, $00
  6911  3366  328000            	LD (_resetOptions_Ttmp389), A
  6912                          	; P:51
  6913                          	; L:124
  6914  3369  2a8d72            	LD HL, (_resetOptions_c)
  6915  336c  ed5b6e01          	LD DE, (_TRtmp370)
  6916  3370  19                	ADD HL, DE
  6917  3371  228d72            	LD (_resetOptions_c), HL
  6918  3374  3a8e72            	LD A, (_resetOptions_c+1)
  6919  3377  fe00              	CP $00
  6920  3379  c28433            	JP NZ, _label393
  6921  337c  3a8d72            	LD A, (_resetOptions_c)
  6922  337f  fe00              	CP $00
  6923  3381  ca8733            	JP Z, _label373bis
  6924                          _label393:
  6925  3384  c35e32            	jp _label373bf
  6926                          _label373bis:
  6927                          	; P:13
  6928                          	; L:125
  6929  3387  c9                	RET
  6930                          resetOptionsafter:
  6931                          	; P:2
  6932                          	; L:126
  6933                          	; P:0
  6934                          	; L:127
  6935                          	; P:0
  6936                          	; L:128
  6937  3388  c32635            	jp optionsdownafter
  6938                          optionsdown:
  6939                          	; P:2
  6940                          	; L:129
  6941  338b  3e01              	LD A, $01
  6942  338d  328500            	LD (_optionsdown_Ttmp394), A
  6943  3390  3e08              	LD A, $08
  6944  3392  328600            	LD (_optionsdown_Ttmp395), A
  6945  3395  3e00              	LD A, $00
  6946  3397  328700            	LD (_optionsdown_Ttmp395+1), A
  6947                          	; _TRtmp396 <-> (step 1) (resident)
  6948                          	; _TRtmp397 <-> (resident to) (resident)
  6949  339a  3a8600            	LD A, (_optionsdown_Ttmp395)
  6950  339d  327401            	LD (_TRtmp397), A
  6951  33a0  3a8700            	LD A, (_optionsdown_Ttmp395+1)
  6952  33a3  327501            	LD (_TRtmp397+1), A
  6953  33a6  3e01              	LD A, $01
  6954  33a8  327201            	LD (_TRtmp396), A
  6955  33ab  3e00              	LD A, $00
  6956  33ad  327301            	LD (_TRtmp396+1), A
  6957                          ; peephole(1): r250 (LD A, x; LD (x), A; LD A, x)->(LD A, x; LD (x), A)
  6958                          ;	LD A, $00
  6959  33b0  328f72            	LD (_optionsdown_c), A
  6960  33b3  3e00              	LD A, $00
  6961  33b5  329072            	LD (_optionsdown_c+1), A
  6962  33b8  3a8500            	LD A, (_optionsdown_Ttmp394)
  6963  33bb  328f72            	LD (_optionsdown_c), A
  6964                          _label399bf:
  6965  33be  3a7501            	LD A, (_TRtmp397+1)
  6966  33c1  47                	LD B, A
  6967  33c2  3a9072            	LD A, (_optionsdown_c+1)
  6968  33c5  b8                	CP B
  6969  33c6  2804              	JR Z, _label405l2
  6970  33c8  3815              	JR C, _label405
  6971  33ca  180c              	JR _label405_0
  6972                          _label405l2:
  6973  33cc  3a7401            	LD A, (_TRtmp397)
  6974  33cf  47                	LD B, A
  6975  33d0  3a8f72            	LD A, (_optionsdown_c)
  6976  33d3  b8                	CP B
  6977  33d4  3809              	JR C, _label405
  6978  33d6  2807              	JR Z, _label405
  6979                          _label405_0:
  6980                          ; peephole(1): r228 (LD A, 0)->(XOR A)
  6981                          ;	LD A, 0
  6982  33d8  af                	XOR A
  6983  33d9  328900            	LD (_optionsdown_Ttmp404), A
  6984  33dc  c3e433            	JMP _label405b2
  6985                          _label405:
  6986  33df  3eff              	LD A, $ff
  6987  33e1  328900            	LD (_optionsdown_Ttmp404), A
  6988                          _label405b2:
  6989  33e4  3a8900            	LD A, (_optionsdown_Ttmp404)
  6990                          ; peephole(1): r319 (XOR $FF)->(CPL)
  6991                          ;	XOR $FF
  6992  33e7  2f                	CPL
  6993  33e8  328900            	LD (_optionsdown_Ttmp404), A
  6994  33eb  3a8900            	LD A, (_optionsdown_Ttmp404)
  6995  33ee  fe00              	CP 0
  6996  33f0  c2f633            	JP NZ, _label406
  6997  33f3  c3f933            	JMP _label406b2
  6998                          _label406:
  6999  33f6  c32535            	JMP _label399bis
  7000                          _label406b2:
  7001                          	; P:53
  7002                          	; L:130
  7003  33f9  3e01              	LD A, $01
  7004  33fb  328500            	LD (_optionsdown_Ttmp394), A
  7005  33fe  3e00              	LD A, $00
  7006  3400  328600            	LD (_optionsdown_Ttmp395), A
  7007                          ; peephole(1): r250 (LD A, x; LD (x), A; LD A, x)->(LD A, x; LD (x), A)
  7008                          ;	LD A, $00
  7009  3403  328700            	LD (_optionsdown_Ttmp395+1), A
  7010  3406  3a8500            	LD A, (_optionsdown_Ttmp394)
  7011  3409  328600            	LD (_optionsdown_Ttmp395), A
  7012  340c  2a8772            	LD HL, (_optionspointer)
  7013  340f  ed5b8600          	LD DE, (_optionsdown_Ttmp395)
  7014  3413  19                	ADD HL, DE
  7015  3414  228a00            	LD (_optionsdown_Ttmp408), HL
  7016  3417  3a8a00            	LD A, (_optionsdown_Ttmp408)
  7017  341a  328c00            	LD (_optionsdown_Ttmp409), A
  7018  341d  3a8b00            	LD A, (_optionsdown_Ttmp408+1)
  7019  3420  328d00            	LD (_optionsdown_Ttmp409+1), A
  7020  3423  3a8d00            	LD A, (_optionsdown_Ttmp409+1)
  7021  3426  e680              	AND $80
  7022  3428  fe00              	CP 0
  7023  342a  2805              	JR Z,_label412
  7024  342c  3eff              	LD A, $FF
  7025                          ; peephole(3): unread
  7026                          ;	LD (_optionsdown_Ttmp411), A
  7027  342e  c33334            	JMP _label412done
  7028                          _label412:
  7029  3431  3e00              	LD A, $0
  7030                          ; peephole(3): unread
  7031                          ;	LD (_optionsdown_Ttmp411), A
  7032                          _label412done:
  7033  3433  ca3934            	JP Z, _label413
  7034  3436  c33c34            	JMP _label413b2
  7035                          _label413:
  7036  3439  c35134            	JMP _label410
  7037                          _label413b2:
  7038  343c  3a8c00            	LD A, (_optionsdown_Ttmp409)
  7039                          ; peephole(1): r319 (XOR $FF)->(CPL)
  7040                          ;	XOR $FF
  7041  343f  2f                	CPL
  7042  3440  328c00            	LD (_optionsdown_Ttmp409), A
  7043  3443  3a8d00            	LD A, (_optionsdown_Ttmp409+1)
  7044                          ; peephole(1): r319 (XOR $FF)->(CPL)
  7045                          ;	XOR $FF
  7046  3446  2f                	CPL
  7047  3447  328d00            	LD (_optionsdown_Ttmp409+1), A
  7048  344a  2a8c00            	LD HL, (_optionsdown_Ttmp409)
  7049  344d  23                	INC HL
  7050  344e  228c00            	LD (_optionsdown_Ttmp409), HL
  7051                          _label410:
  7052  3451  3a8c00            	LD A, (_optionsdown_Ttmp409)
  7053  3454  328772            	LD (_optionspointer), A
  7054  3457  3a8d00            	LD A, (_optionsdown_Ttmp409+1)
  7055  345a  328872            	LD (_optionspointer+1), A
  7056                          	; P:46
  7057                          	; L:131
  7058  345d  3e08              	LD A, $08
  7059  345f  328600            	LD (_optionsdown_Ttmp395), A
  7060  3462  3e00              	LD A, $00
  7061  3464  328700            	LD (_optionsdown_Ttmp395+1), A
  7062  3467  3a8700            	LD A, (_optionsdown_Ttmp395+1)
  7063  346a  47                	LD B, A
  7064  346b  3a8872            	LD A, (_optionspointer+1)
  7065  346e  b8                	CP B
  7066  346f  2804              	JR Z, _label416l2
  7067  3471  3815              	JR C, _label416
  7068  3473  180c              	JR _label416_0
  7069                          _label416l2:
  7070  3475  3a8600            	LD A, (_optionsdown_Ttmp395)
  7071  3478  47                	LD B, A
  7072  3479  3a8772            	LD A, (_optionspointer)
  7073  347c  b8                	CP B
  7074  347d  3809              	JR C, _label416
  7075  347f  2807              	JR Z, _label416
  7076                          _label416_0:
  7077                          ; peephole(1): r228 (LD A, 0)->(XOR A)
  7078                          ;	LD A, 0
  7079  3481  af                	XOR A
  7080  3482  328900            	LD (_optionsdown_Ttmp404), A
  7081  3485  c38d34            	JMP _label416b2
  7082                          _label416:
  7083  3488  3eff              	LD A, $ff
  7084  348a  328900            	LD (_optionsdown_Ttmp404), A
  7085                          _label416b2:
  7086  348d  3a8900            	LD A, (_optionsdown_Ttmp404)
  7087                          ; peephole(1): r319 (XOR $FF)->(CPL)
  7088                          ;	XOR $FF
  7089  3490  2f                	CPL
  7090  3491  328900            	LD (_optionsdown_Ttmp404), A
  7091  3494  3a8900            	LD A, (_optionsdown_Ttmp404)
  7092  3497  fe00              	CP 0
  7093  3499  ca9f34            	JP Z, _label418
  7094  349c  c3a234            	JMP _label418b2
  7095                          _label418:
  7096  349f  c3c134            	JMP _label417e0
  7097                          _label418b2:
  7098                          _label417t:
  7099                          	; P:37
  7100                          	; L:132
  7101  34a2  3e01              	LD A, $01
  7102  34a4  328500            	LD (_optionsdown_Ttmp394), A
  7103  34a7  3e00              	LD A, $00
  7104  34a9  328600            	LD (_optionsdown_Ttmp395), A
  7105                          ; peephole(1): r250 (LD A, x; LD (x), A; LD A, x)->(LD A, x; LD (x), A)
  7106                          ;	LD A, $00
  7107  34ac  328700            	LD (_optionsdown_Ttmp395+1), A
  7108  34af  3a8500            	LD A, (_optionsdown_Ttmp394)
  7109  34b2  328600            	LD (_optionsdown_Ttmp395), A
  7110  34b5  3a8600            	LD A, (_optionsdown_Ttmp395)
  7111  34b8  328772            	LD (_optionspointer), A
  7112  34bb  3a8700            	LD A, (_optionsdown_Ttmp395+1)
  7113  34be  328872            	LD (_optionspointer+1), A
  7114                          	; P:12
  7115                          	; L:133
  7116                          _label417f:
  7117                          _label417e0:
  7118                          	; P:2
  7119                          	; L:134
  7120  34c1  3a8772            	LD A, (_optionspointer)
  7121  34c4  328500            	LD (_optionsdown_Ttmp394), A
  7122  34c7  214871            	LD HL, _availableoptions
  7123  34ca  3a8500            	LD A, (_optionsdown_Ttmp394)
  7124  34cd  5f                	LD E, A
  7125                          ; peephole(1): r228 (LD A, 0)->(XOR A)
  7126                          ;	LD A, 0
  7127  34ce  af                	XOR A
  7128  34cf  57                	LD D, A
  7129  34d0  19                	ADD HL, DE
  7130  34d1  19                	ADD HL, DE
  7131  34d2  7e                	LD A, (HL)
  7132  34d3  328600            	LD (_optionsdown_Ttmp395), A
  7133  34d6  23                	INC HL
  7134  34d7  7e                	LD A, (HL)
  7135  34d8  328700            	LD (_optionsdown_Ttmp395+1), A
  7136  34db  3e01              	LD A, $01
  7137  34dd  328800            	LD (_optionsdown_Ttmp400), A
  7138  34e0  3a8600            	LD A, (_optionsdown_Ttmp395)
  7139  34e3  47                	LD B, A
  7140  34e4  3a8800            	LD A, (_optionsdown_Ttmp400)
  7141  34e7  b8                	CP B
  7142  34e8  c2f334            	JP NZ, _label422
  7143  34eb  3eff              	LD A, $ff
  7144  34ed  328900            	LD (_optionsdown_Ttmp404), A
  7145  34f0  c3f834            	JMP _label422b2
  7146                          _label422:
  7147  34f3  3e00              	LD A, $00
  7148  34f5  328900            	LD (_optionsdown_Ttmp404), A
  7149                          _label422b2:
  7150  34f8  3a8900            	LD A, (_optionsdown_Ttmp404)
  7151  34fb  fe00              	CP 0
  7152  34fd  ca0335            	JP Z, _label424
  7153  3500  c30635            	JMP _label424b2
  7154                          _label424:
  7155  3503  c30735            	JMP _label423e0
  7156                          _label424b2:
  7157                          _label423t:
  7158                          	; P:36
  7159                          	; L:135
  7160  3506  c9                	RET
  7161                          	; P:1
  7162                          	; L:136
  7163                          _label423f:
  7164                          _label423e0:
  7165                          	; P:2
  7166                          	; L:137
  7167  3507  2a8f72            	LD HL, (_optionsdown_c)
  7168  350a  ed5b7201          	LD DE, (_TRtmp396)
  7169  350e  19                	ADD HL, DE
  7170  350f  228f72            	LD (_optionsdown_c), HL
  7171  3512  3a9072            	LD A, (_optionsdown_c+1)
  7172  3515  fe00              	CP $00
  7173  3517  c22235            	JP NZ, _label426
  7174  351a  3a8f72            	LD A, (_optionsdown_c)
  7175  351d  fe00              	CP $00
  7176  351f  ca2535            	JP Z, _label399bis
  7177                          _label426:
  7178  3522  c3be33            	jp _label399bf
  7179                          _label399bis:
  7180                          	; P:13
  7181                          	; L:138
  7182  3525  c9                	RET
  7183                          optionsdownafter:
  7184                          	; P:2
  7185                          	; L:139
  7186                          	; P:0
  7187                          	; L:140
  7188  3526  c38b36            	jp optionsupafter
  7189                          optionsup:
  7190                          	; P:2
  7191                          	; L:141
  7192  3529  3e00              	LD A, $00
  7193  352b  328e00            	LD (_optionsup_Ttmp427), A
  7194                          	 ; variable_move_8bit_8bit
  7195                          	 ; 8 BIT (unsigned) -> 8 BIT (unsigned)
  7196  352e  3a8e00            	LD A, (_optionsup_Ttmp427)
  7197                          ; peephole(3): unread
  7198                          ;	LD (_optionsup_done), A
  7199                          	; P:4
  7200                          	; L:142
  7201  3531  3e01              	LD A, $01
  7202  3533  328e00            	LD (_optionsup_Ttmp427), A
  7203  3536  3e08              	LD A, $08
  7204  3538  328f00            	LD (_optionsup_Ttmp429), A
  7205  353b  3e00              	LD A, $00
  7206  353d  329000            	LD (_optionsup_Ttmp429+1), A
  7207                          	; _TRtmp430 <-> (step 1) (resident)
  7208                          	; _TRtmp431 <-> (resident to) (resident)
  7209  3540  3a8f00            	LD A, (_optionsup_Ttmp429)
  7210  3543  327801            	LD (_TRtmp431), A
  7211  3546  3a9000            	LD A, (_optionsup_Ttmp429+1)
  7212  3549  327901            	LD (_TRtmp431+1), A
  7213  354c  3e01              	LD A, $01
  7214  354e  327601            	LD (_TRtmp430), A
  7215  3551  3e00              	LD A, $00
  7216  3553  327701            	LD (_TRtmp430+1), A
  7217                          ; peephole(1): r250 (LD A, x; LD (x), A; LD A, x)->(LD A, x; LD (x), A)
  7218                          ;	LD A, $00
  7219  3556  329172            	LD (_optionsup_c), A
  7220  3559  3e00              	LD A, $00
  7221  355b  329272            	LD (_optionsup_c+1), A
  7222  355e  3a8e00            	LD A, (_optionsup_Ttmp427)
  7223  3561  329172            	LD (_optionsup_c), A
  7224                          _label432bf:
  7225  3564  3a7901            	LD A, (_TRtmp431+1)
  7226  3567  47                	LD B, A
  7227  3568  3a9272            	LD A, (_optionsup_c+1)
  7228  356b  b8                	CP B
  7229  356c  2804              	JR Z, _label438l2
  7230  356e  3815              	JR C, _label438
  7231  3570  180c              	JR _label438_0
  7232                          _label438l2:
  7233  3572  3a7801            	LD A, (_TRtmp431)
  7234  3575  47                	LD B, A
  7235  3576  3a9172            	LD A, (_optionsup_c)
  7236  3579  b8                	CP B
  7237  357a  3809              	JR C, _label438
  7238  357c  2807              	JR Z, _label438
  7239                          _label438_0:
  7240                          ; peephole(1): r228 (LD A, 0)->(XOR A)
  7241                          ;	LD A, 0
  7242  357e  af                	XOR A
  7243  357f  329200            	LD (_optionsup_Ttmp437), A
  7244  3582  c38a35            	JMP _label438b2
  7245                          _label438:
  7246  3585  3eff              	LD A, $ff
  7247  3587  329200            	LD (_optionsup_Ttmp437), A
  7248                          _label438b2:
  7249  358a  3a9200            	LD A, (_optionsup_Ttmp437)
  7250                          ; peephole(1): r319 (XOR $FF)->(CPL)
  7251                          ;	XOR $FF
  7252  358d  2f                	CPL
  7253  358e  329200            	LD (_optionsup_Ttmp437), A
  7254  3591  3a9200            	LD A, (_optionsup_Ttmp437)
  7255  3594  fe00              	CP 0
  7256  3596  c29c35            	JP NZ, _label439
  7257  3599  c39f35            	JMP _label439b2
  7258                          _label439:
  7259  359c  c38a36            	JMP _label432bis
  7260                          _label439b2:
  7261                          	; P:53
  7262                          	; L:143
  7263  359f  3e01              	LD A, $01
  7264  35a1  328e00            	LD (_optionsup_Ttmp427), A
  7265  35a4  3e00              	LD A, $00
  7266  35a6  328f00            	LD (_optionsup_Ttmp429), A
  7267                          ; peephole(1): r250 (LD A, x; LD (x), A; LD A, x)->(LD A, x; LD (x), A)
  7268                          ;	LD A, $00
  7269  35a9  329000            	LD (_optionsup_Ttmp429+1), A
  7270  35ac  3a8e00            	LD A, (_optionsup_Ttmp427)
  7271  35af  328f00            	LD (_optionsup_Ttmp429), A
  7272  35b2  2a8772            	LD HL, (_optionspointer)
  7273  35b5  ed5b8f00          	LD DE, (_optionsup_Ttmp429)
  7274  35b9  a7                	AND A
  7275  35ba  ed52              	SBC HL, DE
  7276  35bc  229300            	LD (_optionsup_Ttmp441), HL
  7277  35bf  3a9300            	LD A, (_optionsup_Ttmp441)
  7278  35c2  328772            	LD (_optionspointer), A
  7279  35c5  3a9400            	LD A, (_optionsup_Ttmp441+1)
  7280  35c8  328872            	LD (_optionspointer+1), A
  7281                          	; P:17
  7282                          	; L:144
  7283  35cb  3e01              	LD A, $01
  7284  35cd  328e00            	LD (_optionsup_Ttmp427), A
  7285  35d0  3e00              	LD A, $00
  7286  35d2  328f00            	LD (_optionsup_Ttmp429), A
  7287                          ; peephole(1): r250 (LD A, x; LD (x), A; LD A, x)->(LD A, x; LD (x), A)
  7288                          ;	LD A, $00
  7289  35d5  329000            	LD (_optionsup_Ttmp429+1), A
  7290  35d8  3a8e00            	LD A, (_optionsup_Ttmp427)
  7291  35db  328f00            	LD (_optionsup_Ttmp429), A
  7292  35de  3a9000            	LD A, (_optionsup_Ttmp429+1)
  7293  35e1  47                	LD B, A
  7294  35e2  3a8872            	LD A, (_optionspointer+1)
  7295  35e5  b8                	CP B
  7296  35e6  2804              	JR Z, _label444l2
  7297  35e8  3813              	JR C, _label444
  7298  35ea  180a              	JR _label444_0
  7299                          _label444l2:
  7300  35ec  3a8f00            	LD A, (_optionsup_Ttmp429)
  7301  35ef  47                	LD B, A
  7302  35f0  3a8772            	LD A, (_optionspointer)
  7303  35f3  b8                	CP B
  7304  35f4  3807              	JR C, _label444
  7305                          _label444_0:
  7306                          ; peephole(1): r228 (LD A, 0)->(XOR A)
  7307                          ;	LD A, 0
  7308  35f6  af                	XOR A
  7309  35f7  329200            	LD (_optionsup_Ttmp437), A
  7310  35fa  c30236            	JMP _label444b2
  7311                          _label444:
  7312  35fd  3eff              	LD A, $ff
  7313  35ff  329200            	LD (_optionsup_Ttmp437), A
  7314                          _label444b2:
  7315  3602  3a9200            	LD A, (_optionsup_Ttmp437)
  7316  3605  fe00              	CP 0
  7317  3607  ca0d36            	JP Z, _label446
  7318  360a  c31036            	JMP _label446b2
  7319                          _label446:
  7320  360d  c32636            	JMP _label445e0
  7321                          _label446b2:
  7322                          _label445t:
  7323                          	; P:37
  7324                          	; L:145
  7325  3610  3e08              	LD A, $08
  7326  3612  328f00            	LD (_optionsup_Ttmp429), A
  7327  3615  3e00              	LD A, $00
  7328  3617  329000            	LD (_optionsup_Ttmp429+1), A
  7329  361a  3a8f00            	LD A, (_optionsup_Ttmp429)
  7330  361d  328772            	LD (_optionspointer), A
  7331  3620  3a9000            	LD A, (_optionsup_Ttmp429+1)
  7332  3623  328872            	LD (_optionspointer+1), A
  7333                          	; P:8
  7334                          	; L:146
  7335                          _label445f:
  7336                          _label445e0:
  7337                          	; P:2
  7338                          	; L:147
  7339  3626  3a8772            	LD A, (_optionspointer)
  7340  3629  328e00            	LD (_optionsup_Ttmp427), A
  7341  362c  214871            	LD HL, _availableoptions
  7342  362f  3a8e00            	LD A, (_optionsup_Ttmp427)
  7343  3632  5f                	LD E, A
  7344                          ; peephole(1): r228 (LD A, 0)->(XOR A)
  7345                          ;	LD A, 0
  7346  3633  af                	XOR A
  7347  3634  57                	LD D, A
  7348  3635  19                	ADD HL, DE
  7349  3636  19                	ADD HL, DE
  7350  3637  7e                	LD A, (HL)
  7351  3638  328f00            	LD (_optionsup_Ttmp429), A
  7352  363b  23                	INC HL
  7353  363c  7e                	LD A, (HL)
  7354  363d  329000            	LD (_optionsup_Ttmp429+1), A
  7355  3640  3e01              	LD A, $01
  7356  3642  329100            	LD (_optionsup_Ttmp433), A
  7357  3645  3a8f00            	LD A, (_optionsup_Ttmp429)
  7358  3648  47                	LD B, A
  7359  3649  3a9100            	LD A, (_optionsup_Ttmp433)
  7360  364c  b8                	CP B
  7361  364d  c25836            	JP NZ, _label449
  7362  3650  3eff              	LD A, $ff
  7363  3652  329200            	LD (_optionsup_Ttmp437), A
  7364  3655  c35d36            	JMP _label449b2
  7365                          _label449:
  7366  3658  3e00              	LD A, $00
  7367  365a  329200            	LD (_optionsup_Ttmp437), A
  7368                          _label449b2:
  7369  365d  3a9200            	LD A, (_optionsup_Ttmp437)
  7370  3660  fe00              	CP 0
  7371  3662  ca6836            	JP Z, _label451
  7372  3665  c36b36            	JMP _label451b2
  7373                          _label451:
  7374  3668  c36c36            	JMP _label450e0
  7375                          _label451b2:
  7376                          _label450t:
  7377                          	; P:36
  7378                          	; L:148
  7379  366b  c9                	RET
  7380                          	; P:1
  7381                          	; L:149
  7382                          _label450f:
  7383                          _label450e0:
  7384                          	; P:2
  7385                          	; L:150
  7386  366c  2a9172            	LD HL, (_optionsup_c)
  7387  366f  ed5b7601          	LD DE, (_TRtmp430)
  7388  3673  19                	ADD HL, DE
  7389  3674  229172            	LD (_optionsup_c), HL
  7390  3677  3a9272            	LD A, (_optionsup_c+1)
  7391  367a  fe00              	CP $00
  7392  367c  c28736            	JP NZ, _label453
  7393  367f  3a9172            	LD A, (_optionsup_c)
  7394  3682  fe00              	CP $00
  7395  3684  ca8a36            	JP Z, _label432bis
  7396                          _label453:
  7397  3687  c36435            	jp _label432bf
  7398                          _label432bis:
  7399                          	; P:13
  7400                          	; L:151
  7401  368a  c9                	RET
  7402                          optionsupafter:
  7403                          	; P:2
  7404                          	; L:152
  7405                          	; P:0
  7406                          	; L:153
  7407  368b  c3a937            	jp updatedecideafter
  7408                          updatedecide:
  7409                          	; P:2
  7410                          	; L:154
  7411                          	; P:0
  7412                          	; L:155
  7413  368e  3a0000            	LD A, (_updatedecide_Tstr454)
  7414  3691  329b00            	LD (_updatedecide_Ttmp461), A
  7415  3694  3a9372            	LD A, (_updatedecide__l)
  7416  3697  47                	LD B, A
  7417  3698  cdaa02            	CALL DSDESCRIPTOR
  7418  369b  dd7e00            	LD A, (IX)
  7419  369e  329800            	LD (_updatedecide_Ttmp459), A
  7420  36a1  dd7e01            	LD A, (IX+1)
  7421  36a4  329600            	LD (_updatedecide_Ttmp458), A
  7422  36a7  dd7e02            	LD A, (IX+2)
  7423  36aa  329700            	LD (_updatedecide_Ttmp458+1), A
  7424  36ad  3a9800            	LD A, (_updatedecide_Ttmp459)
  7425  36b0  47                	LD B, A
  7426  36b1  3a9b00            	LD A, (_updatedecide_Ttmp461)
  7427  36b4  b8                	CP B
  7428  36b5  c2c036            	JP NZ, _label462
  7429  36b8  3eff              	LD A, $ff
  7430  36ba  329500            	LD (_updatedecide_Ttmp457), A
  7431  36bd  c3c536            	JMP _label462b2
  7432                          _label462:
  7433  36c0  3e00              	LD A, $00
  7434  36c2  329500            	LD (_updatedecide_Ttmp457), A
  7435                          _label462b2:
  7436  36c5  3a9500            	LD A, (_updatedecide_Ttmp457)
  7437  36c8  fe00              	CP 0
  7438  36ca  cad036            	JP Z, _label463
  7439  36cd  c3d336            	JMP _label463b2
  7440                          _label463:
  7441  36d0  c30737            	JMP _label456
  7442                          _label463b2:
  7443  36d3  210000            	LD HL, _updatedecide_Tstr454
  7444  36d6  229900            	LD (_updatedecide_Ttmp460), HL
  7445  36d9  2a9900            	LD HL, (_updatedecide_Ttmp460)
  7446  36dc  23                	INC HL
  7447  36dd  229900            	LD (_updatedecide_Ttmp460), HL
  7448  36e0  3a9800            	LD A, (_updatedecide_Ttmp459)
  7449  36e3  fe00              	CP 0
  7450  36e5  2813              	JR Z, _label464equal
  7451  36e7  4f                	LD C, A
  7452  36e8  2a9600            	LD HL, (_updatedecide_Ttmp458)
  7453  36eb  ed5b9900          	LD DE, (_updatedecide_Ttmp460)
  7454                          _label464:
  7455  36ef  7e                	LD A, (HL)
  7456  36f0  47                	LD B, A
  7457  36f1  1a                	LD A, (DE)
  7458  36f2  b8                	CP B
  7459  36f3  200d              	JR NZ, _label464diff
  7460  36f5  13                	INC DE
  7461  36f6  23                	INC HL
  7462  36f7  0d                	DEC C
  7463  36f8  20f5              	JR NZ, _label464
  7464                          _label464equal:
  7465  36fa  3eff              	LD A, $ff
  7466  36fc  329500            	LD (_updatedecide_Ttmp457), A
  7467  36ff  c30737            	JMP _label464final
  7468                          _label464diff:
  7469  3702  3e00              	LD A, $00
  7470  3704  329500            	LD (_updatedecide_Ttmp457), A
  7471                          _label464final:
  7472                          _label456:
  7473  3707  3a9500            	LD A, (_updatedecide_Ttmp457)
  7474  370a  fe00              	CP 0
  7475  370c  ca1237            	JP Z, _label466
  7476  370f  c31537            	JMP _label466b2
  7477                          _label466:
  7478  3712  c31b37            	JMP _label465e0
  7479                          _label466b2:
  7480                          _label465t:
  7481                          	; P:68
  7482                          	; L:156
  7483  3715  cd2935            	call optionsup
  7484                          	; P:1
  7485                          	; L:157
  7486  3718  cdd326            	call printPointer
  7487                          	; P:1
  7488                          	; L:158
  7489                          _label465f:
  7490                          _label465e0:
  7491                          	; P:2
  7492                          	; L:159
  7493  371b  3a0000            	LD A, (_updatedecide_Tstr467)
  7494  371e  329b00            	LD (_updatedecide_Ttmp461), A
  7495  3721  3a9372            	LD A, (_updatedecide__l)
  7496  3724  47                	LD B, A
  7497  3725  cdaa02            	CALL DSDESCRIPTOR
  7498  3728  dd7e00            	LD A, (IX)
  7499  372b  329800            	LD (_updatedecide_Ttmp459), A
  7500  372e  dd7e01            	LD A, (IX+1)
  7501  3731  329600            	LD (_updatedecide_Ttmp458), A
  7502  3734  dd7e02            	LD A, (IX+2)
  7503  3737  329700            	LD (_updatedecide_Ttmp458+1), A
  7504  373a  3a9800            	LD A, (_updatedecide_Ttmp459)
  7505  373d  47                	LD B, A
  7506  373e  3a9b00            	LD A, (_updatedecide_Ttmp461)
  7507  3741  b8                	CP B
  7508  3742  c24d37            	JP NZ, _label470
  7509  3745  3eff              	LD A, $ff
  7510  3747  329500            	LD (_updatedecide_Ttmp457), A
  7511  374a  c35237            	JMP _label470b2
  7512                          _label470:
  7513  374d  3e00              	LD A, $00
  7514  374f  329500            	LD (_updatedecide_Ttmp457), A
  7515                          _label470b2:
  7516  3752  3a9500            	LD A, (_updatedecide_Ttmp457)
  7517  3755  fe00              	CP 0
  7518  3757  ca5d37            	JP Z, _label471
  7519  375a  c36037            	JMP _label471b2
  7520                          _label471:
  7521  375d  c39437            	JMP _label469
  7522                          _label471b2:
  7523  3760  210000            	LD HL, _updatedecide_Tstr467
  7524  3763  229900            	LD (_updatedecide_Ttmp460), HL
  7525  3766  2a9900            	LD HL, (_updatedecide_Ttmp460)
  7526  3769  23                	INC HL
  7527  376a  229900            	LD (_updatedecide_Ttmp460), HL
  7528  376d  3a9800            	LD A, (_updatedecide_Ttmp459)
  7529  3770  fe00              	CP 0
  7530  3772  2813              	JR Z, _label472equal
  7531  3774  4f                	LD C, A
  7532  3775  2a9600            	LD HL, (_updatedecide_Ttmp458)
  7533  3778  ed5b9900          	LD DE, (_updatedecide_Ttmp460)
  7534                          _label472:
  7535  377c  7e                	LD A, (HL)
  7536  377d  47                	LD B, A
  7537  377e  1a                	LD A, (DE)
  7538  377f  b8                	CP B
  7539  3780  200d              	JR NZ, _label472diff
  7540  3782  13                	INC DE
  7541  3783  23                	INC HL
  7542  3784  0d                	DEC C
  7543  3785  20f5              	JR NZ, _label472
  7544                          _label472equal:
  7545  3787  3eff              	LD A, $ff
  7546  3789  329500            	LD (_updatedecide_Ttmp457), A
  7547  378c  c39437            	JMP _label472final
  7548                          _label472diff:
  7549  378f  3e00              	LD A, $00
  7550  3791  329500            	LD (_updatedecide_Ttmp457), A
  7551                          _label472final:
  7552                          _label469:
  7553  3794  3a9500            	LD A, (_updatedecide_Ttmp457)
  7554  3797  fe00              	CP 0
  7555  3799  ca9f37            	JP Z, _label474
  7556  379c  c3a237            	JMP _label474b2
  7557                          _label474:
  7558  379f  c3a837            	JMP _label473e0
  7559                          _label474b2:
  7560                          _label473t:
  7561                          	; P:68
  7562                          	; L:160
  7563  37a2  cd8b33            	call optionsdown
  7564                          	; P:1
  7565                          	; L:161
  7566  37a5  cdd326            	call printPointer
  7567                          	; P:1
  7568                          	; L:162
  7569                          	; P:0
  7570                          	; L:163
  7571                          _label473f:
  7572                          _label473e0:
  7573                          	; P:2
  7574                          	; L:164
  7575  37a8  c9                	RET
  7576                          updatedecideafter:
  7577                          	; P:2
  7578                          	; L:165
  7579                          	; P:0
  7580                          	; L:166
  7581  37a9  c34a45            	jp reprintCreateCharacterScreenafter
  7582                          reprintCreateCharacterScreen:
  7583                          	; P:2
  7584                          	; L:167
  7585                          	; P:0
  7586                          	; L:168
  7587  37ac  3e01              	LD A, $01
  7588  37ae  329c00            	LD (_reprintCreateCharacterScreen_Ttmp475), A
  7589  37b1  3e08              	LD A, $08
  7590  37b3  329d00            	LD (_reprintCreateCharacterScreen_Ttmp476), A
  7591  37b6  3e00              	LD A, $00
  7592  37b8  329e00            	LD (_reprintCreateCharacterScreen_Ttmp476+1), A
  7593                          	; _TRtmp477 <-> (step 1) (resident)
  7594                          	; _TRtmp478 <-> (resident to) (resident)
  7595  37bb  3a9d00            	LD A, (_reprintCreateCharacterScreen_Ttmp476)
  7596  37be  327c01            	LD (_TRtmp478), A
  7597  37c1  3a9e00            	LD A, (_reprintCreateCharacterScreen_Ttmp476+1)
  7598  37c4  327d01            	LD (_TRtmp478+1), A
  7599  37c7  3e01              	LD A, $01
  7600  37c9  327a01            	LD (_TRtmp477), A
  7601  37cc  3e00              	LD A, $00
  7602  37ce  327b01            	LD (_TRtmp477+1), A
  7603                          ; peephole(1): r250 (LD A, x; LD (x), A; LD A, x)->(LD A, x; LD (x), A)
  7604                          ;	LD A, $00
  7605  37d1  32b172            	LD (_reprintCreateCharacterScreen_c), A
  7606  37d4  3e00              	LD A, $00
  7607  37d6  32b272            	LD (_reprintCreateCharacterScreen_c+1), A
  7608  37d9  3a9c00            	LD A, (_reprintCreateCharacterScreen_Ttmp475)
  7609  37dc  32b172            	LD (_reprintCreateCharacterScreen_c), A
  7610                          _label480bf:
  7611  37df  3a7d01            	LD A, (_TRtmp478+1)
  7612  37e2  47                	LD B, A
  7613  37e3  3ab272            	LD A, (_reprintCreateCharacterScreen_c+1)
  7614  37e6  b8                	CP B
  7615  37e7  2804              	JR Z, _label486l2
  7616  37e9  3815              	JR C, _label486
  7617  37eb  180c              	JR _label486_0
  7618                          _label486l2:
  7619  37ed  3a7c01            	LD A, (_TRtmp478)
  7620  37f0  47                	LD B, A
  7621  37f1  3ab172            	LD A, (_reprintCreateCharacterScreen_c)
  7622  37f4  b8                	CP B
  7623  37f5  3809              	JR C, _label486
  7624  37f7  2807              	JR Z, _label486
  7625                          _label486_0:
  7626                          ; peephole(1): r228 (LD A, 0)->(XOR A)
  7627                          ;	LD A, 0
  7628  37f9  af                	XOR A
  7629  37fa  32a200            	LD (_reprintCreateCharacterScreen_Ttmp485), A
  7630  37fd  c30538            	JMP _label486b2
  7631                          _label486:
  7632  3800  3eff              	LD A, $ff
  7633  3802  32a200            	LD (_reprintCreateCharacterScreen_Ttmp485), A
  7634                          _label486b2:
  7635  3805  3aa200            	LD A, (_reprintCreateCharacterScreen_Ttmp485)
  7636                          ; peephole(1): r319 (XOR $FF)->(CPL)
  7637                          ;	XOR $FF
  7638  3808  2f                	CPL
  7639  3809  32a200            	LD (_reprintCreateCharacterScreen_Ttmp485), A
  7640  380c  3aa200            	LD A, (_reprintCreateCharacterScreen_Ttmp485)
  7641  380f  fe00              	CP 0
  7642  3811  c21738            	JP NZ, _label487
  7643  3814  c31a38            	JMP _label487b2
  7644                          _label487:
  7645  3817  c3e243            	JMP _label480bis
  7646                          _label487b2:
  7647                          	; P:53
  7648                          	; L:169
  7649  381a  3e00              	LD A, $00
  7650  381c  32a400            	LD (_reprintCreateCharacterScreen_Ttmp490), A
  7651                          ; peephole(1): r250 (LD A, x; LD (x), A; LD A, x)->(LD A, x; LD (x), A)
  7652                          ;	LD A, $00
  7653  381f  32a500            	LD (_reprintCreateCharacterScreen_Ttmp490+1), A
  7654  3822  2aa400            	LD HL, (_reprintCreateCharacterScreen_Ttmp490)
  7655  3825  ed5bb172          	LD DE, (_reprintCreateCharacterScreen_c)
  7656  3829  19                	ADD HL, DE
  7657  382a  22a400            	LD (_reprintCreateCharacterScreen_Ttmp490), HL
  7658  382d  e600              	AND $0
  7659  382f  2aa400            	LD HL, (_reprintCreateCharacterScreen_Ttmp490)
  7660  3832  115871            	LD DE, _options
  7661  3835  19                	ADD HL, DE
  7662  3836  22a400            	LD (_reprintCreateCharacterScreen_Ttmp490), HL
  7663  3839  ed5ba400          	LD DE, (_reprintCreateCharacterScreen_Ttmp490)
  7664  383d  1a                	LD A, (DE)
  7665  383e  32a600            	LD (_reprintCreateCharacterScreen_Ttmp491), A
  7666  3841  3aa600            	LD A, (_reprintCreateCharacterScreen_Ttmp491)
  7667  3844  47                	LD B, A
  7668  3845  cdaa02            	CALL DSDESCRIPTOR
  7669  3848  dd7e00            	LD A, (IX)
  7670  384b  329c00            	LD (_reprintCreateCharacterScreen_Ttmp475), A
  7671  384e  dd7e01            	LD A, (IX+1)
  7672  3851  32a700            	LD (_reprintCreateCharacterScreen_Ttmp492), A
  7673  3854  dd7e02            	LD A, (IX+2)
  7674  3857  32a800            	LD (_reprintCreateCharacterScreen_Ttmp492+1), A
  7675  385a  3aa300            	LD A, (_reprintCreateCharacterScreen_Ttmp489)
  7676  385d  47                	LD B, A
  7677  385e  cd6501            	CALL DSFREE
  7678  3861  3a9c00            	LD A, (_reprintCreateCharacterScreen_Ttmp475)
  7679  3864  4f                	LD C, A
  7680  3865  cd4e01            	CALL DSALLOC
  7681  3868  78                	LD A, B
  7682  3869  32a300            	LD (_reprintCreateCharacterScreen_Ttmp489), A
  7683  386c  3aa300            	LD A, (_reprintCreateCharacterScreen_Ttmp489)
  7684  386f  47                	LD B, A
  7685  3870  cdaa02            	CALL DSDESCRIPTOR
  7686  3873  dd7e00            	LD A, (IX)
  7687  3876  329f00            	LD (_reprintCreateCharacterScreen_Ttmp479), A
  7688  3879  dd7e01            	LD A, (IX+1)
  7689  387c  32a900            	LD (_reprintCreateCharacterScreen_Ttmp493), A
  7690  387f  dd7e02            	LD A, (IX+2)
  7691  3882  32aa00            	LD (_reprintCreateCharacterScreen_Ttmp493+1), A
  7692  3885  2aa700            	LD HL, (_reprintCreateCharacterScreen_Ttmp492)
  7693  3888  ed5ba900          	LD DE, (_reprintCreateCharacterScreen_Ttmp493)
  7694  388c  3a9c00            	LD A, (_reprintCreateCharacterScreen_Ttmp475)
  7695  388f  4f                	LD C, A
  7696  3890  0600              	LD B, 0
  7697  3892  cdee02            	CALL DUFFDEVICE
  7698  3895  3a0000            	LD A, (_reprintCreateCharacterScreen_Tstr494)
  7699  3898  32a100            	LD (_reprintCreateCharacterScreen_Ttmp482), A
  7700  389b  3aa300            	LD A, (_reprintCreateCharacterScreen_Ttmp489)
  7701  389e  47                	LD B, A
  7702  389f  cdaa02            	CALL DSDESCRIPTOR
  7703  38a2  dd7e00            	LD A, (IX)
  7704  38a5  32a000            	LD (_reprintCreateCharacterScreen_Ttmp481), A
  7705  38a8  dd7e01            	LD A, (IX+1)
  7706  38ab  32ab00            	LD (_reprintCreateCharacterScreen_Ttmp497), A
  7707  38ae  dd7e02            	LD A, (IX+2)
  7708  38b1  32ac00            	LD (_reprintCreateCharacterScreen_Ttmp497+1), A
  7709  38b4  3aa000            	LD A, (_reprintCreateCharacterScreen_Ttmp481)
  7710  38b7  47                	LD B, A
  7711  38b8  3aa100            	LD A, (_reprintCreateCharacterScreen_Ttmp482)
  7712  38bb  b8                	CP B
  7713  38bc  c2c738            	JP NZ, _label499
  7714  38bf  3eff              	LD A, $ff
  7715  38c1  32a200            	LD (_reprintCreateCharacterScreen_Ttmp485), A
  7716  38c4  c3cc38            	JMP _label499b2
  7717                          _label499:
  7718  38c7  3e00              	LD A, $00
  7719  38c9  32a200            	LD (_reprintCreateCharacterScreen_Ttmp485), A
  7720                          _label499b2:
  7721  38cc  3aa200            	LD A, (_reprintCreateCharacterScreen_Ttmp485)
  7722  38cf  fe00              	CP 0
  7723  38d1  cad738            	JP Z, _label500
  7724  38d4  c3da38            	JMP _label500b2
  7725                          _label500:
  7726  38d7  c30e39            	JMP _label496
  7727                          _label500b2:
  7728  38da  210000            	LD HL, _reprintCreateCharacterScreen_Tstr494
  7729  38dd  22ad00            	LD (_reprintCreateCharacterScreen_Ttmp498), HL
  7730  38e0  2aad00            	LD HL, (_reprintCreateCharacterScreen_Ttmp498)
  7731  38e3  23                	INC HL
  7732  38e4  22ad00            	LD (_reprintCreateCharacterScreen_Ttmp498), HL
  7733  38e7  3aa000            	LD A, (_reprintCreateCharacterScreen_Ttmp481)
  7734  38ea  fe00              	CP 0
  7735  38ec  2813              	JR Z, _label501equal
  7736  38ee  4f                	LD C, A
  7737  38ef  2aab00            	LD HL, (_reprintCreateCharacterScreen_Ttmp497)
  7738  38f2  ed5bad00          	LD DE, (_reprintCreateCharacterScreen_Ttmp498)
  7739                          _label501:
  7740  38f6  7e                	LD A, (HL)
  7741  38f7  47                	LD B, A
  7742  38f8  1a                	LD A, (DE)
  7743  38f9  b8                	CP B
  7744  38fa  200d              	JR NZ, _label501diff
  7745  38fc  13                	INC DE
  7746  38fd  23                	INC HL
  7747  38fe  0d                	DEC C
  7748  38ff  20f5              	JR NZ, _label501
  7749                          _label501equal:
  7750  3901  3eff              	LD A, $ff
  7751  3903  32a200            	LD (_reprintCreateCharacterScreen_Ttmp485), A
  7752  3906  c30e39            	JMP _label501final
  7753                          _label501diff:
  7754  3909  3e00              	LD A, $00
  7755  390b  32a200            	LD (_reprintCreateCharacterScreen_Ttmp485), A
  7756                          _label501final:
  7757                          _label496:
  7758  390e  3aa200            	LD A, (_reprintCreateCharacterScreen_Ttmp485)
  7759  3911  fe00              	CP 0
  7760  3913  ca1939            	JP Z, _label503
  7761  3916  c31c39            	JMP _label503b2
  7762                          _label503:
  7763  3919  c35d3c            	JMP _label502e0
  7764                          _label503b2:
  7765                          _label502t:
  7766                          	; P:116
  7767                          	; L:170
  7768  391c  3e0b              	LD A, $0b
  7769  391e  329c00            	LD (_reprintCreateCharacterScreen_Ttmp475), A
  7770  3921  3e03              	LD A, $03
  7771  3923  329d00            	LD (_reprintCreateCharacterScreen_Ttmp476), A
  7772  3926  3e00              	LD A, $00
  7773  3928  329e00            	LD (_reprintCreateCharacterScreen_Ttmp476+1), A
  7774  392b  2a9d00            	LD HL, (_reprintCreateCharacterScreen_Ttmp476)
  7775  392e  ed5bb172          	LD DE, (_reprintCreateCharacterScreen_c)
  7776  3932  19                	ADD HL, DE
  7777  3933  22af00            	LD (_reprintCreateCharacterScreen_Ttmp504), HL
  7778                          	 ; variable_move_8bit_8bit
  7779                          	 ; 8 BIT (unsigned) -> 8 BIT (unsigned)
  7780  3936  3a9c00            	LD A, (_reprintCreateCharacterScreen_Ttmp475)
  7781  3939  320d71            	LD (XCURSYS), A
  7782  393c  3ab000            	LD A, (_reprintCreateCharacterScreen_Ttmp504+1)
  7783  393f  e680              	AND $80
  7784  3941  fe00              	CP 0
  7785  3943  2808              	JR Z,_label508
  7786  3945  3eff              	LD A, $FF
  7787  3947  32a100            	LD (_reprintCreateCharacterScreen_Ttmp482), A
  7788  394a  c35239            	JMP _label508done
  7789                          _label508:
  7790  394d  3e00              	LD A, $0
  7791  394f  32a100            	LD (_reprintCreateCharacterScreen_Ttmp482), A
  7792                          _label508done:
  7793  3952  3aa100            	LD A, (_reprintCreateCharacterScreen_Ttmp482)
  7794  3955  fe00              	CP 0
  7795  3957  ca5d39            	JP Z, _label509
  7796  395a  c36039            	JMP _label509b2
  7797                          _label509:
  7798  395d  c39439            	JMP _label507
  7799                          _label509b2:
  7800  3960  3aaf00            	LD A, (_reprintCreateCharacterScreen_Ttmp504)
  7801                          ; peephole(1): r319 (XOR $FF)->(CPL)
  7802                          ;	XOR $FF
  7803  3963  2f                	CPL
  7804  3964  32b200            	LD (_reprintCreateCharacterScreen_Ttmp506), A
  7805  3967  3ab000            	LD A, (_reprintCreateCharacterScreen_Ttmp504+1)
  7806                          ; peephole(1): r319 (XOR $FF)->(CPL)
  7807                          ;	XOR $FF
  7808  396a  2f                	CPL
  7809  396b  32b300            	LD (_reprintCreateCharacterScreen_Ttmp506+1), A
  7810  396e  2ab200            	LD HL, (_reprintCreateCharacterScreen_Ttmp506)
  7811  3971  23                	INC HL
  7812  3972  22b200            	LD (_reprintCreateCharacterScreen_Ttmp506), HL
  7813  3975  3ab200            	LD A, (_reprintCreateCharacterScreen_Ttmp506)
  7814  3978  32b100            	LD (_reprintCreateCharacterScreen_Ttmp505), A
  7815  397b  3ab100            	LD A, (_reprintCreateCharacterScreen_Ttmp505)
  7816  397e  e67f              	AND $7f
  7817  3980  32b100            	LD (_reprintCreateCharacterScreen_Ttmp505), A
  7818  3983  3ab100            	LD A, (_reprintCreateCharacterScreen_Ttmp505)
  7819                          ; peephole(1): r319 (XOR $FF)->(CPL)
  7820                          ;	XOR $FF
  7821  3986  2f                	CPL
  7822  3987  32b100            	LD (_reprintCreateCharacterScreen_Ttmp505), A
  7823  398a  3ab100            	LD A, (_reprintCreateCharacterScreen_Ttmp505)
  7824  398d  3c                	INC A
  7825  398e  32b100            	LD (_reprintCreateCharacterScreen_Ttmp505), A
  7826  3991  c3a239            	jp _label507done
  7827                          _label507:
  7828  3994  3aaf00            	LD A, (_reprintCreateCharacterScreen_Ttmp504)
  7829  3997  32b100            	LD (_reprintCreateCharacterScreen_Ttmp505), A
  7830  399a  3ab100            	LD A, (_reprintCreateCharacterScreen_Ttmp505)
  7831  399d  e67f              	AND $7f
  7832  399f  32b100            	LD (_reprintCreateCharacterScreen_Ttmp505), A
  7833                          _label507done:
  7834                          	 ; variable_move_8bit_8bit
  7835                          	 ; 8 BIT (signed) -> 8 BIT (unsigned)
  7836  39a2  3ab100            	LD A, (_reprintCreateCharacterScreen_Ttmp505)
  7837  39a5  320e71            	LD (YCURSYS), A
  7838  39a8  3a0e71            	LD A, (YCURSYS)
  7839  39ab  e680              	AND $80
  7840  39ad  fe00              	CP 0
  7841  39af  2805              	JR Z,_label513
  7842  39b1  3eff              	LD A, $FF
  7843                          ; peephole(3): unread
  7844                          ;	LD (_reprintCreateCharacterScreen_Ttmp512), A
  7845  39b3  c3b839            	JMP _label513done
  7846                          _label513:
  7847  39b6  3e00              	LD A, $0
  7848                          ; peephole(3): unread
  7849                          ;	LD (_reprintCreateCharacterScreen_Ttmp512), A
  7850                          _label513done:
  7851  39b8  cabe39            	JP Z, _label514
  7852  39bb  c3c139            	JMP _label514b2
  7853                          _label514:
  7854  39be  c3cf39            	JMP _label511
  7855                          _label514b2:
  7856  39c1  3a0e71            	LD A, (YCURSYS)
  7857                          ; peephole(1): r319 (XOR $FF)->(CPL)
  7858                          ;	XOR $FF
  7859  39c4  2f                	CPL
  7860  39c5  320e71            	LD (YCURSYS), A
  7861  39c8  3a0e71            	LD A, (YCURSYS)
  7862  39cb  3c                	INC A
  7863  39cc  320e71            	LD (YCURSYS), A
  7864                          _label511:
  7865                          	; P:83
  7866                          	; L:171
  7867  39cf  3a0000            	LD A, (_reprintCreateCharacterScreen_Tstr515)
  7868  39d2  329c00            	LD (_reprintCreateCharacterScreen_Ttmp475), A
  7869  39d5  210000            	LD HL, _reprintCreateCharacterScreen_Tstr515
  7870  39d8  22a700            	LD (_reprintCreateCharacterScreen_Ttmp492), HL
  7871  39db  2aa700            	LD HL, (_reprintCreateCharacterScreen_Ttmp492)
  7872  39de  23                	INC HL
  7873  39df  22a700            	LD (_reprintCreateCharacterScreen_Ttmp492), HL
  7874  39e2  3a9c00            	LD A, (_reprintCreateCharacterScreen_Ttmp475)
  7875  39e5  4f                	LD C, A
  7876  39e6  0600              	LD B, 0
  7877  39e8  2aa700            	LD HL, (_reprintCreateCharacterScreen_Ttmp492)
  7878  39eb  cda62c            	CALL TEXTAT
  7879  39ee  3e00              	LD A, $00
  7880  39f0  320d71            	LD (XCURSYS), A
  7881  39f3  3a0e71            	LD A, (YCURSYS)
  7882  39f6  3c                	INC A
  7883  39f7  320e71            	LD (YCURSYS), A
  7884  39fa  3a1b71            	LD A, (CURRENTTILESHEIGHT)
  7885  39fd  47                	LD B, A
  7886  39fe  3a0e71            	LD A, (YCURSYS)
  7887  3a01  b8                	CP B
  7888  3a02  3807              	JR C, _label520
  7889                          ; peephole(1): r228 (LD A, 0)->(XOR A)
  7890                          ;	LD A, 0
  7891  3a04  af                	XOR A
  7892  3a05  32b100            	LD (_reprintCreateCharacterScreen_Ttmp505), A
  7893  3a08  c3103a            	JMP _label520b2
  7894                          _label520:
  7895  3a0b  3eff              	LD A, $ff
  7896  3a0d  32b100            	LD (_reprintCreateCharacterScreen_Ttmp505), A
  7897                          _label520b2:
  7898  3a10  3ab100            	LD A, (_reprintCreateCharacterScreen_Ttmp505)
  7899                          ; peephole(1): r319 (XOR $FF)->(CPL)
  7900                          ;	XOR $FF
  7901  3a13  2f                	CPL
  7902  3a14  32b100            	LD (_reprintCreateCharacterScreen_Ttmp505), A
  7903  3a17  3ab100            	LD A, (_reprintCreateCharacterScreen_Ttmp505)
  7904  3a1a  fe00              	CP 0
  7905  3a1c  c2223a            	JP NZ, _label521
  7906  3a1f  c3253a            	JMP _label521b2
  7907                          _label521:
  7908  3a22  c3283a            	JMP _label518scroll
  7909                          _label521b2:
  7910  3a25  c33a3a            	jp _label518end
  7911                          _label518scroll:
  7912  3a28  3ef8              	LD A, $f8
  7913  3a2a  cd0d28            	CALL VSCROLL
  7914  3a2d  3a1b71            	LD A, (CURRENTTILESHEIGHT)
  7915  3a30  320e71            	LD (YCURSYS), A
  7916  3a33  3a0e71            	LD A, (YCURSYS)
  7917  3a36  3d                	DEC A
  7918  3a37  320e71            	LD (YCURSYS), A
  7919                          _label518end:
  7920                          	; P:49
  7921                          	; L:172
  7922  3a3a  3e0b              	LD A, $0b
  7923  3a3c  329c00            	LD (_reprintCreateCharacterScreen_Ttmp475), A
  7924  3a3f  3e03              	LD A, $03
  7925  3a41  329d00            	LD (_reprintCreateCharacterScreen_Ttmp476), A
  7926  3a44  3e00              	LD A, $00
  7927  3a46  329e00            	LD (_reprintCreateCharacterScreen_Ttmp476+1), A
  7928  3a49  2a9d00            	LD HL, (_reprintCreateCharacterScreen_Ttmp476)
  7929  3a4c  ed5bb172          	LD DE, (_reprintCreateCharacterScreen_c)
  7930  3a50  19                	ADD HL, DE
  7931  3a51  22af00            	LD (_reprintCreateCharacterScreen_Ttmp504), HL
  7932                          	 ; variable_move_8bit_8bit
  7933                          	 ; 8 BIT (unsigned) -> 8 BIT (unsigned)
  7934  3a54  3a9c00            	LD A, (_reprintCreateCharacterScreen_Ttmp475)
  7935  3a57  320d71            	LD (XCURSYS), A
  7936  3a5a  3ab000            	LD A, (_reprintCreateCharacterScreen_Ttmp504+1)
  7937  3a5d  e680              	AND $80
  7938  3a5f  fe00              	CP 0
  7939  3a61  2808              	JR Z,_label523
  7940  3a63  3eff              	LD A, $FF
  7941  3a65  32a100            	LD (_reprintCreateCharacterScreen_Ttmp482), A
  7942  3a68  c3703a            	JMP _label523done
  7943                          _label523:
  7944  3a6b  3e00              	LD A, $0
  7945  3a6d  32a100            	LD (_reprintCreateCharacterScreen_Ttmp482), A
  7946                          _label523done:
  7947  3a70  3aa100            	LD A, (_reprintCreateCharacterScreen_Ttmp482)
  7948  3a73  fe00              	CP 0
  7949  3a75  ca7b3a            	JP Z, _label524
  7950  3a78  c37e3a            	JMP _label524b2
  7951                          _label524:
  7952  3a7b  c3b23a            	JMP _label522
  7953                          _label524b2:
  7954  3a7e  3aaf00            	LD A, (_reprintCreateCharacterScreen_Ttmp504)
  7955                          ; peephole(1): r319 (XOR $FF)->(CPL)
  7956                          ;	XOR $FF
  7957  3a81  2f                	CPL
  7958  3a82  32b200            	LD (_reprintCreateCharacterScreen_Ttmp506), A
  7959  3a85  3ab000            	LD A, (_reprintCreateCharacterScreen_Ttmp504+1)
  7960                          ; peephole(1): r319 (XOR $FF)->(CPL)
  7961                          ;	XOR $FF
  7962  3a88  2f                	CPL
  7963  3a89  32b300            	LD (_reprintCreateCharacterScreen_Ttmp506+1), A
  7964  3a8c  2ab200            	LD HL, (_reprintCreateCharacterScreen_Ttmp506)
  7965  3a8f  23                	INC HL
  7966  3a90  22b200            	LD (_reprintCreateCharacterScreen_Ttmp506), HL
  7967  3a93  3ab200            	LD A, (_reprintCreateCharacterScreen_Ttmp506)
  7968  3a96  32b100            	LD (_reprintCreateCharacterScreen_Ttmp505), A
  7969  3a99  3ab100            	LD A, (_reprintCreateCharacterScreen_Ttmp505)
  7970  3a9c  e67f              	AND $7f
  7971  3a9e  32b100            	LD (_reprintCreateCharacterScreen_Ttmp505), A
  7972  3aa1  3ab100            	LD A, (_reprintCreateCharacterScreen_Ttmp505)
  7973                          ; peephole(1): r319 (XOR $FF)->(CPL)
  7974                          ;	XOR $FF
  7975  3aa4  2f                	CPL
  7976  3aa5  32b100            	LD (_reprintCreateCharacterScreen_Ttmp505), A
  7977  3aa8  3ab100            	LD A, (_reprintCreateCharacterScreen_Ttmp505)
  7978  3aab  3c                	INC A
  7979  3aac  32b100            	LD (_reprintCreateCharacterScreen_Ttmp505), A
  7980  3aaf  c3c03a            	jp _label522done
  7981                          _label522:
  7982  3ab2  3aaf00            	LD A, (_reprintCreateCharacterScreen_Ttmp504)
  7983  3ab5  32b100            	LD (_reprintCreateCharacterScreen_Ttmp505), A
  7984  3ab8  3ab100            	LD A, (_reprintCreateCharacterScreen_Ttmp505)
  7985  3abb  e67f              	AND $7f
  7986  3abd  32b100            	LD (_reprintCreateCharacterScreen_Ttmp505), A
  7987                          _label522done:
  7988                          	 ; variable_move_8bit_8bit
  7989                          	 ; 8 BIT (signed) -> 8 BIT (unsigned)
  7990  3ac0  3ab100            	LD A, (_reprintCreateCharacterScreen_Ttmp505)
  7991  3ac3  320e71            	LD (YCURSYS), A
  7992  3ac6  3a0e71            	LD A, (YCURSYS)
  7993  3ac9  e680              	AND $80
  7994  3acb  fe00              	CP 0
  7995  3acd  2805              	JR Z,_label526
  7996  3acf  3eff              	LD A, $FF
  7997                          ; peephole(3): unread
  7998                          ;	LD (_reprintCreateCharacterScreen_Ttmp512), A
  7999  3ad1  c3d63a            	JMP _label526done
  8000                          _label526:
  8001  3ad4  3e00              	LD A, $0
  8002                          ; peephole(3): unread
  8003                          ;	LD (_reprintCreateCharacterScreen_Ttmp512), A
  8004                          _label526done:
  8005  3ad6  cadc3a            	JP Z, _label527
  8006  3ad9  c3df3a            	JMP _label527b2
  8007                          _label527:
  8008  3adc  c3ed3a            	JMP _label525
  8009                          _label527b2:
  8010  3adf  3a0e71            	LD A, (YCURSYS)
  8011                          ; peephole(1): r319 (XOR $FF)->(CPL)
  8012                          ;	XOR $FF
  8013  3ae2  2f                	CPL
  8014  3ae3  320e71            	LD (YCURSYS), A
  8015  3ae6  3a0e71            	LD A, (YCURSYS)
  8016  3ae9  3c                	INC A
  8017  3aea  320e71            	LD (YCURSYS), A
  8018                          _label525:
  8019                          	; P:83
  8020                          	; L:173
  8021  3aed  3e00              	LD A, $00
  8022  3aef  329c00            	LD (_reprintCreateCharacterScreen_Ttmp475), A
  8023  3af2  215f72            	LD HL, _partystr
  8024  3af5  3a9c00            	LD A, (_reprintCreateCharacterScreen_Ttmp475)
  8025  3af8  5f                	LD E, A
  8026                          ; peephole(1): r228 (LD A, 0)->(XOR A)
  8027                          ;	LD A, 0
  8028  3af9  af                	XOR A
  8029  3afa  57                	LD D, A
  8030  3afb  19                	ADD HL, DE
  8031  3afc  19                	ADD HL, DE
  8032  3afd  7e                	LD A, (HL)
  8033  3afe  329d00            	LD (_reprintCreateCharacterScreen_Ttmp476), A
  8034  3b01  23                	INC HL
  8035  3b02  7e                	LD A, (HL)
  8036  3b03  329e00            	LD (_reprintCreateCharacterScreen_Ttmp476+1), A
  8037  3b06  3ab400            	LD A, (_reprintCreateCharacterScreen_Ttmp530)
  8038  3b09  47                	LD B, A
  8039  3b0a  cd6501            	CALL DSFREE
  8040  3b0d  210000            	LD HL, _reprintCreateCharacterScreen_Tstr531
  8041  3b10  cd3701            	CALL DSDEFINE
  8042  3b13  78                	LD A, B
  8043  3b14  32b400            	LD (_reprintCreateCharacterScreen_Ttmp530), A
  8044  3b17  3ab400            	LD A, (_reprintCreateCharacterScreen_Ttmp530)
  8045  3b1a  47                	LD B, A
  8046  3b1b  cd6d01            	CALL DSWRITE
  8047  3b1e  3ab400            	LD A, (_reprintCreateCharacterScreen_Ttmp530)
  8048  3b21  47                	LD B, A
  8049  3b22  cdaa02            	CALL DSDESCRIPTOR
  8050  3b25  dd7e00            	LD A, (IX)
  8051  3b28  329f00            	LD (_reprintCreateCharacterScreen_Ttmp479), A
  8052  3b2b  dd7e01            	LD A, (IX+1)
  8053  3b2e  32a700            	LD (_reprintCreateCharacterScreen_Ttmp492), A
  8054  3b31  dd7e02            	LD A, (IX+2)
  8055  3b34  32a800            	LD (_reprintCreateCharacterScreen_Ttmp492+1), A
  8056  3b37  c3ba3b            	jp numberToString_after
  8057                          ; /*****************************************************************************
  8058                          ;  * ugBASIC - an isomorphic BASIC language compiler for retrocomputers        *
  8059                          ;  *****************************************************************************
  8060                          ;  * Copyright 2021-2023 Marco Spedaletti (asimov@mclink.it)
  8061                          ;  * Inspired from source code by Alwin Henseler on:
  8062                          ;  * https://www.msx.org/forum/development/msx-development/32-bit-long-ascii
  8063                          ;  *
  8064                          ;  * Licensed under the Apache License, Version 2.0 (the "License");
  8065                          ;  * you may not use this file except in compliance with the License.
  8066                          ;  * You may obtain a copy of the License at
  8067                          ;  *
  8068                          ;  * http://www.apache.org/licenses/LICENSE-2.0
  8069                          ;  *
  8070                          ;  * Unless required by applicable law or agreed to in writing, software
  8071                          ;  * distributed under the License is distributed on an "AS IS" BASIS,
  8072                          ;  * WITHOUT WARRANTIES OR CONDITIONS OF ANY KIND, either express or implied.
  8073                          ;  * See the License for the specific language governing permissions and
  8074                          ;  * limitations under the License.
  8075                          ;  *----------------------------------------------------------------------------
  8076                          ;  * Concesso in licenza secondo i termini della Licenza Apache, versione 2.0
  8077                          ;  * (la "Licenza"); è proibito usare questo file se non in conformità alla
  8078                          ;  * Licenza. Una copia della Licenza è disponibile all'indirizzo:
  8079                          ;  *
  8080                          ;  * http://www.apache.org/licenses/LICENSE-2.0
  8081                          ;  *
  8082                          ;  * Se non richiesto dalla legislazione vigente o concordato per iscritto,
  8083                          ;  * il software distribuito nei termini della Licenza è distribuito
  8084                          ;  * "COSì COM'è", SENZA GARANZIE O CONDIZIONI DI ALCUN TIPO, esplicite o
  8085                          ;  * implicite. Consultare la Licenza per il testo specifico che regola le
  8086                          ;  * autorizzazioni e le limitazioni previste dalla medesima.
  8087                          ;  ****************************************************************************/
  8088                          ; -------------------------------------------------------------------------------
  8089                          ; Combined routine for conversion of different sized binary numbers into
  8090                          ; directly printable ASCII(Z)-string
  8091                          ; Input value in registers, number size and -related to that- registers to fill
  8092                          ; is selected by calling the correct entry:
  8093                          ;
  8094                          ;  entry  inputregister(s)  decimal value 0 to:
  8095                          ;   N2D8             A                    255  (3 digits)
  8096                          ;   N2D16           HL                  65535   5   "
  8097                          ;   N2D24         E:HL               16777215   8   "
  8098                          ;   N2D32        DE:HL             4294967295  10   "
  8099                          ; - N2D48     BC:DE:HL        281474976710655  15   "
  8100                          ; - N2D64  IX:BC:DE:HL   18446744073709551615  20   "
  8101                          ;
  8102                          ; The resulting string is placed into a small buffer attached to this routine,
  8103                          ; this buffer needs no initialization and can be modified as desired.
  8104                          ; The number is aligned to the right, and leading 0's are replaced with spaces.
  8105                          ; On exit HL points to the first digit, (B)C = number of decimals
  8106                          ; This way any re-alignment / postprocessing is made easy.
  8107                          ; Changes: AF,BC,DE,HL,IX
  8108                          ;
  8109                          ; @thirdparts Alwin Henseler
  8110                          ; -------------------------------------------------------------------------------
  8111  3b3a  2600              N2D8:    LD H,0
  8112  3b3c  6f                	LD L,A
  8113  3b3d  1e00              N2D16:   LD E,0
  8114  3b3f  1600              N2D24:   LD D,0
  8115  3b41  010000            N2D32:   LD BC,0
  8116                          N2D48:
  8117                                  ;  LD IX,0          ; zero all non-used bits
  8118                          N2D64:
  8119  3b44  229472            	LD (N2DINV),HL
  8120  3b47  ed539672          	LD (N2DINV+2),DE
  8121                                  ;  LD (N2DINV+4),BC
  8122                                  ;  LD (N2DINV+6),IX ; place full 64-bit input value in buffer
  8123  3b4b  219c72            	LD HL,N2DBUF
  8124  3b4e  119d72            	LD DE,N2DBUF+1
  8125  3b51  3620              	LD (HL), 32 ; space is ASCII 32
  8126                          N2DFILC: EQU $-1         ; address of fill-character
  8127  3b53  011200            	LD BC,18
  8128  3b56  edb0              	LDIR            ; fill 1st 19 bytes of buffer with spaces
  8129  3b58  ed43af72          	LD (N2DEND-1),BC ;set BCD value to "0" & place terminating 0
  8130  3b5c  1e01              	LD E,1          ; no. of bytes in BCD value
  8131  3b5e  219c72            	LD HL,N2DINV+8  ; (address MSB input)+1
  8132  3b61  010909            	LD BC, $0909
  8133  3b64  af                	XOR A
  8134  3b65  05                N2DSKP0: DEC B
  8135  3b66  2829              	JR Z,N2DSIZ     ; all 0: continue with postprocessing
  8136  3b68  2b                	DEC HL
  8137  3b69  b6                	OR (HL)         ; find first byte <>0
  8138  3b6a  28f9              	JR Z,N2DSKP0
  8139  3b6c  0d                N2DFND1: DEC C
  8140  3b6d  17                	RLA
  8141  3b6e  30fc              	JR NC,N2DFND1   ; determine no. of most significant 1-bit
  8142  3b70  1f                	RRA
  8143  3b71  57                	LD D,A          ; byte from binary input value
  8144  3b72  e5                N2DLUS2: PUSH HL
  8145  3b73  c5                	PUSH BC
  8146  3b74  21af72            N2DLUS1: LD HL,N2DEND-1  ; address LSB of BCD value
  8147  3b77  43                	LD B,E          ; current length of BCD value in bytes
  8148  3b78  cb12              	RL D            ; highest bit from input value -> carry
  8149  3b7a  7e                N2DLUS0: LD A, (HL)
  8150  3b7b  8f                	ADC A,A
  8151  3b7c  27                	DAA
  8152  3b7d  77                	LD (HL),A       ; double 1 BCD byte from intermediate result
  8153  3b7e  2b                	DEC HL
  8154  3b7f  10f9              	DJNZ N2DLUS0    ; and go on to double entire BCD value (+carry!)
  8155  3b81  3003              	JR NC,N2DNXT
  8156  3b83  1c                	INC E           ; carry at MSB -> BCD value grew 1 byte larger
  8157  3b84  3601              	LD (HL),1       ; initialize new MSB of BCD value
  8158  3b86  0d                N2DNXT:  DEC C
  8159  3b87  20eb              	JR NZ,N2DLUS1   ; repeat for remaining bits from 1 input byte
  8160  3b89  c1                	POP BC          ; no. of remaining bytes in input value
  8161  3b8a  0e08              	LD C,8          ; reset bit-counter
  8162  3b8c  e1                	POP HL          ; pointer to byte from input value
  8163  3b8d  2b                	DEC HL
  8164  3b8e  56                	LD D,(HL)       ; get next group of 8 bits
  8165  3b8f  10e1              	DJNZ N2DLUS2    ; and repeat until last byte from input value
  8166  3b91  21b072            N2DSIZ:  LD HL,N2DEND    ; address of terminating 0
  8167  3b94  4b                	LD C,E          ; size of BCD value in bytes
  8168  3b95  b7                	OR A
  8169  3b96  ed42              	SBC HL,BC       ; calculate address of MSB BCD
  8170  3b98  54                	LD D,H
  8171  3b99  5d                	LD E,L
  8172  3b9a  ed42              	SBC HL,BC
  8173  3b9c  eb                	EX DE,HL        ; HL=address BCD value, DE=start of decimal value
  8174  3b9d  41                	LD B,C          ; no. of bytes BCD
  8175  3b9e  cb21              	SLA C           ; no. of bytes decimal (possibly 1 too high)
  8176  3ba0  3e30              	LD A, 48 ; 0 is ASCII 48
  8177  3ba2  ed6f              	RLD             ; shift bits 4-7 of (HL) into bit 0-3 of A
  8178  3ba4  fe30              	CP 48           ; 0 is ASCII 48, (HL) was > 9h?
  8179  3ba6  2006              	JR NZ,N2DEXPH   ; if yes, start with recording high digit
  8180  3ba8  0d                	DEC C           ; correct number of decimals
  8181  3ba9  13                	INC DE          ; correct start address
  8182  3baa  1804              	JR N2DEXPL      ; continue with converting low digit
  8183  3bac  ed6f              N2DEXP:  RLD             ; shift high digit (HL) into low digit of A
  8184  3bae  12                N2DEXPH: LD (DE),A       ; record resulting ASCII-code
  8185  3baf  13                	INC DE
  8186  3bb0  ed6f              N2DEXPL: RLD
  8187  3bb2  12                	LD (DE),A
  8188  3bb3  13                	INC DE
  8189  3bb4  23                	INC HL          ; next BCD-byte
  8190  3bb5  10f5              	DJNZ N2DEXP     ; and go on to convert each BCD-byte into 2 ASCII
  8191  3bb7  ed42              	SBC HL,BC       ; return with HL pointing to 1st decimal
  8192  3bb9  c9                	RET
  8193                          numberToString_after:
  8194  3bba  2a9d00            	LD HL, (_reprintCreateCharacterScreen_Ttmp476)
  8195  3bbd  0600              	LD B, 0
  8196  3bbf  c5                	PUSH BC
  8197  3bc0  dde1              	POP IX
  8198  3bc2  cd3d3b            	CALL N2D16
  8199  3bc5  ed5ba700          	LD DE, (_reprintCreateCharacterScreen_Ttmp492)
  8200  3bc9  dd7c              	LD A, IXH
  8201  3bcb  fe00              	CP 0
  8202  3bcd  2805              	JR Z, _label533pos
  8203  3bcf  3e2d              	LD A, '-'
  8204  3bd1  12                	LD (DE), A
  8205  3bd2  13                	INC DE
  8206  3bd3  0c                	INC C
  8207                          _label533pos:
  8208  3bd4  79                	LD A, C
  8209  3bd5  329f00            	LD (_reprintCreateCharacterScreen_Ttmp479), A
  8210  3bd8  edb0              	LDIR
  8211  3bda  3ab400            	LD A, (_reprintCreateCharacterScreen_Ttmp530)
  8212  3bdd  47                	LD B, A
  8213  3bde  3a9f00            	LD A, (_reprintCreateCharacterScreen_Ttmp479)
  8214  3be1  4f                	LD C, A
  8215  3be2  cdae01            	CALL DSRESIZE
  8216  3be5  3ab400            	LD A, (_reprintCreateCharacterScreen_Ttmp530)
  8217  3be8  47                	LD B, A
  8218  3be9  cdaa02            	CALL DSDESCRIPTOR
  8219  3bec  dd7e00            	LD A, (IX)
  8220  3bef  32a000            	LD (_reprintCreateCharacterScreen_Ttmp481), A
  8221  3bf2  dd7e01            	LD A, (IX+1)
  8222  3bf5  32a900            	LD (_reprintCreateCharacterScreen_Ttmp493), A
  8223  3bf8  dd7e02            	LD A, (IX+2)
  8224  3bfb  32aa00            	LD (_reprintCreateCharacterScreen_Ttmp493+1), A
  8225  3bfe  3aa000            	LD A, (_reprintCreateCharacterScreen_Ttmp481)
  8226  3c01  4f                	LD C, A
  8227  3c02  0600              	LD B, 0
  8228  3c04  2aa900            	LD HL, (_reprintCreateCharacterScreen_Ttmp493)
  8229  3c07  cda62c            	CALL TEXTAT
  8230  3c0a  3ab400            	LD A, (_reprintCreateCharacterScreen_Ttmp530)
  8231  3c0d  47                	LD B, A
  8232  3c0e  cd6501            	CALL DSFREE
  8233  3c11  3e00              	LD A, $00
  8234  3c13  320d71            	LD (XCURSYS), A
  8235  3c16  3a0e71            	LD A, (YCURSYS)
  8236  3c19  3c                	INC A
  8237  3c1a  320e71            	LD (YCURSYS), A
  8238  3c1d  3a1b71            	LD A, (CURRENTTILESHEIGHT)
  8239  3c20  47                	LD B, A
  8240  3c21  3a0e71            	LD A, (YCURSYS)
  8241  3c24  b8                	CP B
  8242  3c25  3807              	JR C, _label536
  8243                          ; peephole(1): r228 (LD A, 0)->(XOR A)
  8244                          ;	LD A, 0
  8245  3c27  af                	XOR A
  8246  3c28  32b100            	LD (_reprintCreateCharacterScreen_Ttmp505), A
  8247  3c2b  c3333c            	JMP _label536b2
  8248                          _label536:
  8249  3c2e  3eff              	LD A, $ff
  8250  3c30  32b100            	LD (_reprintCreateCharacterScreen_Ttmp505), A
  8251                          _label536b2:
  8252  3c33  3ab100            	LD A, (_reprintCreateCharacterScreen_Ttmp505)
  8253                          ; peephole(1): r319 (XOR $FF)->(CPL)
  8254                          ;	XOR $FF
  8255  3c36  2f                	CPL
  8256  3c37  32b100            	LD (_reprintCreateCharacterScreen_Ttmp505), A
  8257  3c3a  3ab100            	LD A, (_reprintCreateCharacterScreen_Ttmp505)
  8258  3c3d  fe00              	CP 0
  8259  3c3f  c2453c            	JP NZ, _label537
  8260  3c42  c3483c            	JMP _label537b2
  8261                          _label537:
  8262  3c45  c34b3c            	JMP _label534scroll
  8263                          _label537b2:
  8264  3c48  c35d3c            	jp _label534end
  8265                          _label534scroll:
  8266  3c4b  3ef8              	LD A, $f8
  8267  3c4d  cd0d28            	CALL VSCROLL
  8268  3c50  3a1b71            	LD A, (CURRENTTILESHEIGHT)
  8269  3c53  320e71            	LD (YCURSYS), A
  8270  3c56  3a0e71            	LD A, (YCURSYS)
  8271  3c59  3d                	DEC A
  8272  3c5a  320e71            	LD (YCURSYS), A
  8273                          _label534end:
  8274                          	; P:190
  8275                          	; L:174
  8276                          _label502f:
  8277                          _label502e0:
  8278                          	; P:2
  8279                          	; L:175
  8280  3c5d  3e00              	LD A, $00
  8281  3c5f  32a400            	LD (_reprintCreateCharacterScreen_Ttmp490), A
  8282                          ; peephole(1): r250 (LD A, x; LD (x), A; LD A, x)->(LD A, x; LD (x), A)
  8283                          ;	LD A, $00
  8284  3c62  32a500            	LD (_reprintCreateCharacterScreen_Ttmp490+1), A
  8285  3c65  2aa400            	LD HL, (_reprintCreateCharacterScreen_Ttmp490)
  8286  3c68  ed5bb172          	LD DE, (_reprintCreateCharacterScreen_c)
  8287  3c6c  19                	ADD HL, DE
  8288  3c6d  22a400            	LD (_reprintCreateCharacterScreen_Ttmp490), HL
  8289  3c70  e600              	AND $0
  8290  3c72  2aa400            	LD HL, (_reprintCreateCharacterScreen_Ttmp490)
  8291  3c75  115871            	LD DE, _options
  8292  3c78  19                	ADD HL, DE
  8293  3c79  22a400            	LD (_reprintCreateCharacterScreen_Ttmp490), HL
  8294  3c7c  ed5ba400          	LD DE, (_reprintCreateCharacterScreen_Ttmp490)
  8295  3c80  1a                	LD A, (DE)
  8296  3c81  32b600            	LD (_reprintCreateCharacterScreen_Ttmp540), A
  8297  3c84  3ab600            	LD A, (_reprintCreateCharacterScreen_Ttmp540)
  8298  3c87  47                	LD B, A
  8299  3c88  cdaa02            	CALL DSDESCRIPTOR
  8300  3c8b  dd7e00            	LD A, (IX)
  8301  3c8e  329c00            	LD (_reprintCreateCharacterScreen_Ttmp475), A
  8302  3c91  dd7e01            	LD A, (IX+1)
  8303  3c94  32a700            	LD (_reprintCreateCharacterScreen_Ttmp492), A
  8304  3c97  dd7e02            	LD A, (IX+2)
  8305  3c9a  32a800            	LD (_reprintCreateCharacterScreen_Ttmp492+1), A
  8306  3c9d  3ab500            	LD A, (_reprintCreateCharacterScreen_Ttmp539)
  8307  3ca0  47                	LD B, A
  8308  3ca1  cd6501            	CALL DSFREE
  8309  3ca4  3a9c00            	LD A, (_reprintCreateCharacterScreen_Ttmp475)
  8310  3ca7  4f                	LD C, A
  8311  3ca8  cd4e01            	CALL DSALLOC
  8312  3cab  78                	LD A, B
  8313  3cac  32b500            	LD (_reprintCreateCharacterScreen_Ttmp539), A
  8314  3caf  3ab500            	LD A, (_reprintCreateCharacterScreen_Ttmp539)
  8315  3cb2  47                	LD B, A
  8316  3cb3  cdaa02            	CALL DSDESCRIPTOR
  8317  3cb6  dd7e00            	LD A, (IX)
  8318  3cb9  329f00            	LD (_reprintCreateCharacterScreen_Ttmp479), A
  8319  3cbc  dd7e01            	LD A, (IX+1)
  8320  3cbf  32a900            	LD (_reprintCreateCharacterScreen_Ttmp493), A
  8321  3cc2  dd7e02            	LD A, (IX+2)
  8322  3cc5  32aa00            	LD (_reprintCreateCharacterScreen_Ttmp493+1), A
  8323  3cc8  2aa700            	LD HL, (_reprintCreateCharacterScreen_Ttmp492)
  8324  3ccb  ed5ba900          	LD DE, (_reprintCreateCharacterScreen_Ttmp493)
  8325  3ccf  3a9c00            	LD A, (_reprintCreateCharacterScreen_Ttmp475)
  8326  3cd2  4f                	LD C, A
  8327  3cd3  0600              	LD B, 0
  8328  3cd5  cdee02            	CALL DUFFDEVICE
  8329  3cd8  3a0000            	LD A, (_reprintCreateCharacterScreen_Tstr541)
  8330  3cdb  32a100            	LD (_reprintCreateCharacterScreen_Ttmp482), A
  8331  3cde  3ab500            	LD A, (_reprintCreateCharacterScreen_Ttmp539)
  8332  3ce1  47                	LD B, A
  8333  3ce2  cdaa02            	CALL DSDESCRIPTOR
  8334  3ce5  dd7e00            	LD A, (IX)
  8335  3ce8  32a000            	LD (_reprintCreateCharacterScreen_Ttmp481), A
  8336  3ceb  dd7e01            	LD A, (IX+1)
  8337  3cee  32ab00            	LD (_reprintCreateCharacterScreen_Ttmp497), A
  8338  3cf1  dd7e02            	LD A, (IX+2)
  8339  3cf4  32ac00            	LD (_reprintCreateCharacterScreen_Ttmp497+1), A
  8340  3cf7  3aa000            	LD A, (_reprintCreateCharacterScreen_Ttmp481)
  8341  3cfa  47                	LD B, A
  8342  3cfb  3aa100            	LD A, (_reprintCreateCharacterScreen_Ttmp482)
  8343  3cfe  b8                	CP B
  8344  3cff  c20a3d            	JP NZ, _label544
  8345  3d02  3eff              	LD A, $ff
  8346  3d04  32a200            	LD (_reprintCreateCharacterScreen_Ttmp485), A
  8347  3d07  c30f3d            	JMP _label544b2
  8348                          _label544:
  8349  3d0a  3e00              	LD A, $00
  8350  3d0c  32a200            	LD (_reprintCreateCharacterScreen_Ttmp485), A
  8351                          _label544b2:
  8352  3d0f  3aa200            	LD A, (_reprintCreateCharacterScreen_Ttmp485)
  8353  3d12  fe00              	CP 0
  8354  3d14  ca1a3d            	JP Z, _label545
  8355  3d17  c31d3d            	JMP _label545b2
  8356                          _label545:
  8357  3d1a  c3513d            	JMP _label543
  8358                          _label545b2:
  8359  3d1d  210000            	LD HL, _reprintCreateCharacterScreen_Tstr541
  8360  3d20  22ad00            	LD (_reprintCreateCharacterScreen_Ttmp498), HL
  8361  3d23  2aad00            	LD HL, (_reprintCreateCharacterScreen_Ttmp498)
  8362  3d26  23                	INC HL
  8363  3d27  22ad00            	LD (_reprintCreateCharacterScreen_Ttmp498), HL
  8364  3d2a  3aa000            	LD A, (_reprintCreateCharacterScreen_Ttmp481)
  8365  3d2d  fe00              	CP 0
  8366  3d2f  2813              	JR Z, _label546equal
  8367  3d31  4f                	LD C, A
  8368  3d32  2aab00            	LD HL, (_reprintCreateCharacterScreen_Ttmp497)
  8369  3d35  ed5bad00          	LD DE, (_reprintCreateCharacterScreen_Ttmp498)
  8370                          _label546:
  8371  3d39  7e                	LD A, (HL)
  8372  3d3a  47                	LD B, A
  8373  3d3b  1a                	LD A, (DE)
  8374  3d3c  b8                	CP B
  8375  3d3d  200d              	JR NZ, _label546diff
  8376  3d3f  13                	INC DE
  8377  3d40  23                	INC HL
  8378  3d41  0d                	DEC C
  8379  3d42  20f5              	JR NZ, _label546
  8380                          _label546equal:
  8381  3d44  3eff              	LD A, $ff
  8382  3d46  32a200            	LD (_reprintCreateCharacterScreen_Ttmp485), A
  8383  3d49  c3513d            	JMP _label546final
  8384                          _label546diff:
  8385  3d4c  3e00              	LD A, $00
  8386  3d4e  32a200            	LD (_reprintCreateCharacterScreen_Ttmp485), A
  8387                          _label546final:
  8388                          _label543:
  8389  3d51  3aa200            	LD A, (_reprintCreateCharacterScreen_Ttmp485)
  8390  3d54  fe00              	CP 0
  8391  3d56  ca5c3d            	JP Z, _label548
  8392  3d59  c35f3d            	JMP _label548b2
  8393                          _label548:
  8394  3d5c  c31d40            	JMP _label547e0
  8395                          _label548b2:
  8396                          _label547t:
  8397                          	; P:116
  8398                          	; L:176
  8399  3d5f  3e07              	LD A, $07
  8400  3d61  329c00            	LD (_reprintCreateCharacterScreen_Ttmp475), A
  8401  3d64  3e03              	LD A, $03
  8402  3d66  329d00            	LD (_reprintCreateCharacterScreen_Ttmp476), A
  8403  3d69  3e00              	LD A, $00
  8404  3d6b  329e00            	LD (_reprintCreateCharacterScreen_Ttmp476+1), A
  8405  3d6e  2a9d00            	LD HL, (_reprintCreateCharacterScreen_Ttmp476)
  8406  3d71  ed5bb172          	LD DE, (_reprintCreateCharacterScreen_c)
  8407  3d75  19                	ADD HL, DE
  8408  3d76  22af00            	LD (_reprintCreateCharacterScreen_Ttmp504), HL
  8409                          	 ; variable_move_8bit_8bit
  8410                          	 ; 8 BIT (unsigned) -> 8 BIT (unsigned)
  8411  3d79  3a9c00            	LD A, (_reprintCreateCharacterScreen_Ttmp475)
  8412  3d7c  320d71            	LD (XCURSYS), A
  8413  3d7f  3ab000            	LD A, (_reprintCreateCharacterScreen_Ttmp504+1)
  8414  3d82  e680              	AND $80
  8415  3d84  fe00              	CP 0
  8416  3d86  2808              	JR Z,_label550
  8417  3d88  3eff              	LD A, $FF
  8418  3d8a  32a100            	LD (_reprintCreateCharacterScreen_Ttmp482), A
  8419  3d8d  c3953d            	JMP _label550done
  8420                          _label550:
  8421  3d90  3e00              	LD A, $0
  8422  3d92  32a100            	LD (_reprintCreateCharacterScreen_Ttmp482), A
  8423                          _label550done:
  8424  3d95  3aa100            	LD A, (_reprintCreateCharacterScreen_Ttmp482)
  8425  3d98  fe00              	CP 0
  8426  3d9a  caa03d            	JP Z, _label551
  8427  3d9d  c3a33d            	JMP _label551b2
  8428                          _label551:
  8429  3da0  c3d73d            	JMP _label549
  8430                          _label551b2:
  8431  3da3  3aaf00            	LD A, (_reprintCreateCharacterScreen_Ttmp504)
  8432                          ; peephole(1): r319 (XOR $FF)->(CPL)
  8433                          ;	XOR $FF
  8434  3da6  2f                	CPL
  8435  3da7  32b200            	LD (_reprintCreateCharacterScreen_Ttmp506), A
  8436  3daa  3ab000            	LD A, (_reprintCreateCharacterScreen_Ttmp504+1)
  8437                          ; peephole(1): r319 (XOR $FF)->(CPL)
  8438                          ;	XOR $FF
  8439  3dad  2f                	CPL
  8440  3dae  32b300            	LD (_reprintCreateCharacterScreen_Ttmp506+1), A
  8441  3db1  2ab200            	LD HL, (_reprintCreateCharacterScreen_Ttmp506)
  8442  3db4  23                	INC HL
  8443  3db5  22b200            	LD (_reprintCreateCharacterScreen_Ttmp506), HL
  8444  3db8  3ab200            	LD A, (_reprintCreateCharacterScreen_Ttmp506)
  8445  3dbb  32b100            	LD (_reprintCreateCharacterScreen_Ttmp505), A
  8446  3dbe  3ab100            	LD A, (_reprintCreateCharacterScreen_Ttmp505)
  8447  3dc1  e67f              	AND $7f
  8448  3dc3  32b100            	LD (_reprintCreateCharacterScreen_Ttmp505), A
  8449  3dc6  3ab100            	LD A, (_reprintCreateCharacterScreen_Ttmp505)
  8450                          ; peephole(1): r319 (XOR $FF)->(CPL)
  8451                          ;	XOR $FF
  8452  3dc9  2f                	CPL
  8453  3dca  32b100            	LD (_reprintCreateCharacterScreen_Ttmp505), A
  8454  3dcd  3ab100            	LD A, (_reprintCreateCharacterScreen_Ttmp505)
  8455  3dd0  3c                	INC A
  8456  3dd1  32b100            	LD (_reprintCreateCharacterScreen_Ttmp505), A
  8457  3dd4  c3e53d            	jp _label549done
  8458                          _label549:
  8459  3dd7  3aaf00            	LD A, (_reprintCreateCharacterScreen_Ttmp504)
  8460  3dda  32b100            	LD (_reprintCreateCharacterScreen_Ttmp505), A
  8461  3ddd  3ab100            	LD A, (_reprintCreateCharacterScreen_Ttmp505)
  8462  3de0  e67f              	AND $7f
  8463  3de2  32b100            	LD (_reprintCreateCharacterScreen_Ttmp505), A
  8464                          _label549done:
  8465                          	 ; variable_move_8bit_8bit
  8466                          	 ; 8 BIT (signed) -> 8 BIT (unsigned)
  8467  3de5  3ab100            	LD A, (_reprintCreateCharacterScreen_Ttmp505)
  8468  3de8  320e71            	LD (YCURSYS), A
  8469  3deb  3a0e71            	LD A, (YCURSYS)
  8470  3dee  e680              	AND $80
  8471  3df0  fe00              	CP 0
  8472  3df2  2805              	JR Z,_label553
  8473  3df4  3eff              	LD A, $FF
  8474                          ; peephole(3): unread
  8475                          ;	LD (_reprintCreateCharacterScreen_Ttmp512), A
  8476  3df6  c3fb3d            	JMP _label553done
  8477                          _label553:
  8478  3df9  3e00              	LD A, $0
  8479                          ; peephole(3): unread
  8480                          ;	LD (_reprintCreateCharacterScreen_Ttmp512), A
  8481                          _label553done:
  8482  3dfb  ca013e            	JP Z, _label554
  8483  3dfe  c3043e            	JMP _label554b2
  8484                          _label554:
  8485  3e01  c3123e            	JMP _label552
  8486                          _label554b2:
  8487  3e04  3a0e71            	LD A, (YCURSYS)
  8488                          ; peephole(1): r319 (XOR $FF)->(CPL)
  8489                          ;	XOR $FF
  8490  3e07  2f                	CPL
  8491  3e08  320e71            	LD (YCURSYS), A
  8492  3e0b  3a0e71            	LD A, (YCURSYS)
  8493  3e0e  3c                	INC A
  8494  3e0f  320e71            	LD (YCURSYS), A
  8495                          _label552:
  8496                          	; P:83
  8497                          	; L:177
  8498  3e12  3a0000            	LD A, (_reprintCreateCharacterScreen_Tstr555)
  8499  3e15  329c00            	LD (_reprintCreateCharacterScreen_Ttmp475), A
  8500  3e18  210000            	LD HL, _reprintCreateCharacterScreen_Tstr555
  8501  3e1b  22a700            	LD (_reprintCreateCharacterScreen_Ttmp492), HL
  8502  3e1e  2aa700            	LD HL, (_reprintCreateCharacterScreen_Ttmp492)
  8503  3e21  23                	INC HL
  8504  3e22  22a700            	LD (_reprintCreateCharacterScreen_Ttmp492), HL
  8505  3e25  3a9c00            	LD A, (_reprintCreateCharacterScreen_Ttmp475)
  8506  3e28  4f                	LD C, A
  8507  3e29  0600              	LD B, 0
  8508  3e2b  2aa700            	LD HL, (_reprintCreateCharacterScreen_Ttmp492)
  8509  3e2e  cda62c            	CALL TEXTAT
  8510  3e31  3e00              	LD A, $00
  8511  3e33  320d71            	LD (XCURSYS), A
  8512  3e36  3a0e71            	LD A, (YCURSYS)
  8513  3e39  3c                	INC A
  8514  3e3a  320e71            	LD (YCURSYS), A
  8515  3e3d  3a1b71            	LD A, (CURRENTTILESHEIGHT)
  8516  3e40  47                	LD B, A
  8517  3e41  3a0e71            	LD A, (YCURSYS)
  8518  3e44  b8                	CP B
  8519  3e45  3807              	JR C, _label559
  8520                          ; peephole(1): r228 (LD A, 0)->(XOR A)
  8521                          ;	LD A, 0
  8522  3e47  af                	XOR A
  8523  3e48  32b100            	LD (_reprintCreateCharacterScreen_Ttmp505), A
  8524  3e4b  c3533e            	JMP _label559b2
  8525                          _label559:
  8526  3e4e  3eff              	LD A, $ff
  8527  3e50  32b100            	LD (_reprintCreateCharacterScreen_Ttmp505), A
  8528                          _label559b2:
  8529  3e53  3ab100            	LD A, (_reprintCreateCharacterScreen_Ttmp505)
  8530                          ; peephole(1): r319 (XOR $FF)->(CPL)
  8531                          ;	XOR $FF
  8532  3e56  2f                	CPL
  8533  3e57  32b100            	LD (_reprintCreateCharacterScreen_Ttmp505), A
  8534  3e5a  3ab100            	LD A, (_reprintCreateCharacterScreen_Ttmp505)
  8535  3e5d  fe00              	CP 0
  8536  3e5f  c2653e            	JP NZ, _label560
  8537  3e62  c3683e            	JMP _label560b2
  8538                          _label560:
  8539  3e65  c36b3e            	JMP _label557scroll
  8540                          _label560b2:
  8541  3e68  c37d3e            	jp _label557end
  8542                          _label557scroll:
  8543  3e6b  3ef8              	LD A, $f8
  8544  3e6d  cd0d28            	CALL VSCROLL
  8545  3e70  3a1b71            	LD A, (CURRENTTILESHEIGHT)
  8546  3e73  320e71            	LD (YCURSYS), A
  8547  3e76  3a0e71            	LD A, (YCURSYS)
  8548  3e79  3d                	DEC A
  8549  3e7a  320e71            	LD (YCURSYS), A
  8550                          _label557end:
  8551                          	; P:49
  8552                          	; L:178
  8553  3e7d  3e07              	LD A, $07
  8554  3e7f  329c00            	LD (_reprintCreateCharacterScreen_Ttmp475), A
  8555  3e82  3e03              	LD A, $03
  8556  3e84  329d00            	LD (_reprintCreateCharacterScreen_Ttmp476), A
  8557  3e87  3e00              	LD A, $00
  8558  3e89  329e00            	LD (_reprintCreateCharacterScreen_Ttmp476+1), A
  8559  3e8c  2a9d00            	LD HL, (_reprintCreateCharacterScreen_Ttmp476)
  8560  3e8f  ed5bb172          	LD DE, (_reprintCreateCharacterScreen_c)
  8561  3e93  19                	ADD HL, DE
  8562  3e94  22af00            	LD (_reprintCreateCharacterScreen_Ttmp504), HL
  8563                          	 ; variable_move_8bit_8bit
  8564                          	 ; 8 BIT (unsigned) -> 8 BIT (unsigned)
  8565  3e97  3a9c00            	LD A, (_reprintCreateCharacterScreen_Ttmp475)
  8566  3e9a  320d71            	LD (XCURSYS), A
  8567  3e9d  3ab000            	LD A, (_reprintCreateCharacterScreen_Ttmp504+1)
  8568  3ea0  e680              	AND $80
  8569  3ea2  fe00              	CP 0
  8570  3ea4  2808              	JR Z,_label562
  8571  3ea6  3eff              	LD A, $FF
  8572  3ea8  32a100            	LD (_reprintCreateCharacterScreen_Ttmp482), A
  8573  3eab  c3b33e            	JMP _label562done
  8574                          _label562:
  8575  3eae  3e00              	LD A, $0
  8576  3eb0  32a100            	LD (_reprintCreateCharacterScreen_Ttmp482), A
  8577                          _label562done:
  8578  3eb3  3aa100            	LD A, (_reprintCreateCharacterScreen_Ttmp482)
  8579  3eb6  fe00              	CP 0
  8580  3eb8  cabe3e            	JP Z, _label563
  8581  3ebb  c3c13e            	JMP _label563b2
  8582                          _label563:
  8583  3ebe  c3f53e            	JMP _label561
  8584                          _label563b2:
  8585  3ec1  3aaf00            	LD A, (_reprintCreateCharacterScreen_Ttmp504)
  8586                          ; peephole(1): r319 (XOR $FF)->(CPL)
  8587                          ;	XOR $FF
  8588  3ec4  2f                	CPL
  8589  3ec5  32b200            	LD (_reprintCreateCharacterScreen_Ttmp506), A
  8590  3ec8  3ab000            	LD A, (_reprintCreateCharacterScreen_Ttmp504+1)
  8591                          ; peephole(1): r319 (XOR $FF)->(CPL)
  8592                          ;	XOR $FF
  8593  3ecb  2f                	CPL
  8594  3ecc  32b300            	LD (_reprintCreateCharacterScreen_Ttmp506+1), A
  8595  3ecf  2ab200            	LD HL, (_reprintCreateCharacterScreen_Ttmp506)
  8596  3ed2  23                	INC HL
  8597  3ed3  22b200            	LD (_reprintCreateCharacterScreen_Ttmp506), HL
  8598  3ed6  3ab200            	LD A, (_reprintCreateCharacterScreen_Ttmp506)
  8599  3ed9  32b100            	LD (_reprintCreateCharacterScreen_Ttmp505), A
  8600  3edc  3ab100            	LD A, (_reprintCreateCharacterScreen_Ttmp505)
  8601  3edf  e67f              	AND $7f
  8602  3ee1  32b100            	LD (_reprintCreateCharacterScreen_Ttmp505), A
  8603  3ee4  3ab100            	LD A, (_reprintCreateCharacterScreen_Ttmp505)
  8604                          ; peephole(1): r319 (XOR $FF)->(CPL)
  8605                          ;	XOR $FF
  8606  3ee7  2f                	CPL
  8607  3ee8  32b100            	LD (_reprintCreateCharacterScreen_Ttmp505), A
  8608  3eeb  3ab100            	LD A, (_reprintCreateCharacterScreen_Ttmp505)
  8609  3eee  3c                	INC A
  8610  3eef  32b100            	LD (_reprintCreateCharacterScreen_Ttmp505), A
  8611  3ef2  c3033f            	jp _label561done
  8612                          _label561:
  8613  3ef5  3aaf00            	LD A, (_reprintCreateCharacterScreen_Ttmp504)
  8614  3ef8  32b100            	LD (_reprintCreateCharacterScreen_Ttmp505), A
  8615  3efb  3ab100            	LD A, (_reprintCreateCharacterScreen_Ttmp505)
  8616  3efe  e67f              	AND $7f
  8617  3f00  32b100            	LD (_reprintCreateCharacterScreen_Ttmp505), A
  8618                          _label561done:
  8619                          	 ; variable_move_8bit_8bit
  8620                          	 ; 8 BIT (signed) -> 8 BIT (unsigned)
  8621  3f03  3ab100            	LD A, (_reprintCreateCharacterScreen_Ttmp505)
  8622  3f06  320e71            	LD (YCURSYS), A
  8623  3f09  3a0e71            	LD A, (YCURSYS)
  8624  3f0c  e680              	AND $80
  8625  3f0e  fe00              	CP 0
  8626  3f10  2805              	JR Z,_label565
  8627  3f12  3eff              	LD A, $FF
  8628                          ; peephole(3): unread
  8629                          ;	LD (_reprintCreateCharacterScreen_Ttmp512), A
  8630  3f14  c3193f            	JMP _label565done
  8631                          _label565:
  8632  3f17  3e00              	LD A, $0
  8633                          ; peephole(3): unread
  8634                          ;	LD (_reprintCreateCharacterScreen_Ttmp512), A
  8635                          _label565done:
  8636  3f19  ca1f3f            	JP Z, _label566
  8637  3f1c  c3223f            	JMP _label566b2
  8638                          _label566:
  8639  3f1f  c3303f            	JMP _label564
  8640                          _label566b2:
  8641  3f22  3a0e71            	LD A, (YCURSYS)
  8642                          ; peephole(1): r319 (XOR $FF)->(CPL)
  8643                          ;	XOR $FF
  8644  3f25  2f                	CPL
  8645  3f26  320e71            	LD (YCURSYS), A
  8646  3f29  3a0e71            	LD A, (YCURSYS)
  8647  3f2c  3c                	INC A
  8648  3f2d  320e71            	LD (YCURSYS), A
  8649                          _label564:
  8650                          	; P:83
  8651                          	; L:179
  8652  3f30  3e00              	LD A, $00
  8653  3f32  329c00            	LD (_reprintCreateCharacterScreen_Ttmp475), A
  8654  3f35  217172            	LD HL, _partyskill
  8655  3f38  3a9c00            	LD A, (_reprintCreateCharacterScreen_Ttmp475)
  8656  3f3b  5f                	LD E, A
  8657                          ; peephole(1): r228 (LD A, 0)->(XOR A)
  8658                          ;	LD A, 0
  8659  3f3c  af                	XOR A
  8660  3f3d  57                	LD D, A
  8661  3f3e  19                	ADD HL, DE
  8662  3f3f  19                	ADD HL, DE
  8663  3f40  7e                	LD A, (HL)
  8664  3f41  329d00            	LD (_reprintCreateCharacterScreen_Ttmp476), A
  8665  3f44  23                	INC HL
  8666  3f45  7e                	LD A, (HL)
  8667  3f46  329e00            	LD (_reprintCreateCharacterScreen_Ttmp476+1), A
  8668  3f49  3ab700            	LD A, (_reprintCreateCharacterScreen_Ttmp569)
  8669  3f4c  47                	LD B, A
  8670  3f4d  cd6501            	CALL DSFREE
  8671  3f50  210000            	LD HL, _reprintCreateCharacterScreen_Tstr570
  8672  3f53  cd3701            	CALL DSDEFINE
  8673  3f56  78                	LD A, B
  8674  3f57  32b700            	LD (_reprintCreateCharacterScreen_Ttmp569), A
  8675  3f5a  3ab700            	LD A, (_reprintCreateCharacterScreen_Ttmp569)
  8676  3f5d  47                	LD B, A
  8677  3f5e  cd6d01            	CALL DSWRITE
  8678  3f61  3ab700            	LD A, (_reprintCreateCharacterScreen_Ttmp569)
  8679  3f64  47                	LD B, A
  8680  3f65  cdaa02            	CALL DSDESCRIPTOR
  8681  3f68  dd7e00            	LD A, (IX)
  8682  3f6b  329f00            	LD (_reprintCreateCharacterScreen_Ttmp479), A
  8683  3f6e  dd7e01            	LD A, (IX+1)
  8684  3f71  32a700            	LD (_reprintCreateCharacterScreen_Ttmp492), A
  8685  3f74  dd7e02            	LD A, (IX+2)
  8686  3f77  32a800            	LD (_reprintCreateCharacterScreen_Ttmp492+1), A
  8687  3f7a  2a9d00            	LD HL, (_reprintCreateCharacterScreen_Ttmp476)
  8688  3f7d  0600              	LD B, 0
  8689  3f7f  c5                	PUSH BC
  8690  3f80  dde1              	POP IX
  8691  3f82  cd3d3b            	CALL N2D16
  8692  3f85  ed5ba700          	LD DE, (_reprintCreateCharacterScreen_Ttmp492)
  8693  3f89  dd7c              	LD A, IXH
  8694  3f8b  fe00              	CP 0
  8695  3f8d  2805              	JR Z, _label571pos
  8696  3f8f  3e2d              	LD A, '-'
  8697  3f91  12                	LD (DE), A
  8698  3f92  13                	INC DE
  8699  3f93  0c                	INC C
  8700                          _label571pos:
  8701  3f94  79                	LD A, C
  8702  3f95  329f00            	LD (_reprintCreateCharacterScreen_Ttmp479), A
  8703  3f98  edb0              	LDIR
  8704  3f9a  3ab700            	LD A, (_reprintCreateCharacterScreen_Ttmp569)
  8705  3f9d  47                	LD B, A
  8706  3f9e  3a9f00            	LD A, (_reprintCreateCharacterScreen_Ttmp479)
  8707  3fa1  4f                	LD C, A
  8708  3fa2  cdae01            	CALL DSRESIZE
  8709  3fa5  3ab700            	LD A, (_reprintCreateCharacterScreen_Ttmp569)
  8710  3fa8  47                	LD B, A
  8711  3fa9  cdaa02            	CALL DSDESCRIPTOR
  8712  3fac  dd7e00            	LD A, (IX)
  8713  3faf  32a000            	LD (_reprintCreateCharacterScreen_Ttmp481), A
  8714  3fb2  dd7e01            	LD A, (IX+1)
  8715  3fb5  32a900            	LD (_reprintCreateCharacterScreen_Ttmp493), A
  8716  3fb8  dd7e02            	LD A, (IX+2)
  8717  3fbb  32aa00            	LD (_reprintCreateCharacterScreen_Ttmp493+1), A
  8718  3fbe  3aa000            	LD A, (_reprintCreateCharacterScreen_Ttmp481)
  8719  3fc1  4f                	LD C, A
  8720  3fc2  0600              	LD B, 0
  8721  3fc4  2aa900            	LD HL, (_reprintCreateCharacterScreen_Ttmp493)
  8722  3fc7  cda62c            	CALL TEXTAT
  8723  3fca  3ab700            	LD A, (_reprintCreateCharacterScreen_Ttmp569)
  8724  3fcd  47                	LD B, A
  8725  3fce  cd6501            	CALL DSFREE
  8726  3fd1  3e00              	LD A, $00
  8727  3fd3  320d71            	LD (XCURSYS), A
  8728  3fd6  3a0e71            	LD A, (YCURSYS)
  8729  3fd9  3c                	INC A
  8730  3fda  320e71            	LD (YCURSYS), A
  8731  3fdd  3a1b71            	LD A, (CURRENTTILESHEIGHT)
  8732  3fe0  47                	LD B, A
  8733  3fe1  3a0e71            	LD A, (YCURSYS)
  8734  3fe4  b8                	CP B
  8735  3fe5  3807              	JR C, _label574
  8736                          ; peephole(1): r228 (LD A, 0)->(XOR A)
  8737                          ;	LD A, 0
  8738  3fe7  af                	XOR A
  8739  3fe8  32b100            	LD (_reprintCreateCharacterScreen_Ttmp505), A
  8740  3feb  c3f33f            	JMP _label574b2
  8741                          _label574:
  8742  3fee  3eff              	LD A, $ff
  8743  3ff0  32b100            	LD (_reprintCreateCharacterScreen_Ttmp505), A
  8744                          _label574b2:
  8745  3ff3  3ab100            	LD A, (_reprintCreateCharacterScreen_Ttmp505)
  8746                          ; peephole(1): r319 (XOR $FF)->(CPL)
  8747                          ;	XOR $FF
  8748  3ff6  2f                	CPL
  8749  3ff7  32b100            	LD (_reprintCreateCharacterScreen_Ttmp505), A
  8750  3ffa  3ab100            	LD A, (_reprintCreateCharacterScreen_Ttmp505)
  8751  3ffd  fe00              	CP 0
  8752  3fff  c20540            	JP NZ, _label575
  8753  4002  c30840            	JMP _label575b2
  8754                          _label575:
  8755  4005  c30b40            	JMP _label572scroll
  8756                          _label575b2:
  8757  4008  c31d40            	jp _label572end
  8758                          _label572scroll:
  8759  400b  3ef8              	LD A, $f8
  8760  400d  cd0d28            	CALL VSCROLL
  8761  4010  3a1b71            	LD A, (CURRENTTILESHEIGHT)
  8762  4013  320e71            	LD (YCURSYS), A
  8763  4016  3a0e71            	LD A, (YCURSYS)
  8764  4019  3d                	DEC A
  8765  401a  320e71            	LD (YCURSYS), A
  8766                          _label572end:
  8767                          	; P:109
  8768                          	; L:180
  8769                          _label547f:
  8770                          _label547e0:
  8771                          	; P:2
  8772                          	; L:181
  8773  401d  3e00              	LD A, $00
  8774  401f  32a400            	LD (_reprintCreateCharacterScreen_Ttmp490), A
  8775                          ; peephole(1): r250 (LD A, x; LD (x), A; LD A, x)->(LD A, x; LD (x), A)
  8776                          ;	LD A, $00
  8777  4022  32a500            	LD (_reprintCreateCharacterScreen_Ttmp490+1), A
  8778  4025  2aa400            	LD HL, (_reprintCreateCharacterScreen_Ttmp490)
  8779  4028  ed5bb172          	LD DE, (_reprintCreateCharacterScreen_c)
  8780  402c  19                	ADD HL, DE
  8781  402d  22a400            	LD (_reprintCreateCharacterScreen_Ttmp490), HL
  8782  4030  e600              	AND $0
  8783  4032  2aa400            	LD HL, (_reprintCreateCharacterScreen_Ttmp490)
  8784  4035  115871            	LD DE, _options
  8785  4038  19                	ADD HL, DE
  8786  4039  22a400            	LD (_reprintCreateCharacterScreen_Ttmp490), HL
  8787  403c  ed5ba400          	LD DE, (_reprintCreateCharacterScreen_Ttmp490)
  8788  4040  1a                	LD A, (DE)
  8789  4041  32b900            	LD (_reprintCreateCharacterScreen_Ttmp578), A
  8790  4044  3ab900            	LD A, (_reprintCreateCharacterScreen_Ttmp578)
  8791  4047  47                	LD B, A
  8792  4048  cdaa02            	CALL DSDESCRIPTOR
  8793  404b  dd7e00            	LD A, (IX)
  8794  404e  329c00            	LD (_reprintCreateCharacterScreen_Ttmp475), A
  8795  4051  dd7e01            	LD A, (IX+1)
  8796  4054  32a700            	LD (_reprintCreateCharacterScreen_Ttmp492), A
  8797  4057  dd7e02            	LD A, (IX+2)
  8798  405a  32a800            	LD (_reprintCreateCharacterScreen_Ttmp492+1), A
  8799  405d  3ab800            	LD A, (_reprintCreateCharacterScreen_Ttmp577)
  8800  4060  47                	LD B, A
  8801  4061  cd6501            	CALL DSFREE
  8802  4064  3a9c00            	LD A, (_reprintCreateCharacterScreen_Ttmp475)
  8803  4067  4f                	LD C, A
  8804  4068  cd4e01            	CALL DSALLOC
  8805  406b  78                	LD A, B
  8806  406c  32b800            	LD (_reprintCreateCharacterScreen_Ttmp577), A
  8807  406f  3ab800            	LD A, (_reprintCreateCharacterScreen_Ttmp577)
  8808  4072  47                	LD B, A
  8809  4073  cdaa02            	CALL DSDESCRIPTOR
  8810  4076  dd7e00            	LD A, (IX)
  8811  4079  329f00            	LD (_reprintCreateCharacterScreen_Ttmp479), A
  8812  407c  dd7e01            	LD A, (IX+1)
  8813  407f  32a900            	LD (_reprintCreateCharacterScreen_Ttmp493), A
  8814  4082  dd7e02            	LD A, (IX+2)
  8815  4085  32aa00            	LD (_reprintCreateCharacterScreen_Ttmp493+1), A
  8816  4088  2aa700            	LD HL, (_reprintCreateCharacterScreen_Ttmp492)
  8817  408b  ed5ba900          	LD DE, (_reprintCreateCharacterScreen_Ttmp493)
  8818  408f  3a9c00            	LD A, (_reprintCreateCharacterScreen_Ttmp475)
  8819  4092  4f                	LD C, A
  8820  4093  0600              	LD B, 0
  8821  4095  cdee02            	CALL DUFFDEVICE
  8822  4098  3a0000            	LD A, (_reprintCreateCharacterScreen_Tstr579)
  8823  409b  32a100            	LD (_reprintCreateCharacterScreen_Ttmp482), A
  8824  409e  3ab800            	LD A, (_reprintCreateCharacterScreen_Ttmp577)
  8825  40a1  47                	LD B, A
  8826  40a2  cdaa02            	CALL DSDESCRIPTOR
  8827  40a5  dd7e00            	LD A, (IX)
  8828  40a8  32a000            	LD (_reprintCreateCharacterScreen_Ttmp481), A
  8829  40ab  dd7e01            	LD A, (IX+1)
  8830  40ae  32ab00            	LD (_reprintCreateCharacterScreen_Ttmp497), A
  8831  40b1  dd7e02            	LD A, (IX+2)
  8832  40b4  32ac00            	LD (_reprintCreateCharacterScreen_Ttmp497+1), A
  8833  40b7  3aa000            	LD A, (_reprintCreateCharacterScreen_Ttmp481)
  8834  40ba  47                	LD B, A
  8835  40bb  3aa100            	LD A, (_reprintCreateCharacterScreen_Ttmp482)
  8836  40be  b8                	CP B
  8837  40bf  c2ca40            	JP NZ, _label582
  8838  40c2  3eff              	LD A, $ff
  8839  40c4  32a200            	LD (_reprintCreateCharacterScreen_Ttmp485), A
  8840  40c7  c3cf40            	JMP _label582b2
  8841                          _label582:
  8842  40ca  3e00              	LD A, $00
  8843  40cc  32a200            	LD (_reprintCreateCharacterScreen_Ttmp485), A
  8844                          _label582b2:
  8845  40cf  3aa200            	LD A, (_reprintCreateCharacterScreen_Ttmp485)
  8846  40d2  fe00              	CP 0
  8847  40d4  cada40            	JP Z, _label583
  8848  40d7  c3dd40            	JMP _label583b2
  8849                          _label583:
  8850  40da  c31141            	JMP _label581
  8851                          _label583b2:
  8852  40dd  210000            	LD HL, _reprintCreateCharacterScreen_Tstr579
  8853  40e0  22ad00            	LD (_reprintCreateCharacterScreen_Ttmp498), HL
  8854  40e3  2aad00            	LD HL, (_reprintCreateCharacterScreen_Ttmp498)
  8855  40e6  23                	INC HL
  8856  40e7  22ad00            	LD (_reprintCreateCharacterScreen_Ttmp498), HL
  8857  40ea  3aa000            	LD A, (_reprintCreateCharacterScreen_Ttmp481)
  8858  40ed  fe00              	CP 0
  8859  40ef  2813              	JR Z, _label584equal
  8860  40f1  4f                	LD C, A
  8861  40f2  2aab00            	LD HL, (_reprintCreateCharacterScreen_Ttmp497)
  8862  40f5  ed5bad00          	LD DE, (_reprintCreateCharacterScreen_Ttmp498)
  8863                          _label584:
  8864  40f9  7e                	LD A, (HL)
  8865  40fa  47                	LD B, A
  8866  40fb  1a                	LD A, (DE)
  8867  40fc  b8                	CP B
  8868  40fd  200d              	JR NZ, _label584diff
  8869  40ff  13                	INC DE
  8870  4100  23                	INC HL
  8871  4101  0d                	DEC C
  8872  4102  20f5              	JR NZ, _label584
  8873                          _label584equal:
  8874  4104  3eff              	LD A, $ff
  8875  4106  32a200            	LD (_reprintCreateCharacterScreen_Ttmp485), A
  8876  4109  c31141            	JMP _label584final
  8877                          _label584diff:
  8878  410c  3e00              	LD A, $00
  8879  410e  32a200            	LD (_reprintCreateCharacterScreen_Ttmp485), A
  8880                          _label584final:
  8881                          _label581:
  8882  4111  3aa200            	LD A, (_reprintCreateCharacterScreen_Ttmp485)
  8883  4114  fe00              	CP 0
  8884  4116  ca1c41            	JP Z, _label586
  8885  4119  c31f41            	JMP _label586b2
  8886                          _label586:
  8887  411c  c3c443            	JMP _label585e0
  8888                          _label586b2:
  8889                          _label585t:
  8890                          	; P:116
  8891                          	; L:182
  8892  411f  3e0b              	LD A, $0b
  8893  4121  329c00            	LD (_reprintCreateCharacterScreen_Ttmp475), A
  8894  4124  3e03              	LD A, $03
  8895  4126  329d00            	LD (_reprintCreateCharacterScreen_Ttmp476), A
  8896  4129  3e00              	LD A, $00
  8897  412b  329e00            	LD (_reprintCreateCharacterScreen_Ttmp476+1), A
  8898  412e  2a9d00            	LD HL, (_reprintCreateCharacterScreen_Ttmp476)
  8899  4131  ed5bb172          	LD DE, (_reprintCreateCharacterScreen_c)
  8900  4135  19                	ADD HL, DE
  8901  4136  22af00            	LD (_reprintCreateCharacterScreen_Ttmp504), HL
  8902                          	 ; variable_move_8bit_8bit
  8903                          	 ; 8 BIT (unsigned) -> 8 BIT (unsigned)
  8904  4139  3a9c00            	LD A, (_reprintCreateCharacterScreen_Ttmp475)
  8905  413c  320d71            	LD (XCURSYS), A
  8906  413f  3ab000            	LD A, (_reprintCreateCharacterScreen_Ttmp504+1)
  8907  4142  e680              	AND $80
  8908  4144  fe00              	CP 0
  8909  4146  2808              	JR Z,_label588
  8910  4148  3eff              	LD A, $FF
  8911  414a  32a100            	LD (_reprintCreateCharacterScreen_Ttmp482), A
  8912  414d  c35541            	JMP _label588done
  8913                          _label588:
  8914  4150  3e00              	LD A, $0
  8915  4152  32a100            	LD (_reprintCreateCharacterScreen_Ttmp482), A
  8916                          _label588done:
  8917  4155  3aa100            	LD A, (_reprintCreateCharacterScreen_Ttmp482)
  8918  4158  fe00              	CP 0
  8919  415a  ca6041            	JP Z, _label589
  8920  415d  c36341            	JMP _label589b2
  8921                          _label589:
  8922  4160  c39741            	JMP _label587
  8923                          _label589b2:
  8924  4163  3aaf00            	LD A, (_reprintCreateCharacterScreen_Ttmp504)
  8925                          ; peephole(1): r319 (XOR $FF)->(CPL)
  8926                          ;	XOR $FF
  8927  4166  2f                	CPL
  8928  4167  32b200            	LD (_reprintCreateCharacterScreen_Ttmp506), A
  8929  416a  3ab000            	LD A, (_reprintCreateCharacterScreen_Ttmp504+1)
  8930                          ; peephole(1): r319 (XOR $FF)->(CPL)
  8931                          ;	XOR $FF
  8932  416d  2f                	CPL
  8933  416e  32b300            	LD (_reprintCreateCharacterScreen_Ttmp506+1), A
  8934  4171  2ab200            	LD HL, (_reprintCreateCharacterScreen_Ttmp506)
  8935  4174  23                	INC HL
  8936  4175  22b200            	LD (_reprintCreateCharacterScreen_Ttmp506), HL
  8937  4178  3ab200            	LD A, (_reprintCreateCharacterScreen_Ttmp506)
  8938  417b  32b100            	LD (_reprintCreateCharacterScreen_Ttmp505), A
  8939  417e  3ab100            	LD A, (_reprintCreateCharacterScreen_Ttmp505)
  8940  4181  e67f              	AND $7f
  8941  4183  32b100            	LD (_reprintCreateCharacterScreen_Ttmp505), A
  8942  4186  3ab100            	LD A, (_reprintCreateCharacterScreen_Ttmp505)
  8943                          ; peephole(1): r319 (XOR $FF)->(CPL)
  8944                          ;	XOR $FF
  8945  4189  2f                	CPL
  8946  418a  32b100            	LD (_reprintCreateCharacterScreen_Ttmp505), A
  8947  418d  3ab100            	LD A, (_reprintCreateCharacterScreen_Ttmp505)
  8948  4190  3c                	INC A
  8949  4191  32b100            	LD (_reprintCreateCharacterScreen_Ttmp505), A
  8950  4194  c3a541            	jp _label587done
  8951                          _label587:
  8952  4197  3aaf00            	LD A, (_reprintCreateCharacterScreen_Ttmp504)
  8953  419a  32b100            	LD (_reprintCreateCharacterScreen_Ttmp505), A
  8954  419d  3ab100            	LD A, (_reprintCreateCharacterScreen_Ttmp505)
  8955  41a0  e67f              	AND $7f
  8956  41a2  32b100            	LD (_reprintCreateCharacterScreen_Ttmp505), A
  8957                          _label587done:
  8958                          	 ; variable_move_8bit_8bit
  8959                          	 ; 8 BIT (signed) -> 8 BIT (unsigned)
  8960  41a5  3ab100            	LD A, (_reprintCreateCharacterScreen_Ttmp505)
  8961  41a8  320e71            	LD (YCURSYS), A
  8962  41ab  3a0e71            	LD A, (YCURSYS)
  8963  41ae  e680              	AND $80
  8964  41b0  fe00              	CP 0
  8965  41b2  2805              	JR Z,_label591
  8966  41b4  3eff              	LD A, $FF
  8967                          ; peephole(3): unread
  8968                          ;	LD (_reprintCreateCharacterScreen_Ttmp512), A
  8969  41b6  c3bb41            	JMP _label591done
  8970                          _label591:
  8971  41b9  3e00              	LD A, $0
  8972                          ; peephole(3): unread
  8973                          ;	LD (_reprintCreateCharacterScreen_Ttmp512), A
  8974                          _label591done:
  8975  41bb  cac141            	JP Z, _label592
  8976  41be  c3c441            	JMP _label592b2
  8977                          _label592:
  8978  41c1  c3d241            	JMP _label590
  8979                          _label592b2:
  8980  41c4  3a0e71            	LD A, (YCURSYS)
  8981                          ; peephole(1): r319 (XOR $FF)->(CPL)
  8982                          ;	XOR $FF
  8983  41c7  2f                	CPL
  8984  41c8  320e71            	LD (YCURSYS), A
  8985  41cb  3a0e71            	LD A, (YCURSYS)
  8986  41ce  3c                	INC A
  8987  41cf  320e71            	LD (YCURSYS), A
  8988                          _label590:
  8989                          	; P:83
  8990                          	; L:183
  8991  41d2  3a0000            	LD A, (_reprintCreateCharacterScreen_Tstr593)
  8992  41d5  329c00            	LD (_reprintCreateCharacterScreen_Ttmp475), A
  8993  41d8  210000            	LD HL, _reprintCreateCharacterScreen_Tstr593
  8994  41db  22a700            	LD (_reprintCreateCharacterScreen_Ttmp492), HL
  8995  41de  2aa700            	LD HL, (_reprintCreateCharacterScreen_Ttmp492)
  8996  41e1  23                	INC HL
  8997  41e2  22a700            	LD (_reprintCreateCharacterScreen_Ttmp492), HL
  8998  41e5  3a9c00            	LD A, (_reprintCreateCharacterScreen_Ttmp475)
  8999  41e8  4f                	LD C, A
  9000  41e9  0600              	LD B, 0
  9001  41eb  2aa700            	LD HL, (_reprintCreateCharacterScreen_Ttmp492)
  9002  41ee  cda62c            	CALL TEXTAT
  9003  41f1  3e00              	LD A, $00
  9004  41f3  320d71            	LD (XCURSYS), A
  9005  41f6  3a0e71            	LD A, (YCURSYS)
  9006  41f9  3c                	INC A
  9007  41fa  320e71            	LD (YCURSYS), A
  9008  41fd  3a1b71            	LD A, (CURRENTTILESHEIGHT)
  9009  4200  47                	LD B, A
  9010  4201  3a0e71            	LD A, (YCURSYS)
  9011  4204  b8                	CP B
  9012  4205  3807              	JR C, _label597
  9013                          ; peephole(1): r228 (LD A, 0)->(XOR A)
  9014                          ;	LD A, 0
  9015  4207  af                	XOR A
  9016  4208  32b100            	LD (_reprintCreateCharacterScreen_Ttmp505), A
  9017  420b  c31342            	JMP _label597b2
  9018                          _label597:
  9019  420e  3eff              	LD A, $ff
  9020  4210  32b100            	LD (_reprintCreateCharacterScreen_Ttmp505), A
  9021                          _label597b2:
  9022  4213  3ab100            	LD A, (_reprintCreateCharacterScreen_Ttmp505)
  9023                          ; peephole(1): r319 (XOR $FF)->(CPL)
  9024                          ;	XOR $FF
  9025  4216  2f                	CPL
  9026  4217  32b100            	LD (_reprintCreateCharacterScreen_Ttmp505), A
  9027  421a  3ab100            	LD A, (_reprintCreateCharacterScreen_Ttmp505)
  9028  421d  fe00              	CP 0
  9029  421f  c22542            	JP NZ, _label598
  9030  4222  c32842            	JMP _label598b2
  9031                          _label598:
  9032  4225  c32b42            	JMP _label595scroll
  9033                          _label598b2:
  9034  4228  c33d42            	jp _label595end
  9035                          _label595scroll:
  9036  422b  3ef8              	LD A, $f8
  9037  422d  cd0d28            	CALL VSCROLL
  9038  4230  3a1b71            	LD A, (CURRENTTILESHEIGHT)
  9039  4233  320e71            	LD (YCURSYS), A
  9040  4236  3a0e71            	LD A, (YCURSYS)
  9041  4239  3d                	DEC A
  9042  423a  320e71            	LD (YCURSYS), A
  9043                          _label595end:
  9044                          	; P:49
  9045                          	; L:184
  9046  423d  3e0b              	LD A, $0b
  9047  423f  329c00            	LD (_reprintCreateCharacterScreen_Ttmp475), A
  9048  4242  3e03              	LD A, $03
  9049  4244  329d00            	LD (_reprintCreateCharacterScreen_Ttmp476), A
  9050  4247  3e00              	LD A, $00
  9051  4249  329e00            	LD (_reprintCreateCharacterScreen_Ttmp476+1), A
  9052  424c  2a9d00            	LD HL, (_reprintCreateCharacterScreen_Ttmp476)
  9053  424f  ed5bb172          	LD DE, (_reprintCreateCharacterScreen_c)
  9054  4253  19                	ADD HL, DE
  9055  4254  22af00            	LD (_reprintCreateCharacterScreen_Ttmp504), HL
  9056                          	 ; variable_move_8bit_8bit
  9057                          	 ; 8 BIT (unsigned) -> 8 BIT (unsigned)
  9058  4257  3a9c00            	LD A, (_reprintCreateCharacterScreen_Ttmp475)
  9059  425a  320d71            	LD (XCURSYS), A
  9060  425d  3ab000            	LD A, (_reprintCreateCharacterScreen_Ttmp504+1)
  9061  4260  e680              	AND $80
  9062  4262  fe00              	CP 0
  9063  4264  2808              	JR Z,_label600
  9064  4266  3eff              	LD A, $FF
  9065  4268  32a100            	LD (_reprintCreateCharacterScreen_Ttmp482), A
  9066  426b  c37342            	JMP _label600done
  9067                          _label600:
  9068  426e  3e00              	LD A, $0
  9069  4270  32a100            	LD (_reprintCreateCharacterScreen_Ttmp482), A
  9070                          _label600done:
  9071  4273  3aa100            	LD A, (_reprintCreateCharacterScreen_Ttmp482)
  9072  4276  fe00              	CP 0
  9073  4278  ca7e42            	JP Z, _label601
  9074  427b  c38142            	JMP _label601b2
  9075                          _label601:
  9076  427e  c3b542            	JMP _label599
  9077                          _label601b2:
  9078  4281  3aaf00            	LD A, (_reprintCreateCharacterScreen_Ttmp504)
  9079                          ; peephole(1): r319 (XOR $FF)->(CPL)
  9080                          ;	XOR $FF
  9081  4284  2f                	CPL
  9082  4285  32b200            	LD (_reprintCreateCharacterScreen_Ttmp506), A
  9083  4288  3ab000            	LD A, (_reprintCreateCharacterScreen_Ttmp504+1)
  9084                          ; peephole(1): r319 (XOR $FF)->(CPL)
  9085                          ;	XOR $FF
  9086  428b  2f                	CPL
  9087  428c  32b300            	LD (_reprintCreateCharacterScreen_Ttmp506+1), A
  9088  428f  2ab200            	LD HL, (_reprintCreateCharacterScreen_Ttmp506)
  9089  4292  23                	INC HL
  9090  4293  22b200            	LD (_reprintCreateCharacterScreen_Ttmp506), HL
  9091  4296  3ab200            	LD A, (_reprintCreateCharacterScreen_Ttmp506)
  9092  4299  32b100            	LD (_reprintCreateCharacterScreen_Ttmp505), A
  9093  429c  3ab100            	LD A, (_reprintCreateCharacterScreen_Ttmp505)
  9094  429f  e67f              	AND $7f
  9095  42a1  32b100            	LD (_reprintCreateCharacterScreen_Ttmp505), A
  9096  42a4  3ab100            	LD A, (_reprintCreateCharacterScreen_Ttmp505)
  9097                          ; peephole(1): r319 (XOR $FF)->(CPL)
  9098                          ;	XOR $FF
  9099  42a7  2f                	CPL
  9100  42a8  32b100            	LD (_reprintCreateCharacterScreen_Ttmp505), A
  9101  42ab  3ab100            	LD A, (_reprintCreateCharacterScreen_Ttmp505)
  9102  42ae  3c                	INC A
  9103  42af  32b100            	LD (_reprintCreateCharacterScreen_Ttmp505), A
  9104  42b2  c3c342            	jp _label599done
  9105                          _label599:
  9106  42b5  3aaf00            	LD A, (_reprintCreateCharacterScreen_Ttmp504)
  9107  42b8  32b100            	LD (_reprintCreateCharacterScreen_Ttmp505), A
  9108  42bb  3ab100            	LD A, (_reprintCreateCharacterScreen_Ttmp505)
  9109  42be  e67f              	AND $7f
  9110  42c0  32b100            	LD (_reprintCreateCharacterScreen_Ttmp505), A
  9111                          _label599done:
  9112                          	 ; variable_move_8bit_8bit
  9113                          	 ; 8 BIT (signed) -> 8 BIT (unsigned)
  9114  42c3  3ab100            	LD A, (_reprintCreateCharacterScreen_Ttmp505)
  9115  42c6  320e71            	LD (YCURSYS), A
  9116  42c9  3a0e71            	LD A, (YCURSYS)
  9117  42cc  e680              	AND $80
  9118  42ce  fe00              	CP 0
  9119  42d0  2805              	JR Z,_label603
  9120  42d2  3eff              	LD A, $FF
  9121                          ; peephole(3): unread
  9122                          ;	LD (_reprintCreateCharacterScreen_Ttmp512), A
  9123  42d4  c3d942            	JMP _label603done
  9124                          _label603:
  9125  42d7  3e00              	LD A, $0
  9126                          ; peephole(3): unread
  9127                          ;	LD (_reprintCreateCharacterScreen_Ttmp512), A
  9128                          _label603done:
  9129  42d9  cadf42            	JP Z, _label604
  9130  42dc  c3e242            	JMP _label604b2
  9131                          _label604:
  9132  42df  c3f042            	JMP _label602
  9133                          _label604b2:
  9134  42e2  3a0e71            	LD A, (YCURSYS)
  9135                          ; peephole(1): r319 (XOR $FF)->(CPL)
  9136                          ;	XOR $FF
  9137  42e5  2f                	CPL
  9138  42e6  320e71            	LD (YCURSYS), A
  9139  42e9  3a0e71            	LD A, (YCURSYS)
  9140  42ec  3c                	INC A
  9141  42ed  320e71            	LD (YCURSYS), A
  9142                          _label602:
  9143                          	; P:83
  9144                          	; L:185
  9145  42f0  3aba00            	LD A, (_reprintCreateCharacterScreen_Ttmp606)
  9146  42f3  47                	LD B, A
  9147  42f4  cd6501            	CALL DSFREE
  9148  42f7  210000            	LD HL, _reprintCreateCharacterScreen_Tstr607
  9149  42fa  cd3701            	CALL DSDEFINE
  9150  42fd  78                	LD A, B
  9151  42fe  32ba00            	LD (_reprintCreateCharacterScreen_Ttmp606), A
  9152  4301  3aba00            	LD A, (_reprintCreateCharacterScreen_Ttmp606)
  9153  4304  47                	LD B, A
  9154  4305  cd6d01            	CALL DSWRITE
  9155  4308  3aba00            	LD A, (_reprintCreateCharacterScreen_Ttmp606)
  9156  430b  47                	LD B, A
  9157  430c  cdaa02            	CALL DSDESCRIPTOR
  9158  430f  dd7e00            	LD A, (IX)
  9159  4312  329c00            	LD (_reprintCreateCharacterScreen_Ttmp475), A
  9160  4315  dd7e01            	LD A, (IX+1)
  9161  4318  32a700            	LD (_reprintCreateCharacterScreen_Ttmp492), A
  9162  431b  dd7e02            	LD A, (IX+2)
  9163  431e  32a800            	LD (_reprintCreateCharacterScreen_Ttmp492+1), A
  9164  4321  3a8472            	LD A, (_charisma)
  9165  4324  0600              	LD B, 0
  9166  4326  c5                	PUSH BC
  9167  4327  dde1              	POP IX
  9168  4329  cd3a3b            	CALL N2D8
  9169  432c  ed5ba700          	LD DE, (_reprintCreateCharacterScreen_Ttmp492)
  9170  4330  dd7c              	LD A, IXH
  9171  4332  fe00              	CP 0
  9172  4334  2805              	JR Z, _label608pos
  9173  4336  3e2d              	LD A, '-'
  9174  4338  12                	LD (DE), A
  9175  4339  13                	INC DE
  9176  433a  0c                	INC C
  9177                          _label608pos:
  9178  433b  79                	LD A, C
  9179  433c  329c00            	LD (_reprintCreateCharacterScreen_Ttmp475), A
  9180  433f  edb0              	LDIR
  9181  4341  3aba00            	LD A, (_reprintCreateCharacterScreen_Ttmp606)
  9182  4344  47                	LD B, A
  9183  4345  3a9c00            	LD A, (_reprintCreateCharacterScreen_Ttmp475)
  9184  4348  4f                	LD C, A
  9185  4349  cdae01            	CALL DSRESIZE
  9186  434c  3aba00            	LD A, (_reprintCreateCharacterScreen_Ttmp606)
  9187  434f  47                	LD B, A
  9188  4350  cdaa02            	CALL DSDESCRIPTOR
  9189  4353  dd7e00            	LD A, (IX)
  9190  4356  329f00            	LD (_reprintCreateCharacterScreen_Ttmp479), A
  9191  4359  dd7e01            	LD A, (IX+1)
  9192  435c  32a900            	LD (_reprintCreateCharacterScreen_Ttmp493), A
  9193  435f  dd7e02            	LD A, (IX+2)
  9194  4362  32aa00            	LD (_reprintCreateCharacterScreen_Ttmp493+1), A
  9195  4365  3a9f00            	LD A, (_reprintCreateCharacterScreen_Ttmp479)
  9196  4368  4f                	LD C, A
  9197  4369  0600              	LD B, 0
  9198  436b  2aa900            	LD HL, (_reprintCreateCharacterScreen_Ttmp493)
  9199  436e  cda62c            	CALL TEXTAT
  9200  4371  3aba00            	LD A, (_reprintCreateCharacterScreen_Ttmp606)
  9201  4374  47                	LD B, A
  9202  4375  cd6501            	CALL DSFREE
  9203  4378  3e00              	LD A, $00
  9204  437a  320d71            	LD (XCURSYS), A
  9205  437d  3a0e71            	LD A, (YCURSYS)
  9206  4380  3c                	INC A
  9207  4381  320e71            	LD (YCURSYS), A
  9208  4384  3a1b71            	LD A, (CURRENTTILESHEIGHT)
  9209  4387  47                	LD B, A
  9210  4388  3a0e71            	LD A, (YCURSYS)
  9211  438b  b8                	CP B
  9212  438c  3807              	JR C, _label611
  9213                          ; peephole(1): r228 (LD A, 0)->(XOR A)
  9214                          ;	LD A, 0
  9215  438e  af                	XOR A
  9216  438f  32b100            	LD (_reprintCreateCharacterScreen_Ttmp505), A
  9217  4392  c39a43            	JMP _label611b2
  9218                          _label611:
  9219  4395  3eff              	LD A, $ff
  9220  4397  32b100            	LD (_reprintCreateCharacterScreen_Ttmp505), A
  9221                          _label611b2:
  9222  439a  3ab100            	LD A, (_reprintCreateCharacterScreen_Ttmp505)
  9223                          ; peephole(1): r319 (XOR $FF)->(CPL)
  9224                          ;	XOR $FF
  9225  439d  2f                	CPL
  9226  439e  32b100            	LD (_reprintCreateCharacterScreen_Ttmp505), A
  9227  43a1  3ab100            	LD A, (_reprintCreateCharacterScreen_Ttmp505)
  9228  43a4  fe00              	CP 0
  9229  43a6  c2ac43            	JP NZ, _label612
  9230  43a9  c3af43            	JMP _label612b2
  9231                          _label612:
  9232  43ac  c3b243            	JMP _label609scroll
  9233                          _label612b2:
  9234  43af  c3c443            	jp _label609end
  9235                          _label609scroll:
  9236  43b2  3ef8              	LD A, $f8
  9237  43b4  cd0d28            	CALL VSCROLL
  9238  43b7  3a1b71            	LD A, (CURRENTTILESHEIGHT)
  9239  43ba  320e71            	LD (YCURSYS), A
  9240  43bd  3a0e71            	LD A, (YCURSYS)
  9241  43c0  3d                	DEC A
  9242  43c1  320e71            	LD (YCURSYS), A
  9243                          _label609end:
  9244                          	; P:95
  9245                          	; L:186
  9246                          _label585f:
  9247                          _label585e0:
  9248                          	; P:2
  9249                          	; L:187
  9250  43c4  2ab172            	LD HL, (_reprintCreateCharacterScreen_c)
  9251  43c7  ed5b7a01          	LD DE, (_TRtmp477)
  9252  43cb  19                	ADD HL, DE
  9253  43cc  22b172            	LD (_reprintCreateCharacterScreen_c), HL
  9254  43cf  3ab272            	LD A, (_reprintCreateCharacterScreen_c+1)
  9255  43d2  fe00              	CP $00
  9256  43d4  c2df43            	JP NZ, _label614
  9257  43d7  3ab172            	LD A, (_reprintCreateCharacterScreen_c)
  9258  43da  fe00              	CP $00
  9259  43dc  cae243            	JP Z, _label480bis
  9260                          _label614:
  9261  43df  c3df37            	jp _label480bf
  9262                          _label480bis:
  9263                          	; P:13
  9264                          	; L:188
  9265  43e2  3e12              	LD A, $12
  9266  43e4  329c00            	LD (_reprintCreateCharacterScreen_Ttmp475), A
  9267                          ; peephole(1): r250 (LD A, x; LD (x), A; LD A, x)->(LD A, x; LD (x), A)
  9268                          ;	LD A, $12
  9269  43e7  329f00            	LD (_reprintCreateCharacterScreen_Ttmp479), A
  9270                          	 ; variable_move_8bit_8bit
  9271                          	 ; 8 BIT (unsigned) -> 8 BIT (unsigned)
  9272  43ea  3a9c00            	LD A, (_reprintCreateCharacterScreen_Ttmp475)
  9273  43ed  320d71            	LD (XCURSYS), A
  9274                          	 ; variable_move_8bit_8bit
  9275                          	 ; 8 BIT (unsigned) -> 8 BIT (unsigned)
  9276  43f0  3a9f00            	LD A, (_reprintCreateCharacterScreen_Ttmp479)
  9277  43f3  320e71            	LD (YCURSYS), A
  9278                          	; P:8
  9279                          	; L:189
  9280  43f6  3a0000            	LD A, (_reprintCreateCharacterScreen_Tstr615)
  9281  43f9  329c00            	LD (_reprintCreateCharacterScreen_Ttmp475), A
  9282  43fc  210000            	LD HL, _reprintCreateCharacterScreen_Tstr615
  9283  43ff  22a700            	LD (_reprintCreateCharacterScreen_Ttmp492), HL
  9284  4402  2aa700            	LD HL, (_reprintCreateCharacterScreen_Ttmp492)
  9285  4405  23                	INC HL
  9286  4406  22a700            	LD (_reprintCreateCharacterScreen_Ttmp492), HL
  9287  4409  3a9c00            	LD A, (_reprintCreateCharacterScreen_Ttmp475)
  9288  440c  4f                	LD C, A
  9289  440d  0600              	LD B, 0
  9290  440f  2aa700            	LD HL, (_reprintCreateCharacterScreen_Ttmp492)
  9291  4412  cda62c            	CALL TEXTAT
  9292  4415  3e00              	LD A, $00
  9293  4417  320d71            	LD (XCURSYS), A
  9294  441a  3a0e71            	LD A, (YCURSYS)
  9295  441d  3c                	INC A
  9296  441e  320e71            	LD (YCURSYS), A
  9297  4421  3a1b71            	LD A, (CURRENTTILESHEIGHT)
  9298  4424  47                	LD B, A
  9299  4425  3a0e71            	LD A, (YCURSYS)
  9300  4428  b8                	CP B
  9301  4429  3807              	JR C, _label619
  9302                          ; peephole(1): r228 (LD A, 0)->(XOR A)
  9303                          ;	LD A, 0
  9304  442b  af                	XOR A
  9305  442c  32a200            	LD (_reprintCreateCharacterScreen_Ttmp485), A
  9306  442f  c33744            	JMP _label619b2
  9307                          _label619:
  9308  4432  3eff              	LD A, $ff
  9309  4434  32a200            	LD (_reprintCreateCharacterScreen_Ttmp485), A
  9310                          _label619b2:
  9311  4437  3aa200            	LD A, (_reprintCreateCharacterScreen_Ttmp485)
  9312                          ; peephole(1): r319 (XOR $FF)->(CPL)
  9313                          ;	XOR $FF
  9314  443a  2f                	CPL
  9315  443b  32a200            	LD (_reprintCreateCharacterScreen_Ttmp485), A
  9316  443e  3aa200            	LD A, (_reprintCreateCharacterScreen_Ttmp485)
  9317  4441  fe00              	CP 0
  9318  4443  c24944            	JP NZ, _label620
  9319  4446  c34c44            	JMP _label620b2
  9320                          _label620:
  9321  4449  c34f44            	JMP _label617scroll
  9322                          _label620b2:
  9323  444c  c36144            	jp _label617end
  9324                          _label617scroll:
  9325  444f  3ef8              	LD A, $f8
  9326  4451  cd0d28            	CALL VSCROLL
  9327  4454  3a1b71            	LD A, (CURRENTTILESHEIGHT)
  9328  4457  320e71            	LD (YCURSYS), A
  9329  445a  3a0e71            	LD A, (YCURSYS)
  9330  445d  3d                	DEC A
  9331  445e  320e71            	LD (YCURSYS), A
  9332                          _label617end:
  9333                          	; P:49
  9334                          	; L:190
  9335  4461  3e12              	LD A, $12
  9336  4463  329c00            	LD (_reprintCreateCharacterScreen_Ttmp475), A
  9337                          ; peephole(1): r250 (LD A, x; LD (x), A; LD A, x)->(LD A, x; LD (x), A)
  9338                          ;	LD A, $12
  9339  4466  329f00            	LD (_reprintCreateCharacterScreen_Ttmp479), A
  9340                          	 ; variable_move_8bit_8bit
  9341                          	 ; 8 BIT (unsigned) -> 8 BIT (unsigned)
  9342  4469  3a9c00            	LD A, (_reprintCreateCharacterScreen_Ttmp475)
  9343  446c  320d71            	LD (XCURSYS), A
  9344                          	 ; variable_move_8bit_8bit
  9345                          	 ; 8 BIT (unsigned) -> 8 BIT (unsigned)
  9346  446f  3a9f00            	LD A, (_reprintCreateCharacterScreen_Ttmp479)
  9347  4472  320e71            	LD (YCURSYS), A
  9348                          	; P:8
  9349                          	; L:191
  9350  4475  3abb00            	LD A, (_reprintCreateCharacterScreen_Ttmp622)
  9351  4478  47                	LD B, A
  9352  4479  cd6501            	CALL DSFREE
  9353  447c  210000            	LD HL, _reprintCreateCharacterScreen_Tstr623
  9354  447f  cd3701            	CALL DSDEFINE
  9355  4482  78                	LD A, B
  9356  4483  32bb00            	LD (_reprintCreateCharacterScreen_Ttmp622), A
  9357  4486  3abb00            	LD A, (_reprintCreateCharacterScreen_Ttmp622)
  9358  4489  47                	LD B, A
  9359  448a  cd6d01            	CALL DSWRITE
  9360  448d  3abb00            	LD A, (_reprintCreateCharacterScreen_Ttmp622)
  9361  4490  47                	LD B, A
  9362  4491  cdaa02            	CALL DSDESCRIPTOR
  9363  4494  dd7e00            	LD A, (IX)
  9364  4497  329c00            	LD (_reprintCreateCharacterScreen_Ttmp475), A
  9365  449a  dd7e01            	LD A, (IX+1)
  9366  449d  32a700            	LD (_reprintCreateCharacterScreen_Ttmp492), A
  9367  44a0  dd7e02            	LD A, (IX+2)
  9368  44a3  32a800            	LD (_reprintCreateCharacterScreen_Ttmp492+1), A
  9369  44a6  3a8372            	LD A, (_charPoints)
  9370  44a9  0600              	LD B, 0
  9371  44ab  c5                	PUSH BC
  9372  44ac  dde1              	POP IX
  9373  44ae  cd3a3b            	CALL N2D8
  9374  44b1  ed5ba700          	LD DE, (_reprintCreateCharacterScreen_Ttmp492)
  9375  44b5  dd7c              	LD A, IXH
  9376  44b7  fe00              	CP 0
  9377  44b9  2805              	JR Z, _label624pos
  9378  44bb  3e2d              	LD A, '-'
  9379  44bd  12                	LD (DE), A
  9380  44be  13                	INC DE
  9381  44bf  0c                	INC C
  9382                          _label624pos:
  9383  44c0  79                	LD A, C
  9384  44c1  329c00            	LD (_reprintCreateCharacterScreen_Ttmp475), A
  9385  44c4  edb0              	LDIR
  9386  44c6  3abb00            	LD A, (_reprintCreateCharacterScreen_Ttmp622)
  9387  44c9  47                	LD B, A
  9388  44ca  3a9c00            	LD A, (_reprintCreateCharacterScreen_Ttmp475)
  9389  44cd  4f                	LD C, A
  9390  44ce  cdae01            	CALL DSRESIZE
  9391  44d1  3abb00            	LD A, (_reprintCreateCharacterScreen_Ttmp622)
  9392  44d4  47                	LD B, A
  9393  44d5  cdaa02            	CALL DSDESCRIPTOR
  9394  44d8  dd7e00            	LD A, (IX)
  9395  44db  329f00            	LD (_reprintCreateCharacterScreen_Ttmp479), A
  9396  44de  dd7e01            	LD A, (IX+1)
  9397  44e1  32a900            	LD (_reprintCreateCharacterScreen_Ttmp493), A
  9398  44e4  dd7e02            	LD A, (IX+2)
  9399  44e7  32aa00            	LD (_reprintCreateCharacterScreen_Ttmp493+1), A
  9400  44ea  3a9f00            	LD A, (_reprintCreateCharacterScreen_Ttmp479)
  9401  44ed  4f                	LD C, A
  9402  44ee  0600              	LD B, 0
  9403  44f0  2aa900            	LD HL, (_reprintCreateCharacterScreen_Ttmp493)
  9404  44f3  cda62c            	CALL TEXTAT
  9405  44f6  3abb00            	LD A, (_reprintCreateCharacterScreen_Ttmp622)
  9406  44f9  47                	LD B, A
  9407  44fa  cd6501            	CALL DSFREE
  9408  44fd  3e00              	LD A, $00
  9409  44ff  320d71            	LD (XCURSYS), A
  9410  4502  3a0e71            	LD A, (YCURSYS)
  9411  4505  3c                	INC A
  9412  4506  320e71            	LD (YCURSYS), A
  9413  4509  3a1b71            	LD A, (CURRENTTILESHEIGHT)
  9414  450c  47                	LD B, A
  9415  450d  3a0e71            	LD A, (YCURSYS)
  9416  4510  b8                	CP B
  9417  4511  3807              	JR C, _label627
  9418                          ; peephole(1): r228 (LD A, 0)->(XOR A)
  9419                          ;	LD A, 0
  9420  4513  af                	XOR A
  9421  4514  32a200            	LD (_reprintCreateCharacterScreen_Ttmp485), A
  9422  4517  c31f45            	JMP _label627b2
  9423                          _label627:
  9424  451a  3eff              	LD A, $ff
  9425  451c  32a200            	LD (_reprintCreateCharacterScreen_Ttmp485), A
  9426                          _label627b2:
  9427  451f  3aa200            	LD A, (_reprintCreateCharacterScreen_Ttmp485)
  9428                          ; peephole(1): r319 (XOR $FF)->(CPL)
  9429                          ;	XOR $FF
  9430  4522  2f                	CPL
  9431  4523  32a200            	LD (_reprintCreateCharacterScreen_Ttmp485), A
  9432  4526  3aa200            	LD A, (_reprintCreateCharacterScreen_Ttmp485)
  9433  4529  fe00              	CP 0
  9434  452b  c23145            	JP NZ, _label628
  9435  452e  c33445            	JMP _label628b2
  9436                          _label628:
  9437  4531  c33745            	JMP _label625scroll
  9438                          _label628b2:
  9439  4534  c34945            	jp _label625end
  9440                          _label625scroll:
  9441  4537  3ef8              	LD A, $f8
  9442  4539  cd0d28            	CALL VSCROLL
  9443  453c  3a1b71            	LD A, (CURRENTTILESHEIGHT)
  9444  453f  320e71            	LD (YCURSYS), A
  9445  4542  3a0e71            	LD A, (YCURSYS)
  9446  4545  3d                	DEC A
  9447  4546  320e71            	LD (YCURSYS), A
  9448                          _label625end:
  9449                          	; P:95
  9450                          	; L:192
  9451  4549  c9                	RET
  9452                          reprintCreateCharacterScreenafter:
  9453                          	; P:2
  9454                          	; L:193
  9455                          	; P:0
  9456                          	; L:194
  9457                          	; P:0
  9458                          	; L:195
  9459  454a  c3134a            	jp initCharScreenafter
  9460                          initCharScreen:
  9461                          	; P:2
  9462                          	; L:196
  9463  454d  c38d45            	jp cls_after
  9464                          ; /*****************************************************************************
  9465                          ;  * ugBASIC - an isomorphic BASIC language compiler for retrocomputers        *
  9466                          ;  *****************************************************************************
  9467                          ;  * Copyright 2021-2023 Marco Spedaletti (asimov@mclink.it)
  9468                          ;  *
  9469                          ;  * Licensed under the Apache License, Version 2.0 (the "License");
  9470                          ;  * you may not use this file except in compliance with the License.
  9471                          ;  * You may obtain a copy of the License at
  9472                          ;  *
  9473                          ;  * http://www.apache.org/licenses/LICENSE-2.0
  9474                          ;  *
  9475                          ;  * Unless required by applicable law or agreed to in writing, software
  9476                          ;  * distributed under the License is distributed on an "AS IS" BASIS,
  9477                          ;  * WITHOUT WARRANTIES OR CONDITIONS OF ANY KIND, either express or implied.
  9478                          ;  * See the License for the specific language governing permissions and
  9479                          ;  * limitations under the License.
  9480                          ;  *----------------------------------------------------------------------------
  9481                          ;  * Concesso in licenza secondo i termini della Licenza Apache, versione 2.0
  9482                          ;  * (la "Licenza"); è proibito usare questo file se non in conformità alla
  9483                          ;  * Licenza. Una copia della Licenza è disponibile all'indirizzo:
  9484                          ;  *
  9485                          ;  * http://www.apache.org/licenses/LICENSE-2.0
  9486                          ;  *
  9487                          ;  * Se non richiesto dalla legislazione vigente o concordato per iscritto,
  9488                          ;  * il software distribuito nei termini della Licenza è distribuito
  9489                          ;  * "COSì COM'è", SENZA GARANZIE O CONDIZIONI DI ALCUN TIPO, esplicite o
  9490                          ;  * implicite. Consultare la Licenza per il testo specifico che regola le
  9491                          ;  * autorizzazioni e le limitazioni previste dalla medesima.
  9492                          ;  ****************************************************************************/
  9493                          ;* * * * * * * * * * * * * * * * * * * * * * * * * * * * * * * * * * * * * * * *
  9494                          ;*                                                                             *
  9495                          ;*                      CLEAR SCREEN ROUTINE FOR ZX SPECTRUM                   *
  9496                          ;*                                                                             *
  9497                          ;*                             by Marco Spedaletti                             *
  9498                          ;*                                                                             *
  9499                          ;* * * * * * * * * * * * * * * * * * * * * * * * * * * * * * * * * * * * * * * *
  9500                          CLS:
  9501                          ; peephole(1): r228 (LD A, 0)->(XOR A)
  9502                          ;    LD A, 0
  9503  4550  af                	XOR A
  9504  4551  2af870            	LD HL, (BITMAPADDRESS)
  9505  4554  77                	LD (HL), A
  9506  4555  ed5bf870          	LD DE, (BITMAPADDRESS)
  9507  4559  13                	INC DE
  9508  455a  010018            	LD BC, 6144
  9509  455d  edb0              	LDIR
  9510  455f  2afa70            	LD HL, (COLORMAPADDRESS)
  9511  4562  3a1071            	LD A, (_PAPER)
  9512  4565  e60f              	AND $0F
  9513  4567  cb27              	SLA A
  9514  4569  cb27              	SLA A
  9515  456b  cb27              	SLA A
  9516  456d  47                	LD B, A
  9517  456e  3a0f71            	LD A, (_PEN)
  9518  4571  e607              	AND $07
  9519  4573  b0                	OR A, B
  9520  4574  47                	LD B, A
  9521  4575  3a0f71            	LD A, (_PEN)
  9522  4578  e608              	AND $08
  9523  457a  cb27              	SLA A
  9524  457c  cb27              	SLA A
  9525  457e  cb27              	SLA A
  9526  4580  b0                	OR A, B
  9527  4581  77                	LD (HL), A
  9528  4582  ed5bfa70          	LD DE, (COLORMAPADDRESS)
  9529  4586  13                	INC DE
  9530  4587  010003            	LD BC, 768
  9531  458a  edb0              	LDIR
  9532  458c  c9                	RET
  9533                          cls_after:
  9534  458d  cd5045            	CALL CLS
  9535                          	; P:34
  9536                          	; L:197
  9537                          	; P:0
  9538                          	; L:198
  9539                          	; P:0
  9540                          	; L:199
  9541                          	; P:0
  9542                          	; L:200
  9543  4590  3e00              	LD A, $00
  9544  4592  32bc00            	LD (_initCharScreen_Ttmp629), A
  9545                          ; peephole(1): r250 (LD A, x; LD (x), A; LD A, x)->(LD A, x; LD (x), A)
  9546                          ;	LD A, $00
  9547  4595  32bd00            	LD (_initCharScreen_Ttmp630), A
  9548                          	 ; variable_move_8bit_8bit
  9549                          	 ; 8 BIT (unsigned) -> 8 BIT (unsigned)
  9550  4598  3abc00            	LD A, (_initCharScreen_Ttmp629)
  9551  459b  320d71            	LD (XCURSYS), A
  9552                          	 ; variable_move_8bit_8bit
  9553                          	 ; 8 BIT (unsigned) -> 8 BIT (unsigned)
  9554  459e  3abd00            	LD A, (_initCharScreen_Ttmp630)
  9555  45a1  320e71            	LD (YCURSYS), A
  9556                          	; P:8
  9557                          	; L:201
  9558  45a4  cd2b32            	call resetOptions
  9559                          	; P:1
  9560                          	; L:202
  9561  45a7  3e02              	LD A, $02
  9562  45a9  32bc00            	LD (_initCharScreen_Ttmp629), A
  9563  45ac  3e00              	LD A, $00
  9564  45ae  32bf00            	LD (_initCharScreen_Ttmp633), A
  9565                          ; peephole(1): r250 (LD A, x; LD (x), A; LD A, x)->(LD A, x; LD (x), A)
  9566                          ;	LD A, $00
  9567  45b1  32c000            	LD (_initCharScreen_Ttmp633+1), A
  9568  45b4  3abc00            	LD A, (_initCharScreen_Ttmp629)
  9569  45b7  32bf00            	LD (_initCharScreen_Ttmp633), A
  9570  45ba  3abf00            	LD A, (_initCharScreen_Ttmp633)
  9571  45bd  328772            	LD (_optionspointer), A
  9572  45c0  3ac000            	LD A, (_initCharScreen_Ttmp633+1)
  9573  45c3  328872            	LD (_optionspointer+1), A
  9574                          	; P:12
  9575                          	; L:203
  9576  45c6  3a0000            	LD A, (_initCharScreen_Tstr635)
  9577  45c9  32bc00            	LD (_initCharScreen_Ttmp629), A
  9578  45cc  210000            	LD HL, _initCharScreen_Tstr635
  9579  45cf  22c100            	LD (_initCharScreen_Ttmp638), HL
  9580  45d2  2ac100            	LD HL, (_initCharScreen_Ttmp638)
  9581  45d5  23                	INC HL
  9582  45d6  22c100            	LD (_initCharScreen_Ttmp638), HL
  9583  45d9  3abc00            	LD A, (_initCharScreen_Ttmp629)
  9584  45dc  4f                	LD C, A
  9585  45dd  0600              	LD B, 0
  9586  45df  2ac100            	LD HL, (_initCharScreen_Ttmp638)
  9587  45e2  cda62c            	CALL TEXTAT
  9588  45e5  3e00              	LD A, $00
  9589  45e7  320d71            	LD (XCURSYS), A
  9590  45ea  3a0e71            	LD A, (YCURSYS)
  9591  45ed  3c                	INC A
  9592  45ee  320e71            	LD (YCURSYS), A
  9593  45f1  3a1b71            	LD A, (CURRENTTILESHEIGHT)
  9594  45f4  47                	LD B, A
  9595  45f5  3a0e71            	LD A, (YCURSYS)
  9596  45f8  b8                	CP B
  9597  45f9  3807              	JR C, _label642
  9598                          ; peephole(1): r228 (LD A, 0)->(XOR A)
  9599                          ;	LD A, 0
  9600  45fb  af                	XOR A
  9601  45fc  32c300            	LD (_initCharScreen_Ttmp641), A
  9602  45ff  c30746            	JMP _label642b2
  9603                          _label642:
  9604  4602  3eff              	LD A, $ff
  9605  4604  32c300            	LD (_initCharScreen_Ttmp641), A
  9606                          _label642b2:
  9607  4607  3ac300            	LD A, (_initCharScreen_Ttmp641)
  9608                          ; peephole(1): r319 (XOR $FF)->(CPL)
  9609                          ;	XOR $FF
  9610  460a  2f                	CPL
  9611  460b  32c300            	LD (_initCharScreen_Ttmp641), A
  9612  460e  3ac300            	LD A, (_initCharScreen_Ttmp641)
  9613  4611  fe00              	CP 0
  9614  4613  c21946            	JP NZ, _label643
  9615  4616  c31c46            	JMP _label643b2
  9616                          _label643:
  9617  4619  c31f46            	JMP _label639scroll
  9618                          _label643b2:
  9619  461c  c33146            	jp _label639end
  9620                          _label639scroll:
  9621  461f  3ef8              	LD A, $f8
  9622  4621  cd0d28            	CALL VSCROLL
  9623  4624  3a1b71            	LD A, (CURRENTTILESHEIGHT)
  9624  4627  320e71            	LD (YCURSYS), A
  9625  462a  3a0e71            	LD A, (YCURSYS)
  9626  462d  3d                	DEC A
  9627  462e  320e71            	LD (YCURSYS), A
  9628                          _label639end:
  9629                          	; P:49
  9630                          	; L:204
  9631  4631  3a0000            	LD A, (_initCharScreen_Tstr644)
  9632  4634  32bc00            	LD (_initCharScreen_Ttmp629), A
  9633  4637  210000            	LD HL, _initCharScreen_Tstr644
  9634  463a  22c100            	LD (_initCharScreen_Ttmp638), HL
  9635  463d  2ac100            	LD HL, (_initCharScreen_Ttmp638)
  9636  4640  23                	INC HL
  9637  4641  22c100            	LD (_initCharScreen_Ttmp638), HL
  9638  4644  3abc00            	LD A, (_initCharScreen_Ttmp629)
  9639  4647  4f                	LD C, A
  9640  4648  0600              	LD B, 0
  9641  464a  2ac100            	LD HL, (_initCharScreen_Ttmp638)
  9642  464d  cda62c            	CALL TEXTAT
  9643  4650  3e00              	LD A, $00
  9644  4652  320d71            	LD (XCURSYS), A
  9645  4655  3a0e71            	LD A, (YCURSYS)
  9646  4658  3c                	INC A
  9647  4659  320e71            	LD (YCURSYS), A
  9648  465c  3a1b71            	LD A, (CURRENTTILESHEIGHT)
  9649  465f  47                	LD B, A
  9650  4660  3a0e71            	LD A, (YCURSYS)
  9651  4663  b8                	CP B
  9652  4664  3807              	JR C, _label649
  9653                          ; peephole(1): r228 (LD A, 0)->(XOR A)
  9654                          ;	LD A, 0
  9655  4666  af                	XOR A
  9656  4667  32c300            	LD (_initCharScreen_Ttmp641), A
  9657  466a  c37246            	JMP _label649b2
  9658                          _label649:
  9659  466d  3eff              	LD A, $ff
  9660  466f  32c300            	LD (_initCharScreen_Ttmp641), A
  9661                          _label649b2:
  9662  4672  3ac300            	LD A, (_initCharScreen_Ttmp641)
  9663                          ; peephole(1): r319 (XOR $FF)->(CPL)
  9664                          ;	XOR $FF
  9665  4675  2f                	CPL
  9666  4676  32c300            	LD (_initCharScreen_Ttmp641), A
  9667  4679  3ac300            	LD A, (_initCharScreen_Ttmp641)
  9668  467c  fe00              	CP 0
  9669  467e  c28446            	JP NZ, _label650
  9670  4681  c38746            	JMP _label650b2
  9671                          _label650:
  9672  4684  c38a46            	JMP _label647scroll
  9673                          _label650b2:
  9674  4687  c39c46            	jp _label647end
  9675                          _label647scroll:
  9676  468a  3ef8              	LD A, $f8
  9677  468c  cd0d28            	CALL VSCROLL
  9678  468f  3a1b71            	LD A, (CURRENTTILESHEIGHT)
  9679  4692  320e71            	LD (YCURSYS), A
  9680  4695  3a0e71            	LD A, (YCURSYS)
  9681  4698  3d                	DEC A
  9682  4699  320e71            	LD (YCURSYS), A
  9683                          _label647end:
  9684                          	; P:49
  9685                          	; L:205
  9686  469c  3e00              	LD A, $00
  9687  469e  32bc00            	LD (_initCharScreen_Ttmp629), A
  9688  46a1  3e12              	LD A, $12
  9689  46a3  32bd00            	LD (_initCharScreen_Ttmp630), A
  9690                          	 ; variable_move_8bit_8bit
  9691                          	 ; 8 BIT (unsigned) -> 8 BIT (unsigned)
  9692  46a6  3abc00            	LD A, (_initCharScreen_Ttmp629)
  9693  46a9  320d71            	LD (XCURSYS), A
  9694                          	 ; variable_move_8bit_8bit
  9695                          	 ; 8 BIT (unsigned) -> 8 BIT (unsigned)
  9696  46ac  3abd00            	LD A, (_initCharScreen_Ttmp630)
  9697  46af  320e71            	LD (YCURSYS), A
  9698                          	; P:8
  9699                          	; L:206
  9700  46b2  3e0f              	LD A, $0f
  9701  46b4  32bc00            	LD (_initCharScreen_Ttmp629), A
  9702                          	 ; variable_move_8bit_8bit
  9703                          	 ; 8 BIT (unsigned) -> 8 BIT (unsigned)
  9704  46b7  3abc00            	LD A, (_initCharScreen_Ttmp629)
  9705  46ba  328372            	LD (_charPoints), A
  9706                          	; P:4
  9707                          	; L:207
  9708  46bd  3a0000            	LD A, (_initCharScreen_Tstr651)
  9709  46c0  32bc00            	LD (_initCharScreen_Ttmp629), A
  9710  46c3  210000            	LD HL, _initCharScreen_Tstr651
  9711  46c6  22c100            	LD (_initCharScreen_Ttmp638), HL
  9712  46c9  2ac100            	LD HL, (_initCharScreen_Ttmp638)
  9713  46cc  23                	INC HL
  9714  46cd  22c100            	LD (_initCharScreen_Ttmp638), HL
  9715  46d0  3abc00            	LD A, (_initCharScreen_Ttmp629)
  9716  46d3  4f                	LD C, A
  9717  46d4  0600              	LD B, 0
  9718  46d6  2ac100            	LD HL, (_initCharScreen_Ttmp638)
  9719  46d9  cda62c            	CALL TEXTAT
  9720  46dc  3e00              	LD A, $00
  9721  46de  320d71            	LD (XCURSYS), A
  9722  46e1  3a0e71            	LD A, (YCURSYS)
  9723  46e4  3c                	INC A
  9724  46e5  320e71            	LD (YCURSYS), A
  9725  46e8  3a1b71            	LD A, (CURRENTTILESHEIGHT)
  9726  46eb  47                	LD B, A
  9727  46ec  3a0e71            	LD A, (YCURSYS)
  9728  46ef  b8                	CP B
  9729  46f0  3807              	JR C, _label656
  9730                          ; peephole(1): r228 (LD A, 0)->(XOR A)
  9731                          ;	LD A, 0
  9732  46f2  af                	XOR A
  9733  46f3  32c300            	LD (_initCharScreen_Ttmp641), A
  9734  46f6  c3fe46            	JMP _label656b2
  9735                          _label656:
  9736  46f9  3eff              	LD A, $ff
  9737  46fb  32c300            	LD (_initCharScreen_Ttmp641), A
  9738                          _label656b2:
  9739  46fe  3ac300            	LD A, (_initCharScreen_Ttmp641)
  9740                          ; peephole(1): r319 (XOR $FF)->(CPL)
  9741                          ;	XOR $FF
  9742  4701  2f                	CPL
  9743  4702  32c300            	LD (_initCharScreen_Ttmp641), A
  9744  4705  3ac300            	LD A, (_initCharScreen_Ttmp641)
  9745  4708  fe00              	CP 0
  9746  470a  c21047            	JP NZ, _label657
  9747  470d  c31347            	JMP _label657b2
  9748                          _label657:
  9749  4710  c31647            	JMP _label654scroll
  9750                          _label657b2:
  9751  4713  c32847            	jp _label654end
  9752                          _label654scroll:
  9753  4716  3ef8              	LD A, $f8
  9754  4718  cd0d28            	CALL VSCROLL
  9755  471b  3a1b71            	LD A, (CURRENTTILESHEIGHT)
  9756  471e  320e71            	LD (YCURSYS), A
  9757  4721  3a0e71            	LD A, (YCURSYS)
  9758  4724  3d                	DEC A
  9759  4725  320e71            	LD (YCURSYS), A
  9760                          _label654end:
  9761                          	; P:49
  9762                          	; L:208
  9763                          	; P:0
  9764                          	; L:209
  9765  4728  3e02              	LD A, $02
  9766  472a  32bc00            	LD (_initCharScreen_Ttmp629), A
  9767  472d  3e01              	LD A, $01
  9768  472f  32bd00            	LD (_initCharScreen_Ttmp630), A
  9769  4732  3e00              	LD A, $00
  9770  4734  32bf00            	LD (_initCharScreen_Ttmp633), A
  9771                          ; peephole(1): r250 (LD A, x; LD (x), A; LD A, x)->(LD A, x; LD (x), A)
  9772                          ;	LD A, $00
  9773  4737  32c000            	LD (_initCharScreen_Ttmp633+1), A
  9774  473a  3abd00            	LD A, (_initCharScreen_Ttmp630)
  9775  473d  32bf00            	LD (_initCharScreen_Ttmp633), A
  9776  4740  3e00              	LD A, $00
  9777  4742  32c600            	LD (_initCharScreen_Ttmp662), A
  9778                          ; peephole(1): r250 (LD A, x; LD (x), A; LD A, x)->(LD A, x; LD (x), A)
  9779                          ;	LD A, $00
  9780  4745  32c700            	LD (_initCharScreen_Ttmp662+1), A
  9781  4748  3e00              	LD A, $00
  9782  474a  32c800            	LD (_initCharScreen_Ttmp663), A
  9783                          ; peephole(1): r250 (LD A, x; LD (x), A; LD A, x)->(LD A, x; LD (x), A)
  9784                          ;	LD A, $00
  9785  474d  32c900            	LD (_initCharScreen_Ttmp663+1), A
  9786  4750  3abc00            	LD A, (_initCharScreen_Ttmp629)
  9787  4753  32c800            	LD (_initCharScreen_Ttmp663), A
  9788  4756  2ac600            	LD HL, (_initCharScreen_Ttmp662)
  9789  4759  ed5bc800          	LD DE, (_initCharScreen_Ttmp663)
  9790  475d  19                	ADD HL, DE
  9791  475e  22c600            	LD (_initCharScreen_Ttmp662), HL
  9792  4761  3ac600            	LD A, (_initCharScreen_Ttmp662)
  9793  4764  32ca00            	LD (_initCharScreen_Ttmp667), A
  9794  4767  3ac700            	LD A, (_initCharScreen_Ttmp662+1)
  9795  476a  32cb00            	LD (_initCharScreen_Ttmp667+1), A
  9796  476d  2aca00            	LD HL, (_initCharScreen_Ttmp667)
  9797                          ; peephole(1): r349 (SLA+RL)->(ADD)
  9798                          ;	SLA L
  9799  4770  29                	ADD HL, HL
  9800                          ;	RL H
  9801  4771  22ca00            	LD (_initCharScreen_Ttmp667), HL
  9802  4774  e600              	AND $0
  9803  4776  2aca00            	LD HL, (_initCharScreen_Ttmp667)
  9804  4779  114871            	LD DE, _availableoptions
  9805  477c  19                	ADD HL, DE
  9806  477d  22ca00            	LD (_initCharScreen_Ttmp667), HL
  9807  4780  ed5bca00          	LD DE, (_initCharScreen_Ttmp667)
  9808  4784  2abf00            	LD HL, (_initCharScreen_Ttmp633)
  9809  4787  7d                	LD A, L
  9810  4788  12                	LD (DE), A
  9811  4789  13                	INC DE
  9812  478a  7c                	LD A, H
  9813  478b  12                	LD (DE), A
  9814                          	; P:44
  9815                          	; L:210
  9816  478c  3e04              	LD A, $04
  9817  478e  32bc00            	LD (_initCharScreen_Ttmp629), A
  9818  4791  3e01              	LD A, $01
  9819  4793  32bd00            	LD (_initCharScreen_Ttmp630), A
  9820  4796  3e00              	LD A, $00
  9821  4798  32bf00            	LD (_initCharScreen_Ttmp633), A
  9822                          ; peephole(1): r250 (LD A, x; LD (x), A; LD A, x)->(LD A, x; LD (x), A)
  9823                          ;	LD A, $00
  9824  479b  32c000            	LD (_initCharScreen_Ttmp633+1), A
  9825  479e  3abd00            	LD A, (_initCharScreen_Ttmp630)
  9826  47a1  32bf00            	LD (_initCharScreen_Ttmp633), A
  9827  47a4  3e00              	LD A, $00
  9828  47a6  32c600            	LD (_initCharScreen_Ttmp662), A
  9829                          ; peephole(1): r250 (LD A, x; LD (x), A; LD A, x)->(LD A, x; LD (x), A)
  9830                          ;	LD A, $00
  9831  47a9  32c700            	LD (_initCharScreen_Ttmp662+1), A
  9832  47ac  3e00              	LD A, $00
  9833  47ae  32c800            	LD (_initCharScreen_Ttmp663), A
  9834                          ; peephole(1): r250 (LD A, x; LD (x), A; LD A, x)->(LD A, x; LD (x), A)
  9835                          ;	LD A, $00
  9836  47b1  32c900            	LD (_initCharScreen_Ttmp663+1), A
  9837  47b4  3abc00            	LD A, (_initCharScreen_Ttmp629)
  9838  47b7  32c800            	LD (_initCharScreen_Ttmp663), A
  9839  47ba  2ac600            	LD HL, (_initCharScreen_Ttmp662)
  9840  47bd  ed5bc800          	LD DE, (_initCharScreen_Ttmp663)
  9841  47c1  19                	ADD HL, DE
  9842  47c2  22c600            	LD (_initCharScreen_Ttmp662), HL
  9843  47c5  3ac600            	LD A, (_initCharScreen_Ttmp662)
  9844  47c8  32ca00            	LD (_initCharScreen_Ttmp667), A
  9845  47cb  3ac700            	LD A, (_initCharScreen_Ttmp662+1)
  9846  47ce  32cb00            	LD (_initCharScreen_Ttmp667+1), A
  9847  47d1  2aca00            	LD HL, (_initCharScreen_Ttmp667)
  9848                          ; peephole(1): r349 (SLA+RL)->(ADD)
  9849                          ;	SLA L
  9850  47d4  29                	ADD HL, HL
  9851                          ;	RL H
  9852  47d5  22ca00            	LD (_initCharScreen_Ttmp667), HL
  9853  47d8  e600              	AND $0
  9854  47da  2aca00            	LD HL, (_initCharScreen_Ttmp667)
  9855  47dd  114871            	LD DE, _availableoptions
  9856  47e0  19                	ADD HL, DE
  9857  47e1  22ca00            	LD (_initCharScreen_Ttmp667), HL
  9858  47e4  ed5bca00          	LD DE, (_initCharScreen_Ttmp667)
  9859  47e8  2abf00            	LD HL, (_initCharScreen_Ttmp633)
  9860  47eb  7d                	LD A, L
  9861  47ec  12                	LD (DE), A
  9862  47ed  13                	INC DE
  9863  47ee  7c                	LD A, H
  9864  47ef  12                	LD (DE), A
  9865                          	; P:44
  9866                          	; L:211
  9867  47f0  3e06              	LD A, $06
  9868  47f2  32bc00            	LD (_initCharScreen_Ttmp629), A
  9869  47f5  3e01              	LD A, $01
  9870  47f7  32bd00            	LD (_initCharScreen_Ttmp630), A
  9871  47fa  3e00              	LD A, $00
  9872  47fc  32bf00            	LD (_initCharScreen_Ttmp633), A
  9873                          ; peephole(1): r250 (LD A, x; LD (x), A; LD A, x)->(LD A, x; LD (x), A)
  9874                          ;	LD A, $00
  9875  47ff  32c000            	LD (_initCharScreen_Ttmp633+1), A
  9876  4802  3abd00            	LD A, (_initCharScreen_Ttmp630)
  9877  4805  32bf00            	LD (_initCharScreen_Ttmp633), A
  9878  4808  3e00              	LD A, $00
  9879  480a  32c600            	LD (_initCharScreen_Ttmp662), A
  9880                          ; peephole(1): r250 (LD A, x; LD (x), A; LD A, x)->(LD A, x; LD (x), A)
  9881                          ;	LD A, $00
  9882  480d  32c700            	LD (_initCharScreen_Ttmp662+1), A
  9883  4810  3e00              	LD A, $00
  9884  4812  32c800            	LD (_initCharScreen_Ttmp663), A
  9885                          ; peephole(1): r250 (LD A, x; LD (x), A; LD A, x)->(LD A, x; LD (x), A)
  9886                          ;	LD A, $00
  9887  4815  32c900            	LD (_initCharScreen_Ttmp663+1), A
  9888  4818  3abc00            	LD A, (_initCharScreen_Ttmp629)
  9889  481b  32c800            	LD (_initCharScreen_Ttmp663), A
  9890  481e  2ac600            	LD HL, (_initCharScreen_Ttmp662)
  9891  4821  ed5bc800          	LD DE, (_initCharScreen_Ttmp663)
  9892  4825  19                	ADD HL, DE
  9893  4826  22c600            	LD (_initCharScreen_Ttmp662), HL
  9894  4829  3ac600            	LD A, (_initCharScreen_Ttmp662)
  9895  482c  32ca00            	LD (_initCharScreen_Ttmp667), A
  9896  482f  3ac700            	LD A, (_initCharScreen_Ttmp662+1)
  9897  4832  32cb00            	LD (_initCharScreen_Ttmp667+1), A
  9898  4835  2aca00            	LD HL, (_initCharScreen_Ttmp667)
  9899                          ; peephole(1): r349 (SLA+RL)->(ADD)
  9900                          ;	SLA L
  9901  4838  29                	ADD HL, HL
  9902                          ;	RL H
  9903  4839  22ca00            	LD (_initCharScreen_Ttmp667), HL
  9904  483c  e600              	AND $0
  9905  483e  2aca00            	LD HL, (_initCharScreen_Ttmp667)
  9906  4841  114871            	LD DE, _availableoptions
  9907  4844  19                	ADD HL, DE
  9908  4845  22ca00            	LD (_initCharScreen_Ttmp667), HL
  9909  4848  ed5bca00          	LD DE, (_initCharScreen_Ttmp667)
  9910  484c  2abf00            	LD HL, (_initCharScreen_Ttmp633)
  9911  484f  7d                	LD A, L
  9912  4850  12                	LD (DE), A
  9913  4851  13                	INC DE
  9914  4852  7c                	LD A, H
  9915  4853  12                	LD (DE), A
  9916                          	; P:44
  9917                          	; L:212
  9918                          	; P:0
  9919                          	; L:213
  9920  4854  3e02              	LD A, $02
  9921  4856  32bc00            	LD (_initCharScreen_Ttmp629), A
  9922  4859  3e00              	LD A, $00
  9923  485b  32c400            	LD (_initCharScreen_Ttmp661), A
  9924                          ; peephole(1): r250 (LD A, x; LD (x), A; LD A, x)->(LD A, x; LD (x), A)
  9925                          ;	LD A, $00
  9926  485e  32c500            	LD (_initCharScreen_Ttmp661+1), A
  9927  4861  3e00              	LD A, $00
  9928  4863  32c600            	LD (_initCharScreen_Ttmp662), A
  9929                          ; peephole(1): r250 (LD A, x; LD (x), A; LD A, x)->(LD A, x; LD (x), A)
  9930                          ;	LD A, $00
  9931  4866  32c700            	LD (_initCharScreen_Ttmp662+1), A
  9932  4869  3abc00            	LD A, (_initCharScreen_Ttmp629)
  9933  486c  32c600            	LD (_initCharScreen_Ttmp662), A
  9934  486f  2ac400            	LD HL, (_initCharScreen_Ttmp661)
  9935  4872  ed5bc600          	LD DE, (_initCharScreen_Ttmp662)
  9936  4876  19                	ADD HL, DE
  9937  4877  22c400            	LD (_initCharScreen_Ttmp661), HL
  9938  487a  e600              	AND $0
  9939  487c  2ac400            	LD HL, (_initCharScreen_Ttmp661)
  9940  487f  115871            	LD DE, _options
  9941  4882  19                	ADD HL, DE
  9942  4883  22c400            	LD (_initCharScreen_Ttmp661), HL
  9943  4886  ed5bc400          	LD DE, (_initCharScreen_Ttmp661)
  9944  488a  1a                	LD A, (DE)
  9945  488b  32cc00            	LD (_initCharScreen_Ttmp681), A
  9946  488e  3a0000            	LD A, (_initCharScreen_Tstr679)
  9947  4891  32be00            	LD (_initCharScreen_Ttmp632), A
  9948  4894  210000            	LD HL, _initCharScreen_Tstr679
  9949  4897  22c100            	LD (_initCharScreen_Ttmp638), HL
  9950  489a  2ac100            	LD HL, (_initCharScreen_Ttmp638)
  9951  489d  23                	INC HL
  9952  489e  22c100            	LD (_initCharScreen_Ttmp638), HL
  9953  48a1  3acc00            	LD A, (_initCharScreen_Ttmp681)
  9954  48a4  47                	LD B, A
  9955  48a5  cd6501            	CALL DSFREE
  9956  48a8  3abe00            	LD A, (_initCharScreen_Ttmp632)
  9957  48ab  4f                	LD C, A
  9958  48ac  cd4e01            	CALL DSALLOC
  9959  48af  78                	LD A, B
  9960  48b0  32cc00            	LD (_initCharScreen_Ttmp681), A
  9961  48b3  3acc00            	LD A, (_initCharScreen_Ttmp681)
  9962  48b6  47                	LD B, A
  9963  48b7  cdaa02            	CALL DSDESCRIPTOR
  9964  48ba  dd7e00            	LD A, (IX)
  9965                          ; peephole(3): unread
  9966                          ;	LD (_initCharScreen_Ttmp664), A
  9967  48bd  dd7e01            	LD A, (IX+1)
  9968  48c0  32cd00            	LD (_initCharScreen_Ttmp682), A
  9969  48c3  dd7e02            	LD A, (IX+2)
  9970  48c6  32ce00            	LD (_initCharScreen_Ttmp682+1), A
  9971  48c9  2ac100            	LD HL, (_initCharScreen_Ttmp638)
  9972  48cc  ed5bcd00          	LD DE, (_initCharScreen_Ttmp682)
  9973  48d0  3abe00            	LD A, (_initCharScreen_Ttmp632)
  9974  48d3  4f                	LD C, A
  9975  48d4  0600              	LD B, 0
  9976  48d6  cdee02            	CALL DUFFDEVICE
  9977  48d9  ed5bc400          	LD DE, (_initCharScreen_Ttmp661)
  9978  48dd  3acc00            	LD A, (_initCharScreen_Ttmp681)
  9979  48e0  12                	LD (DE), A
  9980  48e1  3e00              	LD A, $00
  9981  48e3  32cc00            	LD (_initCharScreen_Ttmp681), A
  9982                          	; P:59
  9983                          	; L:214
  9984  48e6  3e04              	LD A, $04
  9985  48e8  32bc00            	LD (_initCharScreen_Ttmp629), A
  9986  48eb  3e00              	LD A, $00
  9987  48ed  32c400            	LD (_initCharScreen_Ttmp661), A
  9988                          ; peephole(1): r250 (LD A, x; LD (x), A; LD A, x)->(LD A, x; LD (x), A)
  9989                          ;	LD A, $00
  9990  48f0  32c500            	LD (_initCharScreen_Ttmp661+1), A
  9991  48f3  3e00              	LD A, $00
  9992  48f5  32c600            	LD (_initCharScreen_Ttmp662), A
  9993                          ; peephole(1): r250 (LD A, x; LD (x), A; LD A, x)->(LD A, x; LD (x), A)
  9994                          ;	LD A, $00
  9995  48f8  32c700            	LD (_initCharScreen_Ttmp662+1), A
  9996  48fb  3abc00            	LD A, (_initCharScreen_Ttmp629)
  9997  48fe  32c600            	LD (_initCharScreen_Ttmp662), A
  9998  4901  2ac400            	LD HL, (_initCharScreen_Ttmp661)
  9999  4904  ed5bc600          	LD DE, (_initCharScreen_Ttmp662)
 10000  4908  19                	ADD HL, DE
 10001  4909  22c400            	LD (_initCharScreen_Ttmp661), HL
 10002  490c  e600              	AND $0
 10003  490e  2ac400            	LD HL, (_initCharScreen_Ttmp661)
 10004  4911  115871            	LD DE, _options
 10005  4914  19                	ADD HL, DE
 10006  4915  22c400            	LD (_initCharScreen_Ttmp661), HL
 10007  4918  ed5bc400          	LD DE, (_initCharScreen_Ttmp661)
 10008  491c  1a                	LD A, (DE)
 10009  491d  32cf00            	LD (_initCharScreen_Ttmp685), A
 10010  4920  3a0000            	LD A, (_initCharScreen_Tstr683)
 10011  4923  32be00            	LD (_initCharScreen_Ttmp632), A
 10012  4926  210000            	LD HL, _initCharScreen_Tstr683
 10013  4929  22c100            	LD (_initCharScreen_Ttmp638), HL
 10014  492c  2ac100            	LD HL, (_initCharScreen_Ttmp638)
 10015  492f  23                	INC HL
 10016  4930  22c100            	LD (_initCharScreen_Ttmp638), HL
 10017  4933  3acf00            	LD A, (_initCharScreen_Ttmp685)
 10018  4936  47                	LD B, A
 10019  4937  cd6501            	CALL DSFREE
 10020  493a  3abe00            	LD A, (_initCharScreen_Ttmp632)
 10021  493d  4f                	LD C, A
 10022  493e  cd4e01            	CALL DSALLOC
 10023  4941  78                	LD A, B
 10024  4942  32cf00            	LD (_initCharScreen_Ttmp685), A
 10025  4945  3acf00            	LD A, (_initCharScreen_Ttmp685)
 10026  4948  47                	LD B, A
 10027  4949  cdaa02            	CALL DSDESCRIPTOR
 10028  494c  dd7e00            	LD A, (IX)
 10029                          ; peephole(3): unread
 10030                          ;	LD (_initCharScreen_Ttmp664), A
 10031  494f  dd7e01            	LD A, (IX+1)
 10032  4952  32cd00            	LD (_initCharScreen_Ttmp682), A
 10033  4955  dd7e02            	LD A, (IX+2)
 10034  4958  32ce00            	LD (_initCharScreen_Ttmp682+1), A
 10035  495b  2ac100            	LD HL, (_initCharScreen_Ttmp638)
 10036  495e  ed5bcd00          	LD DE, (_initCharScreen_Ttmp682)
 10037  4962  3abe00            	LD A, (_initCharScreen_Ttmp632)
 10038  4965  4f                	LD C, A
 10039  4966  0600              	LD B, 0
 10040  4968  cdee02            	CALL DUFFDEVICE
 10041  496b  ed5bc400          	LD DE, (_initCharScreen_Ttmp661)
 10042  496f  3acf00            	LD A, (_initCharScreen_Ttmp685)
 10043  4972  12                	LD (DE), A
 10044  4973  3e00              	LD A, $00
 10045  4975  32cf00            	LD (_initCharScreen_Ttmp685), A
 10046                          	; P:59
 10047                          	; L:215
 10048  4978  3e06              	LD A, $06
 10049  497a  32bc00            	LD (_initCharScreen_Ttmp629), A
 10050  497d  3e00              	LD A, $00
 10051  497f  32c400            	LD (_initCharScreen_Ttmp661), A
 10052                          ; peephole(1): r250 (LD A, x; LD (x), A; LD A, x)->(LD A, x; LD (x), A)
 10053                          ;	LD A, $00
 10054  4982  32c500            	LD (_initCharScreen_Ttmp661+1), A
 10055  4985  3e00              	LD A, $00
 10056  4987  32c600            	LD (_initCharScreen_Ttmp662), A
 10057                          ; peephole(1): r250 (LD A, x; LD (x), A; LD A, x)->(LD A, x; LD (x), A)
 10058                          ;	LD A, $00
 10059  498a  32c700            	LD (_initCharScreen_Ttmp662+1), A
 10060  498d  3abc00            	LD A, (_initCharScreen_Ttmp629)
 10061  4990  32c600            	LD (_initCharScreen_Ttmp662), A
 10062  4993  2ac400            	LD HL, (_initCharScreen_Ttmp661)
 10063  4996  ed5bc600          	LD DE, (_initCharScreen_Ttmp662)
 10064  499a  19                	ADD HL, DE
 10065  499b  22c400            	LD (_initCharScreen_Ttmp661), HL
 10066  499e  e600              	AND $0
 10067  49a0  2ac400            	LD HL, (_initCharScreen_Ttmp661)
 10068  49a3  115871            	LD DE, _options
 10069  49a6  19                	ADD HL, DE
 10070  49a7  22c400            	LD (_initCharScreen_Ttmp661), HL
 10071  49aa  ed5bc400          	LD DE, (_initCharScreen_Ttmp661)
 10072  49ae  1a                	LD A, (DE)
 10073  49af  32d000            	LD (_initCharScreen_Ttmp688), A
 10074  49b2  3a0000            	LD A, (_initCharScreen_Tstr686)
 10075  49b5  32be00            	LD (_initCharScreen_Ttmp632), A
 10076  49b8  210000            	LD HL, _initCharScreen_Tstr686
 10077  49bb  22c100            	LD (_initCharScreen_Ttmp638), HL
 10078  49be  2ac100            	LD HL, (_initCharScreen_Ttmp638)
 10079  49c1  23                	INC HL
 10080  49c2  22c100            	LD (_initCharScreen_Ttmp638), HL
 10081  49c5  3ad000            	LD A, (_initCharScreen_Ttmp688)
 10082  49c8  47                	LD B, A
 10083  49c9  cd6501            	CALL DSFREE
 10084  49cc  3abe00            	LD A, (_initCharScreen_Ttmp632)
 10085  49cf  4f                	LD C, A
 10086  49d0  cd4e01            	CALL DSALLOC
 10087  49d3  78                	LD A, B
 10088  49d4  32d000            	LD (_initCharScreen_Ttmp688), A
 10089  49d7  3ad000            	LD A, (_initCharScreen_Ttmp688)
 10090  49da  47                	LD B, A
 10091  49db  cdaa02            	CALL DSDESCRIPTOR
 10092  49de  dd7e00            	LD A, (IX)
 10093                          ; peephole(3): unread
 10094                          ;	LD (_initCharScreen_Ttmp664), A
 10095  49e1  dd7e01            	LD A, (IX+1)
 10096  49e4  32cd00            	LD (_initCharScreen_Ttmp682), A
 10097  49e7  dd7e02            	LD A, (IX+2)
 10098  49ea  32ce00            	LD (_initCharScreen_Ttmp682+1), A
 10099  49ed  2ac100            	LD HL, (_initCharScreen_Ttmp638)
 10100  49f0  ed5bcd00          	LD DE, (_initCharScreen_Ttmp682)
 10101  49f4  3abe00            	LD A, (_initCharScreen_Ttmp632)
 10102  49f7  4f                	LD C, A
 10103  49f8  0600              	LD B, 0
 10104  49fa  cdee02            	CALL DUFFDEVICE
 10105  49fd  ed5bc400          	LD DE, (_initCharScreen_Ttmp661)
 10106  4a01  3ad000            	LD A, (_initCharScreen_Ttmp688)
 10107  4a04  12                	LD (DE), A
 10108  4a05  3e00              	LD A, $00
 10109  4a07  32d000            	LD (_initCharScreen_Ttmp688), A
 10110                          	; P:59
 10111                          	; L:216
 10112  4a0a  cdba2f            	call printOptions
 10113                          	; P:1
 10114                          	; L:217
 10115  4a0d  cdd326            	call printPointer
 10116                          	; P:1
 10117                          	; L:218
 10118                          ; peephole(1): r383 (CALL+RET)->(JP)
 10119                          ;	call reprintCreateCharacterScreen
 10120  4a10  c3ac37            	JP reprintCreateCharacterScreen
 10121                          	; P:1
 10122                          	; L:219
 10123                          ;	RET
 10124                          initCharScreenafter:
 10125                          	; P:2
 10126                          	; L:220
 10127                          	; P:0
 10128                          	; L:221
 10129  4a13  c3d04e            	jp spendcharpointafter
 10130                          spendcharpoint:
 10131                          	; P:2
 10132                          	; L:222
 10133  4a16  3e01              	LD A, $01
 10134  4a18  32d100            	LD (_spendcharpoint_Ttmp689), A
 10135  4a1b  0600              	LD B, 0
 10136  4a1d  3ad100            	LD A, (_spendcharpoint_Ttmp689)
 10137  4a20  90                	SUB A, B
 10138  4a21  47                	LD B, A
 10139  4a22  3a8372            	LD A, (_charPoints)
 10140  4a25  90                	SUB A,B
 10141  4a26  32d200            	LD (_spendcharpoint_Ttmp690), A
 10142                          	 ; variable_move_8bit_8bit
 10143                          	 ; 8 BIT (unsigned) -> 8 BIT (unsigned)
 10144  4a29  3ad200            	LD A, (_spendcharpoint_Ttmp690)
 10145  4a2c  328372            	LD (_charPoints), A
 10146                          	; P:11
 10147                          	; L:223
 10148                          	; P:0
 10149                          	; L:224
 10150  4a2f  3e00              	LD A, $00
 10151  4a31  32d700            	LD (_spendcharpoint_Ttmp695), A
 10152                          ; peephole(1): r250 (LD A, x; LD (x), A; LD A, x)->(LD A, x; LD (x), A)
 10153                          ;	LD A, $00
 10154  4a34  32d800            	LD (_spendcharpoint_Ttmp695+1), A
 10155  4a37  2ad700            	LD HL, (_spendcharpoint_Ttmp695)
 10156  4a3a  ed5b8772          	LD DE, (_optionspointer)
 10157  4a3e  19                	ADD HL, DE
 10158  4a3f  22d700            	LD (_spendcharpoint_Ttmp695), HL
 10159  4a42  e600              	AND $0
 10160  4a44  2ad700            	LD HL, (_spendcharpoint_Ttmp695)
 10161  4a47  115871            	LD DE, _options
 10162  4a4a  19                	ADD HL, DE
 10163  4a4b  22d700            	LD (_spendcharpoint_Ttmp695), HL
 10164  4a4e  ed5bd700          	LD DE, (_spendcharpoint_Ttmp695)
 10165  4a52  1a                	LD A, (DE)
 10166  4a53  32d900            	LD (_spendcharpoint_Ttmp696), A
 10167  4a56  3ad900            	LD A, (_spendcharpoint_Ttmp696)
 10168  4a59  47                	LD B, A
 10169  4a5a  cdaa02            	CALL DSDESCRIPTOR
 10170  4a5d  dd7e00            	LD A, (IX)
 10171  4a60  32d100            	LD (_spendcharpoint_Ttmp689), A
 10172  4a63  dd7e01            	LD A, (IX+1)
 10173  4a66  32da00            	LD (_spendcharpoint_Ttmp697), A
 10174  4a69  dd7e02            	LD A, (IX+2)
 10175  4a6c  32db00            	LD (_spendcharpoint_Ttmp697+1), A
 10176  4a6f  3ad400            	LD A, (_spendcharpoint_Ttmp693)
 10177  4a72  47                	LD B, A
 10178  4a73  cd6501            	CALL DSFREE
 10179  4a76  3ad100            	LD A, (_spendcharpoint_Ttmp689)
 10180  4a79  4f                	LD C, A
 10181  4a7a  cd4e01            	CALL DSALLOC
 10182  4a7d  78                	LD A, B
 10183  4a7e  32d400            	LD (_spendcharpoint_Ttmp693), A
 10184  4a81  3ad400            	LD A, (_spendcharpoint_Ttmp693)
 10185  4a84  47                	LD B, A
 10186  4a85  cdaa02            	CALL DSDESCRIPTOR
 10187  4a88  dd7e00            	LD A, (IX)
 10188  4a8b  32d200            	LD (_spendcharpoint_Ttmp690), A
 10189  4a8e  dd7e01            	LD A, (IX+1)
 10190  4a91  32dc00            	LD (_spendcharpoint_Ttmp698), A
 10191  4a94  dd7e02            	LD A, (IX+2)
 10192  4a97  32dd00            	LD (_spendcharpoint_Ttmp698+1), A
 10193  4a9a  2ada00            	LD HL, (_spendcharpoint_Ttmp697)
 10194  4a9d  ed5bdc00          	LD DE, (_spendcharpoint_Ttmp698)
 10195  4aa1  3ad100            	LD A, (_spendcharpoint_Ttmp689)
 10196  4aa4  4f                	LD C, A
 10197  4aa5  0600              	LD B, 0
 10198  4aa7  cdee02            	CALL DUFFDEVICE
 10199  4aaa  3a0000            	LD A, (_spendcharpoint_Tstr699)
 10200  4aad  32e300            	LD (_spendcharpoint_Ttmp704), A
 10201  4ab0  3ad400            	LD A, (_spendcharpoint_Ttmp693)
 10202  4ab3  47                	LD B, A
 10203  4ab4  cdaa02            	CALL DSDESCRIPTOR
 10204  4ab7  dd7e00            	LD A, (IX)
 10205  4aba  32d300            	LD (_spendcharpoint_Ttmp691), A
 10206  4abd  dd7e01            	LD A, (IX+1)
 10207  4ac0  32df00            	LD (_spendcharpoint_Ttmp702), A
 10208  4ac3  dd7e02            	LD A, (IX+2)
 10209  4ac6  32e000            	LD (_spendcharpoint_Ttmp702+1), A
 10210  4ac9  3ad300            	LD A, (_spendcharpoint_Ttmp691)
 10211  4acc  47                	LD B, A
 10212  4acd  3ae300            	LD A, (_spendcharpoint_Ttmp704)
 10213  4ad0  b8                	CP B
 10214  4ad1  c2dc4a            	JP NZ, _label705
 10215  4ad4  3eff              	LD A, $ff
 10216  4ad6  32de00            	LD (_spendcharpoint_Ttmp701), A
 10217  4ad9  c3e14a            	JMP _label705b2
 10218                          _label705:
 10219  4adc  3e00              	LD A, $00
 10220  4ade  32de00            	LD (_spendcharpoint_Ttmp701), A
 10221                          _label705b2:
 10222  4ae1  3ade00            	LD A, (_spendcharpoint_Ttmp701)
 10223  4ae4  fe00              	CP 0
 10224  4ae6  caec4a            	JP Z, _label706
 10225  4ae9  c3ef4a            	JMP _label706b2
 10226                          _label706:
 10227  4aec  c3234b            	JMP _label700
 10228                          _label706b2:
 10229  4aef  210000            	LD HL, _spendcharpoint_Tstr699
 10230  4af2  22e100            	LD (_spendcharpoint_Ttmp703), HL
 10231  4af5  2ae100            	LD HL, (_spendcharpoint_Ttmp703)
 10232  4af8  23                	INC HL
 10233  4af9  22e100            	LD (_spendcharpoint_Ttmp703), HL
 10234  4afc  3ad300            	LD A, (_spendcharpoint_Ttmp691)
 10235  4aff  fe00              	CP 0
 10236  4b01  2813              	JR Z, _label707equal
 10237  4b03  4f                	LD C, A
 10238  4b04  2adf00            	LD HL, (_spendcharpoint_Ttmp702)
 10239  4b07  ed5be100          	LD DE, (_spendcharpoint_Ttmp703)
 10240                          _label707:
 10241  4b0b  7e                	LD A, (HL)
 10242  4b0c  47                	LD B, A
 10243  4b0d  1a                	LD A, (DE)
 10244  4b0e  b8                	CP B
 10245  4b0f  200d              	JR NZ, _label707diff
 10246  4b11  13                	INC DE
 10247  4b12  23                	INC HL
 10248  4b13  0d                	DEC C
 10249  4b14  20f5              	JR NZ, _label707
 10250                          _label707equal:
 10251  4b16  3eff              	LD A, $ff
 10252  4b18  32de00            	LD (_spendcharpoint_Ttmp701), A
 10253  4b1b  c3234b            	JMP _label707final
 10254                          _label707diff:
 10255  4b1e  3e00              	LD A, $00
 10256  4b20  32de00            	LD (_spendcharpoint_Ttmp701), A
 10257                          _label707final:
 10258                          _label700:
 10259  4b23  3ade00            	LD A, (_spendcharpoint_Ttmp701)
 10260  4b26  fe00              	CP 0
 10261  4b28  ca2e4b            	JP Z, _label709
 10262  4b2b  c3314b            	JMP _label709b2
 10263                          _label709:
 10264  4b2e  c3f14b            	JMP _label708e0
 10265                          _label709b2:
 10266                          _label708t:
 10267                          	; P:116
 10268                          	; L:225
 10269  4b31  3e00              	LD A, $00
 10270  4b33  32d100            	LD (_spendcharpoint_Ttmp689), A
 10271                          ; peephole(1): r250 (LD A, x; LD (x), A; LD A, x)->(LD A, x; LD (x), A)
 10272                          ;	LD A, $00
 10273  4b36  32d200            	LD (_spendcharpoint_Ttmp690), A
 10274  4b39  215f72            	LD HL, _partystr
 10275  4b3c  3ad200            	LD A, (_spendcharpoint_Ttmp690)
 10276  4b3f  5f                	LD E, A
 10277                          ; peephole(1): r228 (LD A, 0)->(XOR A)
 10278                          ;	LD A, 0
 10279  4b40  af                	XOR A
 10280  4b41  57                	LD D, A
 10281  4b42  19                	ADD HL, DE
 10282  4b43  19                	ADD HL, DE
 10283  4b44  7e                	LD A, (HL)
 10284  4b45  32d500            	LD (_spendcharpoint_Ttmp694), A
 10285  4b48  23                	INC HL
 10286  4b49  7e                	LD A, (HL)
 10287  4b4a  32d600            	LD (_spendcharpoint_Ttmp694+1), A
 10288  4b4d  3e01              	LD A, $01
 10289  4b4f  32d300            	LD (_spendcharpoint_Ttmp691), A
 10290  4b52  3e00              	LD A, $00
 10291  4b54  32d700            	LD (_spendcharpoint_Ttmp695), A
 10292                          ; peephole(1): r250 (LD A, x; LD (x), A; LD A, x)->(LD A, x; LD (x), A)
 10293                          ;	LD A, $00
 10294  4b57  32d800            	LD (_spendcharpoint_Ttmp695+1), A
 10295  4b5a  3ad300            	LD A, (_spendcharpoint_Ttmp691)
 10296  4b5d  32d700            	LD (_spendcharpoint_Ttmp695), A
 10297  4b60  2ad500            	LD HL, (_spendcharpoint_Ttmp694)
 10298  4b63  ed5bd700          	LD DE, (_spendcharpoint_Ttmp695)
 10299  4b67  19                	ADD HL, DE
 10300  4b68  22e400            	LD (_spendcharpoint_Ttmp713), HL
 10301  4b6b  3ae400            	LD A, (_spendcharpoint_Ttmp713)
 10302  4b6e  32e600            	LD (_spendcharpoint_Ttmp715), A
 10303  4b71  3ae500            	LD A, (_spendcharpoint_Ttmp713+1)
 10304  4b74  32e700            	LD (_spendcharpoint_Ttmp715+1), A
 10305  4b77  3ae700            	LD A, (_spendcharpoint_Ttmp715+1)
 10306  4b7a  e680              	AND $80
 10307  4b7c  fe00              	CP 0
 10308  4b7e  2805              	JR Z,_label719
 10309  4b80  3eff              	LD A, $FF
 10310                          ; peephole(3): unread
 10311                          ;	LD (_spendcharpoint_Ttmp718), A
 10312  4b82  c3874b            	JMP _label719done
 10313                          _label719:
 10314  4b85  3e00              	LD A, $0
 10315                          ; peephole(3): unread
 10316                          ;	LD (_spendcharpoint_Ttmp718), A
 10317                          _label719done:
 10318  4b87  ca8d4b            	JP Z, _label720
 10319  4b8a  c3904b            	JMP _label720b2
 10320                          _label720:
 10321  4b8d  c3a54b            	JMP _label717
 10322                          _label720b2:
 10323  4b90  3ae600            	LD A, (_spendcharpoint_Ttmp715)
 10324                          ; peephole(1): r319 (XOR $FF)->(CPL)
 10325                          ;	XOR $FF
 10326  4b93  2f                	CPL
 10327  4b94  32e600            	LD (_spendcharpoint_Ttmp715), A
 10328  4b97  3ae700            	LD A, (_spendcharpoint_Ttmp715+1)
 10329                          ; peephole(1): r319 (XOR $FF)->(CPL)
 10330                          ;	XOR $FF
 10331  4b9a  2f                	CPL
 10332  4b9b  32e700            	LD (_spendcharpoint_Ttmp715+1), A
 10333  4b9e  2ae600            	LD HL, (_spendcharpoint_Ttmp715)
 10334  4ba1  23                	INC HL
 10335  4ba2  22e600            	LD (_spendcharpoint_Ttmp715), HL
 10336                          _label717:
 10337  4ba5  3e00              	LD A, $00
 10338  4ba7  32e800            	LD (_spendcharpoint_Ttmp723), A
 10339                          ; peephole(1): r250 (LD A, x; LD (x), A; LD A, x)->(LD A, x; LD (x), A)
 10340                          ;	LD A, $00
 10341  4baa  32e900            	LD (_spendcharpoint_Ttmp723+1), A
 10342  4bad  3e00              	LD A, $00
 10343  4baf  32ea00            	LD (_spendcharpoint_Ttmp724), A
 10344                          ; peephole(1): r250 (LD A, x; LD (x), A; LD A, x)->(LD A, x; LD (x), A)
 10345                          ;	LD A, $00
 10346  4bb2  32eb00            	LD (_spendcharpoint_Ttmp724+1), A
 10347  4bb5  3ad100            	LD A, (_spendcharpoint_Ttmp689)
 10348  4bb8  32ea00            	LD (_spendcharpoint_Ttmp724), A
 10349  4bbb  2ae800            	LD HL, (_spendcharpoint_Ttmp723)
 10350  4bbe  ed5bea00          	LD DE, (_spendcharpoint_Ttmp724)
 10351  4bc2  19                	ADD HL, DE
 10352  4bc3  22e800            	LD (_spendcharpoint_Ttmp723), HL
 10353  4bc6  3ae800            	LD A, (_spendcharpoint_Ttmp723)
 10354  4bc9  32ec00            	LD (_spendcharpoint_Ttmp728), A
 10355  4bcc  3ae900            	LD A, (_spendcharpoint_Ttmp723+1)
 10356  4bcf  32ed00            	LD (_spendcharpoint_Ttmp728+1), A
 10357  4bd2  2aec00            	LD HL, (_spendcharpoint_Ttmp728)
 10358                          ; peephole(1): r349 (SLA+RL)->(ADD)
 10359                          ;	SLA L
 10360  4bd5  29                	ADD HL, HL
 10361                          ;	RL H
 10362  4bd6  22ec00            	LD (_spendcharpoint_Ttmp728), HL
 10363  4bd9  e600              	AND $0
 10364  4bdb  2aec00            	LD HL, (_spendcharpoint_Ttmp728)
 10365  4bde  115f72            	LD DE, _partystr
 10366  4be1  19                	ADD HL, DE
 10367  4be2  22ec00            	LD (_spendcharpoint_Ttmp728), HL
 10368  4be5  ed5bec00          	LD DE, (_spendcharpoint_Ttmp728)
 10369  4be9  2ae600            	LD HL, (_spendcharpoint_Ttmp715)
 10370  4bec  7d                	LD A, L
 10371  4bed  12                	LD (DE), A
 10372  4bee  13                	INC DE
 10373  4bef  7c                	LD A, H
 10374  4bf0  12                	LD (DE), A
 10375                          	; P:92
 10376                          	; L:226
 10377                          _label708f:
 10378                          _label708e0:
 10379                          	; P:2
 10380                          	; L:227
 10381  4bf1  3e00              	LD A, $00
 10382  4bf3  32d700            	LD (_spendcharpoint_Ttmp695), A
 10383                          ; peephole(1): r250 (LD A, x; LD (x), A; LD A, x)->(LD A, x; LD (x), A)
 10384                          ;	LD A, $00
 10385  4bf6  32d800            	LD (_spendcharpoint_Ttmp695+1), A
 10386  4bf9  2ad700            	LD HL, (_spendcharpoint_Ttmp695)
 10387  4bfc  ed5b8772          	LD DE, (_optionspointer)
 10388  4c00  19                	ADD HL, DE
 10389  4c01  22d700            	LD (_spendcharpoint_Ttmp695), HL
 10390  4c04  e600              	AND $0
 10391  4c06  2ad700            	LD HL, (_spendcharpoint_Ttmp695)
 10392  4c09  115871            	LD DE, _options
 10393  4c0c  19                	ADD HL, DE
 10394  4c0d  22d700            	LD (_spendcharpoint_Ttmp695), HL
 10395  4c10  ed5bd700          	LD DE, (_spendcharpoint_Ttmp695)
 10396  4c14  1a                	LD A, (DE)
 10397  4c15  32ef00            	LD (_spendcharpoint_Ttmp732), A
 10398  4c18  3aef00            	LD A, (_spendcharpoint_Ttmp732)
 10399  4c1b  47                	LD B, A
 10400  4c1c  cdaa02            	CALL DSDESCRIPTOR
 10401  4c1f  dd7e00            	LD A, (IX)
 10402  4c22  32d100            	LD (_spendcharpoint_Ttmp689), A
 10403  4c25  dd7e01            	LD A, (IX+1)
 10404  4c28  32da00            	LD (_spendcharpoint_Ttmp697), A
 10405  4c2b  dd7e02            	LD A, (IX+2)
 10406  4c2e  32db00            	LD (_spendcharpoint_Ttmp697+1), A
 10407  4c31  3aee00            	LD A, (_spendcharpoint_Ttmp731)
 10408  4c34  47                	LD B, A
 10409  4c35  cd6501            	CALL DSFREE
 10410  4c38  3ad100            	LD A, (_spendcharpoint_Ttmp689)
 10411  4c3b  4f                	LD C, A
 10412  4c3c  cd4e01            	CALL DSALLOC
 10413  4c3f  78                	LD A, B
 10414  4c40  32ee00            	LD (_spendcharpoint_Ttmp731), A
 10415  4c43  3aee00            	LD A, (_spendcharpoint_Ttmp731)
 10416  4c46  47                	LD B, A
 10417  4c47  cdaa02            	CALL DSDESCRIPTOR
 10418  4c4a  dd7e00            	LD A, (IX)
 10419  4c4d  32d200            	LD (_spendcharpoint_Ttmp690), A
 10420  4c50  dd7e01            	LD A, (IX+1)
 10421  4c53  32dc00            	LD (_spendcharpoint_Ttmp698), A
 10422  4c56  dd7e02            	LD A, (IX+2)
 10423  4c59  32dd00            	LD (_spendcharpoint_Ttmp698+1), A
 10424  4c5c  2ada00            	LD HL, (_spendcharpoint_Ttmp697)
 10425  4c5f  ed5bdc00          	LD DE, (_spendcharpoint_Ttmp698)
 10426  4c63  3ad100            	LD A, (_spendcharpoint_Ttmp689)
 10427  4c66  4f                	LD C, A
 10428  4c67  0600              	LD B, 0
 10429  4c69  cdee02            	CALL DUFFDEVICE
 10430  4c6c  3a0000            	LD A, (_spendcharpoint_Tstr733)
 10431  4c6f  32e300            	LD (_spendcharpoint_Ttmp704), A
 10432  4c72  3aee00            	LD A, (_spendcharpoint_Ttmp731)
 10433  4c75  47                	LD B, A
 10434  4c76  cdaa02            	CALL DSDESCRIPTOR
 10435  4c79  dd7e00            	LD A, (IX)
 10436  4c7c  32d300            	LD (_spendcharpoint_Ttmp691), A
 10437  4c7f  dd7e01            	LD A, (IX+1)
 10438  4c82  32df00            	LD (_spendcharpoint_Ttmp702), A
 10439  4c85  dd7e02            	LD A, (IX+2)
 10440  4c88  32e000            	LD (_spendcharpoint_Ttmp702+1), A
 10441  4c8b  3ad300            	LD A, (_spendcharpoint_Ttmp691)
 10442  4c8e  47                	LD B, A
 10443  4c8f  3ae300            	LD A, (_spendcharpoint_Ttmp704)
 10444  4c92  b8                	CP B
 10445  4c93  c29e4c            	JP NZ, _label735
 10446  4c96  3eff              	LD A, $ff
 10447  4c98  32de00            	LD (_spendcharpoint_Ttmp701), A
 10448  4c9b  c3a34c            	JMP _label735b2
 10449                          _label735:
 10450  4c9e  3e00              	LD A, $00
 10451  4ca0  32de00            	LD (_spendcharpoint_Ttmp701), A
 10452                          _label735b2:
 10453  4ca3  3ade00            	LD A, (_spendcharpoint_Ttmp701)
 10454  4ca6  fe00              	CP 0
 10455  4ca8  caae4c            	JP Z, _label736
 10456  4cab  c3b14c            	JMP _label736b2
 10457                          _label736:
 10458  4cae  c3e54c            	JMP _label734
 10459                          _label736b2:
 10460  4cb1  210000            	LD HL, _spendcharpoint_Tstr733
 10461  4cb4  22e100            	LD (_spendcharpoint_Ttmp703), HL
 10462  4cb7  2ae100            	LD HL, (_spendcharpoint_Ttmp703)
 10463  4cba  23                	INC HL
 10464  4cbb  22e100            	LD (_spendcharpoint_Ttmp703), HL
 10465  4cbe  3ad300            	LD A, (_spendcharpoint_Ttmp691)
 10466  4cc1  fe00              	CP 0
 10467  4cc3  2813              	JR Z, _label737equal
 10468  4cc5  4f                	LD C, A
 10469  4cc6  2adf00            	LD HL, (_spendcharpoint_Ttmp702)
 10470  4cc9  ed5be100          	LD DE, (_spendcharpoint_Ttmp703)
 10471                          _label737:
 10472  4ccd  7e                	LD A, (HL)
 10473  4cce  47                	LD B, A
 10474  4ccf  1a                	LD A, (DE)
 10475  4cd0  b8                	CP B
 10476  4cd1  200d              	JR NZ, _label737diff
 10477  4cd3  13                	INC DE
 10478  4cd4  23                	INC HL
 10479  4cd5  0d                	DEC C
 10480  4cd6  20f5              	JR NZ, _label737
 10481                          _label737equal:
 10482  4cd8  3eff              	LD A, $ff
 10483  4cda  32de00            	LD (_spendcharpoint_Ttmp701), A
 10484  4cdd  c3e54c            	JMP _label737final
 10485                          _label737diff:
 10486  4ce0  3e00              	LD A, $00
 10487  4ce2  32de00            	LD (_spendcharpoint_Ttmp701), A
 10488                          _label737final:
 10489                          _label734:
 10490  4ce5  3ade00            	LD A, (_spendcharpoint_Ttmp701)
 10491  4ce8  fe00              	CP 0
 10492  4cea  caf04c            	JP Z, _label739
 10493  4ced  c3f34c            	JMP _label739b2
 10494                          _label739:
 10495  4cf0  c3b34d            	JMP _label738e0
 10496                          _label739b2:
 10497                          _label738t:
 10498                          	; P:116
 10499                          	; L:228
 10500  4cf3  3e00              	LD A, $00
 10501  4cf5  32d100            	LD (_spendcharpoint_Ttmp689), A
 10502                          ; peephole(1): r250 (LD A, x; LD (x), A; LD A, x)->(LD A, x; LD (x), A)
 10503                          ;	LD A, $00
 10504  4cf8  32d200            	LD (_spendcharpoint_Ttmp690), A
 10505  4cfb  217172            	LD HL, _partyskill
 10506  4cfe  3ad200            	LD A, (_spendcharpoint_Ttmp690)
 10507  4d01  5f                	LD E, A
 10508                          ; peephole(1): r228 (LD A, 0)->(XOR A)
 10509                          ;	LD A, 0
 10510  4d02  af                	XOR A
 10511  4d03  57                	LD D, A
 10512  4d04  19                	ADD HL, DE
 10513  4d05  19                	ADD HL, DE
 10514  4d06  7e                	LD A, (HL)
 10515  4d07  32d500            	LD (_spendcharpoint_Ttmp694), A
 10516  4d0a  23                	INC HL
 10517  4d0b  7e                	LD A, (HL)
 10518  4d0c  32d600            	LD (_spendcharpoint_Ttmp694+1), A
 10519  4d0f  3e01              	LD A, $01
 10520  4d11  32d300            	LD (_spendcharpoint_Ttmp691), A
 10521  4d14  3e00              	LD A, $00
 10522  4d16  32d700            	LD (_spendcharpoint_Ttmp695), A
 10523                          ; peephole(1): r250 (LD A, x; LD (x), A; LD A, x)->(LD A, x; LD (x), A)
 10524                          ;	LD A, $00
 10525  4d19  32d800            	LD (_spendcharpoint_Ttmp695+1), A
 10526  4d1c  3ad300            	LD A, (_spendcharpoint_Ttmp691)
 10527  4d1f  32d700            	LD (_spendcharpoint_Ttmp695), A
 10528  4d22  2ad500            	LD HL, (_spendcharpoint_Ttmp694)
 10529  4d25  ed5bd700          	LD DE, (_spendcharpoint_Ttmp695)
 10530  4d29  19                	ADD HL, DE
 10531  4d2a  22e400            	LD (_spendcharpoint_Ttmp713), HL
 10532  4d2d  3ae400            	LD A, (_spendcharpoint_Ttmp713)
 10533  4d30  32e600            	LD (_spendcharpoint_Ttmp715), A
 10534  4d33  3ae500            	LD A, (_spendcharpoint_Ttmp713+1)
 10535  4d36  32e700            	LD (_spendcharpoint_Ttmp715+1), A
 10536  4d39  3ae700            	LD A, (_spendcharpoint_Ttmp715+1)
 10537  4d3c  e680              	AND $80
 10538  4d3e  fe00              	CP 0
 10539  4d40  2805              	JR Z,_label744
 10540  4d42  3eff              	LD A, $FF
 10541                          ; peephole(3): unread
 10542                          ;	LD (_spendcharpoint_Ttmp718), A
 10543  4d44  c3494d            	JMP _label744done
 10544                          _label744:
 10545  4d47  3e00              	LD A, $0
 10546                          ; peephole(3): unread
 10547                          ;	LD (_spendcharpoint_Ttmp718), A
 10548                          _label744done:
 10549  4d49  ca4f4d            	JP Z, _label745
 10550  4d4c  c3524d            	JMP _label745b2
 10551                          _label745:
 10552  4d4f  c3674d            	JMP _label743
 10553                          _label745b2:
 10554  4d52  3ae600            	LD A, (_spendcharpoint_Ttmp715)
 10555                          ; peephole(1): r319 (XOR $FF)->(CPL)
 10556                          ;	XOR $FF
 10557  4d55  2f                	CPL
 10558  4d56  32e600            	LD (_spendcharpoint_Ttmp715), A
 10559  4d59  3ae700            	LD A, (_spendcharpoint_Ttmp715+1)
 10560                          ; peephole(1): r319 (XOR $FF)->(CPL)
 10561                          ;	XOR $FF
 10562  4d5c  2f                	CPL
 10563  4d5d  32e700            	LD (_spendcharpoint_Ttmp715+1), A
 10564  4d60  2ae600            	LD HL, (_spendcharpoint_Ttmp715)
 10565  4d63  23                	INC HL
 10566  4d64  22e600            	LD (_spendcharpoint_Ttmp715), HL
 10567                          _label743:
 10568  4d67  3e00              	LD A, $00
 10569  4d69  32e800            	LD (_spendcharpoint_Ttmp723), A
 10570                          ; peephole(1): r250 (LD A, x; LD (x), A; LD A, x)->(LD A, x; LD (x), A)
 10571                          ;	LD A, $00
 10572  4d6c  32e900            	LD (_spendcharpoint_Ttmp723+1), A
 10573  4d6f  3e00              	LD A, $00
 10574  4d71  32ea00            	LD (_spendcharpoint_Ttmp724), A
 10575                          ; peephole(1): r250 (LD A, x; LD (x), A; LD A, x)->(LD A, x; LD (x), A)
 10576                          ;	LD A, $00
 10577  4d74  32eb00            	LD (_spendcharpoint_Ttmp724+1), A
 10578  4d77  3ad100            	LD A, (_spendcharpoint_Ttmp689)
 10579  4d7a  32ea00            	LD (_spendcharpoint_Ttmp724), A
 10580  4d7d  2ae800            	LD HL, (_spendcharpoint_Ttmp723)
 10581  4d80  ed5bea00          	LD DE, (_spendcharpoint_Ttmp724)
 10582  4d84  19                	ADD HL, DE
 10583  4d85  22e800            	LD (_spendcharpoint_Ttmp723), HL
 10584  4d88  3ae800            	LD A, (_spendcharpoint_Ttmp723)
 10585  4d8b  32ec00            	LD (_spendcharpoint_Ttmp728), A
 10586  4d8e  3ae900            	LD A, (_spendcharpoint_Ttmp723+1)
 10587  4d91  32ed00            	LD (_spendcharpoint_Ttmp728+1), A
 10588  4d94  2aec00            	LD HL, (_spendcharpoint_Ttmp728)
 10589                          ; peephole(1): r349 (SLA+RL)->(ADD)
 10590                          ;	SLA L
 10591  4d97  29                	ADD HL, HL
 10592                          ;	RL H
 10593  4d98  22ec00            	LD (_spendcharpoint_Ttmp728), HL
 10594  4d9b  e600              	AND $0
 10595  4d9d  2aec00            	LD HL, (_spendcharpoint_Ttmp728)
 10596  4da0  117172            	LD DE, _partyskill
 10597  4da3  19                	ADD HL, DE
 10598  4da4  22ec00            	LD (_spendcharpoint_Ttmp728), HL
 10599  4da7  ed5bec00          	LD DE, (_spendcharpoint_Ttmp728)
 10600  4dab  2ae600            	LD HL, (_spendcharpoint_Ttmp715)
 10601  4dae  7d                	LD A, L
 10602  4daf  12                	LD (DE), A
 10603  4db0  13                	INC DE
 10604  4db1  7c                	LD A, H
 10605  4db2  12                	LD (DE), A
 10606                          	; P:92
 10607                          	; L:229
 10608                          _label738f:
 10609                          _label738e0:
 10610                          	; P:2
 10611                          	; L:230
 10612  4db3  3e00              	LD A, $00
 10613  4db5  32d700            	LD (_spendcharpoint_Ttmp695), A
 10614                          ; peephole(1): r250 (LD A, x; LD (x), A; LD A, x)->(LD A, x; LD (x), A)
 10615                          ;	LD A, $00
 10616  4db8  32d800            	LD (_spendcharpoint_Ttmp695+1), A
 10617  4dbb  2ad700            	LD HL, (_spendcharpoint_Ttmp695)
 10618  4dbe  ed5b8772          	LD DE, (_optionspointer)
 10619  4dc2  19                	ADD HL, DE
 10620  4dc3  22d700            	LD (_spendcharpoint_Ttmp695), HL
 10621  4dc6  e600              	AND $0
 10622  4dc8  2ad700            	LD HL, (_spendcharpoint_Ttmp695)
 10623  4dcb  115871            	LD DE, _options
 10624  4dce  19                	ADD HL, DE
 10625  4dcf  22d700            	LD (_spendcharpoint_Ttmp695), HL
 10626  4dd2  ed5bd700          	LD DE, (_spendcharpoint_Ttmp695)
 10627  4dd6  1a                	LD A, (DE)
 10628  4dd7  32f100            	LD (_spendcharpoint_Ttmp751), A
 10629  4dda  3af100            	LD A, (_spendcharpoint_Ttmp751)
 10630  4ddd  47                	LD B, A
 10631  4dde  cdaa02            	CALL DSDESCRIPTOR
 10632  4de1  dd7e00            	LD A, (IX)
 10633  4de4  32d100            	LD (_spendcharpoint_Ttmp689), A
 10634  4de7  dd7e01            	LD A, (IX+1)
 10635  4dea  32da00            	LD (_spendcharpoint_Ttmp697), A
 10636  4ded  dd7e02            	LD A, (IX+2)
 10637  4df0  32db00            	LD (_spendcharpoint_Ttmp697+1), A
 10638  4df3  3af000            	LD A, (_spendcharpoint_Ttmp750)
 10639  4df6  47                	LD B, A
 10640  4df7  cd6501            	CALL DSFREE
 10641  4dfa  3ad100            	LD A, (_spendcharpoint_Ttmp689)
 10642  4dfd  4f                	LD C, A
 10643  4dfe  cd4e01            	CALL DSALLOC
 10644  4e01  78                	LD A, B
 10645  4e02  32f000            	LD (_spendcharpoint_Ttmp750), A
 10646  4e05  3af000            	LD A, (_spendcharpoint_Ttmp750)
 10647  4e08  47                	LD B, A
 10648  4e09  cdaa02            	CALL DSDESCRIPTOR
 10649  4e0c  dd7e00            	LD A, (IX)
 10650  4e0f  32d200            	LD (_spendcharpoint_Ttmp690), A
 10651  4e12  dd7e01            	LD A, (IX+1)
 10652  4e15  32dc00            	LD (_spendcharpoint_Ttmp698), A
 10653  4e18  dd7e02            	LD A, (IX+2)
 10654  4e1b  32dd00            	LD (_spendcharpoint_Ttmp698+1), A
 10655  4e1e  2ada00            	LD HL, (_spendcharpoint_Ttmp697)
 10656  4e21  ed5bdc00          	LD DE, (_spendcharpoint_Ttmp698)
 10657  4e25  3ad100            	LD A, (_spendcharpoint_Ttmp689)
 10658  4e28  4f                	LD C, A
 10659  4e29  0600              	LD B, 0
 10660  4e2b  cdee02            	CALL DUFFDEVICE
 10661  4e2e  3a0000            	LD A, (_spendcharpoint_Tstr752)
 10662  4e31  32e300            	LD (_spendcharpoint_Ttmp704), A
 10663  4e34  3af000            	LD A, (_spendcharpoint_Ttmp750)
 10664  4e37  47                	LD B, A
 10665  4e38  cdaa02            	CALL DSDESCRIPTOR
 10666  4e3b  dd7e00            	LD A, (IX)
 10667  4e3e  32d300            	LD (_spendcharpoint_Ttmp691), A
 10668  4e41  dd7e01            	LD A, (IX+1)
 10669  4e44  32df00            	LD (_spendcharpoint_Ttmp702), A
 10670  4e47  dd7e02            	LD A, (IX+2)
 10671  4e4a  32e000            	LD (_spendcharpoint_Ttmp702+1), A
 10672  4e4d  3ad300            	LD A, (_spendcharpoint_Ttmp691)
 10673  4e50  47                	LD B, A
 10674  4e51  3ae300            	LD A, (_spendcharpoint_Ttmp704)
 10675  4e54  b8                	CP B
 10676  4e55  c2604e            	JP NZ, _label754
 10677  4e58  3eff              	LD A, $ff
 10678  4e5a  32de00            	LD (_spendcharpoint_Ttmp701), A
 10679  4e5d  c3654e            	JMP _label754b2
 10680                          _label754:
 10681  4e60  3e00              	LD A, $00
 10682  4e62  32de00            	LD (_spendcharpoint_Ttmp701), A
 10683                          _label754b2:
 10684  4e65  3ade00            	LD A, (_spendcharpoint_Ttmp701)
 10685  4e68  fe00              	CP 0
 10686  4e6a  ca704e            	JP Z, _label755
 10687  4e6d  c3734e            	JMP _label755b2
 10688                          _label755:
 10689  4e70  c3a74e            	JMP _label753
 10690                          _label755b2:
 10691  4e73  210000            	LD HL, _spendcharpoint_Tstr752
 10692  4e76  22e100            	LD (_spendcharpoint_Ttmp703), HL
 10693  4e79  2ae100            	LD HL, (_spendcharpoint_Ttmp703)
 10694  4e7c  23                	INC HL
 10695  4e7d  22e100            	LD (_spendcharpoint_Ttmp703), HL
 10696  4e80  3ad300            	LD A, (_spendcharpoint_Ttmp691)
 10697  4e83  fe00              	CP 0
 10698  4e85  2813              	JR Z, _label756equal
 10699  4e87  4f                	LD C, A
 10700  4e88  2adf00            	LD HL, (_spendcharpoint_Ttmp702)
 10701  4e8b  ed5be100          	LD DE, (_spendcharpoint_Ttmp703)
 10702                          _label756:
 10703  4e8f  7e                	LD A, (HL)
 10704  4e90  47                	LD B, A
 10705  4e91  1a                	LD A, (DE)
 10706  4e92  b8                	CP B
 10707  4e93  200d              	JR NZ, _label756diff
 10708  4e95  13                	INC DE
 10709  4e96  23                	INC HL
 10710  4e97  0d                	DEC C
 10711  4e98  20f5              	JR NZ, _label756
 10712                          _label756equal:
 10713  4e9a  3eff              	LD A, $ff
 10714  4e9c  32de00            	LD (_spendcharpoint_Ttmp701), A
 10715  4e9f  c3a74e            	JMP _label756final
 10716                          _label756diff:
 10717  4ea2  3e00              	LD A, $00
 10718  4ea4  32de00            	LD (_spendcharpoint_Ttmp701), A
 10719                          _label756final:
 10720                          _label753:
 10721  4ea7  3ade00            	LD A, (_spendcharpoint_Ttmp701)
 10722  4eaa  fe00              	CP 0
 10723  4eac  cab24e            	JP Z, _label758
 10724  4eaf  c3b54e            	JMP _label758b2
 10725                          _label758:
 10726  4eb2  c3cd4e            	JMP _label757e0
 10727                          _label758b2:
 10728                          _label757t:
 10729                          	; P:116
 10730                          	; L:231
 10731  4eb5  3e01              	LD A, $01
 10732  4eb7  32d100            	LD (_spendcharpoint_Ttmp689), A
 10733  4eba  0600              	LD B, 0
 10734  4ebc  3a8472            	LD A, (_charisma)
 10735  4ebf  47                	LD B, A
 10736  4ec0  3ad100            	LD A, (_spendcharpoint_Ttmp689)
 10737  4ec3  80                	ADD A, B
 10738  4ec4  32d200            	LD (_spendcharpoint_Ttmp690), A
 10739                          	 ; variable_move_8bit_8bit
 10740                          	 ; 8 BIT (unsigned) -> 8 BIT (unsigned)
 10741  4ec7  3ad200            	LD A, (_spendcharpoint_Ttmp690)
 10742  4eca  328472            	LD (_charisma), A
 10743                          	; P:10
 10744                          	; L:232
 10745                          _label757f:
 10746                          _label757e0:
 10747                          	; P:2
 10748                          	; L:233
 10749                          ; peephole(1): r383 (CALL+RET)->(JP)
 10750                          ;	call reprintCreateCharacterScreen
 10751  4ecd  c3ac37            	JP reprintCreateCharacterScreen
 10752                          	; P:1
 10753                          	; L:234
 10754                          	; P:0
 10755                          	; L:235
 10756                          ;	RET
 10757                          spendcharpointafter:
 10758                          	; P:2
 10759                          	; L:236
 10760                          	; P:0
 10761                          	; L:237
 10762  4ed0  c35054            	jp retractcharpointafter
 10763                          retractcharpoint:
 10764                          	; P:2
 10765                          	; L:238
 10766                          	; P:0
 10767                          	; L:239
 10768                          	; P:0
 10769                          	; L:240
 10770  4ed3  3e00              	LD A, $00
 10771  4ed5  32f500            	LD (_retractcharpoint_Ttmp762), A
 10772                          ; peephole(1): r250 (LD A, x; LD (x), A; LD A, x)->(LD A, x; LD (x), A)
 10773                          ;	LD A, $00
 10774  4ed8  32f600            	LD (_retractcharpoint_Ttmp762+1), A
 10775  4edb  2af500            	LD HL, (_retractcharpoint_Ttmp762)
 10776  4ede  ed5b8772          	LD DE, (_optionspointer)
 10777  4ee2  19                	ADD HL, DE
 10778  4ee3  22f500            	LD (_retractcharpoint_Ttmp762), HL
 10779  4ee6  e600              	AND $0
 10780  4ee8  2af500            	LD HL, (_retractcharpoint_Ttmp762)
 10781  4eeb  115871            	LD DE, _options
 10782  4eee  19                	ADD HL, DE
 10783  4eef  22f500            	LD (_retractcharpoint_Ttmp762), HL
 10784  4ef2  ed5bf500          	LD DE, (_retractcharpoint_Ttmp762)
 10785  4ef6  1a                	LD A, (DE)
 10786  4ef7  32f700            	LD (_retractcharpoint_Ttmp763), A
 10787  4efa  3af700            	LD A, (_retractcharpoint_Ttmp763)
 10788  4efd  47                	LD B, A
 10789  4efe  cdaa02            	CALL DSDESCRIPTOR
 10790  4f01  dd7e00            	LD A, (IX)
 10791  4f04  32fa00            	LD (_retractcharpoint_Ttmp765), A
 10792  4f07  dd7e01            	LD A, (IX+1)
 10793  4f0a  32f800            	LD (_retractcharpoint_Ttmp764), A
 10794  4f0d  dd7e02            	LD A, (IX+2)
 10795  4f10  32f900            	LD (_retractcharpoint_Ttmp764+1), A
 10796  4f13  3af200            	LD A, (_retractcharpoint_Ttmp760)
 10797  4f16  47                	LD B, A
 10798  4f17  cd6501            	CALL DSFREE
 10799  4f1a  3afa00            	LD A, (_retractcharpoint_Ttmp765)
 10800  4f1d  4f                	LD C, A
 10801  4f1e  cd4e01            	CALL DSALLOC
 10802  4f21  78                	LD A, B
 10803  4f22  32f200            	LD (_retractcharpoint_Ttmp760), A
 10804  4f25  3af200            	LD A, (_retractcharpoint_Ttmp760)
 10805  4f28  47                	LD B, A
 10806  4f29  cdaa02            	CALL DSDESCRIPTOR
 10807  4f2c  dd7e00            	LD A, (IX)
 10808  4f2f  32fd00            	LD (_retractcharpoint_Ttmp767), A
 10809  4f32  dd7e01            	LD A, (IX+1)
 10810  4f35  32fb00            	LD (_retractcharpoint_Ttmp766), A
 10811  4f38  dd7e02            	LD A, (IX+2)
 10812  4f3b  32fc00            	LD (_retractcharpoint_Ttmp766+1), A
 10813  4f3e  2af800            	LD HL, (_retractcharpoint_Ttmp764)
 10814  4f41  ed5bfb00          	LD DE, (_retractcharpoint_Ttmp766)
 10815  4f45  3afa00            	LD A, (_retractcharpoint_Ttmp765)
 10816  4f48  4f                	LD C, A
 10817  4f49  0600              	LD B, 0
 10818  4f4b  cdee02            	CALL DUFFDEVICE
 10819  4f4e  3a0000            	LD A, (_retractcharpoint_Tstr768)
 10820  4f51  320401            	LD (_retractcharpoint_Ttmp774), A
 10821  4f54  3af200            	LD A, (_retractcharpoint_Ttmp760)
 10822  4f57  47                	LD B, A
 10823  4f58  cdaa02            	CALL DSDESCRIPTOR
 10824  4f5b  dd7e00            	LD A, (IX)
 10825  4f5e  320101            	LD (_retractcharpoint_Ttmp772), A
 10826  4f61  dd7e01            	LD A, (IX+1)
 10827  4f64  32ff00            	LD (_retractcharpoint_Ttmp771), A
 10828  4f67  dd7e02            	LD A, (IX+2)
 10829  4f6a  320001            	LD (_retractcharpoint_Ttmp771+1), A
 10830  4f6d  3a0101            	LD A, (_retractcharpoint_Ttmp772)
 10831  4f70  47                	LD B, A
 10832  4f71  3a0401            	LD A, (_retractcharpoint_Ttmp774)
 10833  4f74  b8                	CP B
 10834  4f75  c2804f            	JP NZ, _label775
 10835  4f78  3eff              	LD A, $ff
 10836  4f7a  32fe00            	LD (_retractcharpoint_Ttmp770), A
 10837  4f7d  c3854f            	JMP _label775b2
 10838                          _label775:
 10839  4f80  3e00              	LD A, $00
 10840  4f82  32fe00            	LD (_retractcharpoint_Ttmp770), A
 10841                          _label775b2:
 10842  4f85  3afe00            	LD A, (_retractcharpoint_Ttmp770)
 10843  4f88  fe00              	CP 0
 10844  4f8a  ca904f            	JP Z, _label776
 10845  4f8d  c3934f            	JMP _label776b2
 10846                          _label776:
 10847  4f90  c3c74f            	JMP _label769
 10848                          _label776b2:
 10849  4f93  210000            	LD HL, _retractcharpoint_Tstr768
 10850  4f96  220201            	LD (_retractcharpoint_Ttmp773), HL
 10851  4f99  2a0201            	LD HL, (_retractcharpoint_Ttmp773)
 10852  4f9c  23                	INC HL
 10853  4f9d  220201            	LD (_retractcharpoint_Ttmp773), HL
 10854  4fa0  3a0101            	LD A, (_retractcharpoint_Ttmp772)
 10855  4fa3  fe00              	CP 0
 10856  4fa5  2813              	JR Z, _label777equal
 10857  4fa7  4f                	LD C, A
 10858  4fa8  2aff00            	LD HL, (_retractcharpoint_Ttmp771)
 10859  4fab  ed5b0201          	LD DE, (_retractcharpoint_Ttmp773)
 10860                          _label777:
 10861  4faf  7e                	LD A, (HL)
 10862  4fb0  47                	LD B, A
 10863  4fb1  1a                	LD A, (DE)
 10864  4fb2  b8                	CP B
 10865  4fb3  200d              	JR NZ, _label777diff
 10866  4fb5  13                	INC DE
 10867  4fb6  23                	INC HL
 10868  4fb7  0d                	DEC C
 10869  4fb8  20f5              	JR NZ, _label777
 10870                          _label777equal:
 10871  4fba  3eff              	LD A, $ff
 10872  4fbc  32fe00            	LD (_retractcharpoint_Ttmp770), A
 10873  4fbf  c3c74f            	JMP _label777final
 10874                          _label777diff:
 10875  4fc2  3e00              	LD A, $00
 10876  4fc4  32fe00            	LD (_retractcharpoint_Ttmp770), A
 10877                          _label777final:
 10878                          _label769:
 10879  4fc7  3e00              	LD A, $00
 10880  4fc9  320501            	LD (_retractcharpoint_Ttmp778), A
 10881  4fcc  215f72            	LD HL, _partystr
 10882  4fcf  3a0501            	LD A, (_retractcharpoint_Ttmp778)
 10883  4fd2  5f                	LD E, A
 10884                          ; peephole(1): r228 (LD A, 0)->(XOR A)
 10885                          ;	LD A, 0
 10886  4fd3  af                	XOR A
 10887  4fd4  57                	LD D, A
 10888  4fd5  19                	ADD HL, DE
 10889  4fd6  19                	ADD HL, DE
 10890  4fd7  7e                	LD A, (HL)
 10891  4fd8  320601            	LD (_retractcharpoint_Ttmp780), A
 10892  4fdb  23                	INC HL
 10893  4fdc  7e                	LD A, (HL)
 10894  4fdd  320701            	LD (_retractcharpoint_Ttmp780+1), A
 10895  4fe0  3e03              	LD A, $03
 10896  4fe2  320801            	LD (_retractcharpoint_Ttmp781), A
 10897  4fe5  3e00              	LD A, $00
 10898  4fe7  320901            	LD (_retractcharpoint_Ttmp783), A
 10899                          ; peephole(1): r250 (LD A, x; LD (x), A; LD A, x)->(LD A, x; LD (x), A)
 10900                          ;	LD A, $00
 10901  4fea  320a01            	LD (_retractcharpoint_Ttmp783+1), A
 10902  4fed  3a0801            	LD A, (_retractcharpoint_Ttmp781)
 10903  4ff0  320901            	LD (_retractcharpoint_Ttmp783), A
 10904  4ff3  3a0a01            	LD A, (_retractcharpoint_Ttmp783+1)
 10905  4ff6  47                	LD B, A
 10906  4ff7  3a0701            	LD A, (_retractcharpoint_Ttmp780+1)
 10907  4ffa  b8                	CP B
 10908  4ffb  2804              	JR Z, _label788l2
 10909  4ffd  3815              	JR C, _label788
 10910  4fff  180c              	JR _label788_0
 10911                          _label788l2:
 10912  5001  3a0901            	LD A, (_retractcharpoint_Ttmp783)
 10913  5004  47                	LD B, A
 10914  5005  3a0601            	LD A, (_retractcharpoint_Ttmp780)
 10915  5008  b8                	CP B
 10916  5009  3809              	JR C, _label788
 10917  500b  2807              	JR Z, _label788
 10918                          _label788_0:
 10919                          ; peephole(1): r228 (LD A, 0)->(XOR A)
 10920                          ;	LD A, 0
 10921  500d  af                	XOR A
 10922  500e  320b01            	LD (_retractcharpoint_Ttmp787), A
 10923  5011  c31950            	JMP _label788b2
 10924                          _label788:
 10925  5014  3eff              	LD A, $ff
 10926  5016  320b01            	LD (_retractcharpoint_Ttmp787), A
 10927                          _label788b2:
 10928  5019  3a0b01            	LD A, (_retractcharpoint_Ttmp787)
 10929                          ; peephole(1): r319 (XOR $FF)->(CPL)
 10930                          ;	XOR $FF
 10931  501c  2f                	CPL
 10932  501d  320b01            	LD (_retractcharpoint_Ttmp787), A
 10933  5020  21fe00            	LD HL, _retractcharpoint_Ttmp770
 10934  5023  dd210b01          	LD IX, _retractcharpoint_Ttmp787
 10935  5027  110c01            	LD DE, _retractcharpoint_Ttmp789
 10936  502a  7e                	LD A, (HL)
 10937  502b  dda600            	AND (IX)
 10938  502e  12                	LD (DE), A
 10939  502f  3a0c01            	LD A, (_retractcharpoint_Ttmp789)
 10940  5032  fe00              	CP 0
 10941  5034  ca3a50            	JP Z, _label792
 10942  5037  c33d50            	JMP _label792b2
 10943                          _label792:
 10944  503a  c3dd50            	JMP _label791e0
 10945                          _label792b2:
 10946                          _label791t:
 10947                          	; P:169
 10948                          	; L:241
 10949  503d  3e00              	LD A, $00
 10950  503f  32fa00            	LD (_retractcharpoint_Ttmp765), A
 10951                          ; peephole(1): r250 (LD A, x; LD (x), A; LD A, x)->(LD A, x; LD (x), A)
 10952                          ;	LD A, $00
 10953  5042  32fd00            	LD (_retractcharpoint_Ttmp767), A
 10954  5045  215f72            	LD HL, _partystr
 10955  5048  3afd00            	LD A, (_retractcharpoint_Ttmp767)
 10956  504b  5f                	LD E, A
 10957                          ; peephole(1): r228 (LD A, 0)->(XOR A)
 10958                          ;	LD A, 0
 10959  504c  af                	XOR A
 10960  504d  57                	LD D, A
 10961  504e  19                	ADD HL, DE
 10962  504f  19                	ADD HL, DE
 10963  5050  7e                	LD A, (HL)
 10964  5051  32f300            	LD (_retractcharpoint_Ttmp761), A
 10965  5054  23                	INC HL
 10966  5055  7e                	LD A, (HL)
 10967  5056  32f400            	LD (_retractcharpoint_Ttmp761+1), A
 10968  5059  3e01              	LD A, $01
 10969  505b  320101            	LD (_retractcharpoint_Ttmp772), A
 10970  505e  3e00              	LD A, $00
 10971  5060  32f500            	LD (_retractcharpoint_Ttmp762), A
 10972                          ; peephole(1): r250 (LD A, x; LD (x), A; LD A, x)->(LD A, x; LD (x), A)
 10973                          ;	LD A, $00
 10974  5063  32f600            	LD (_retractcharpoint_Ttmp762+1), A
 10975  5066  3a0101            	LD A, (_retractcharpoint_Ttmp772)
 10976  5069  32f500            	LD (_retractcharpoint_Ttmp762), A
 10977  506c  2af300            	LD HL, (_retractcharpoint_Ttmp761)
 10978  506f  ed5bf500          	LD DE, (_retractcharpoint_Ttmp762)
 10979  5073  a7                	AND A
 10980  5074  ed52              	SBC HL, DE
 10981  5076  220601            	LD (_retractcharpoint_Ttmp780), HL
 10982  5079  3e00              	LD A, $00
 10983  507b  320d01            	LD (_retractcharpoint_Ttmp797), A
 10984                          ; peephole(1): r250 (LD A, x; LD (x), A; LD A, x)->(LD A, x; LD (x), A)
 10985                          ;	LD A, $00
 10986  507e  320e01            	LD (_retractcharpoint_Ttmp797+1), A
 10987  5081  3e00              	LD A, $00
 10988  5083  320f01            	LD (_retractcharpoint_Ttmp798), A
 10989                          ; peephole(1): r250 (LD A, x; LD (x), A; LD A, x)->(LD A, x; LD (x), A)
 10990                          ;	LD A, $00
 10991  5086  321001            	LD (_retractcharpoint_Ttmp798+1), A
 10992  5089  3afa00            	LD A, (_retractcharpoint_Ttmp765)
 10993  508c  320f01            	LD (_retractcharpoint_Ttmp798), A
 10994  508f  2a0d01            	LD HL, (_retractcharpoint_Ttmp797)
 10995  5092  ed5b0f01          	LD DE, (_retractcharpoint_Ttmp798)
 10996  5096  19                	ADD HL, DE
 10997  5097  220d01            	LD (_retractcharpoint_Ttmp797), HL
 10998  509a  3a0d01            	LD A, (_retractcharpoint_Ttmp797)
 10999  509d  321101            	LD (_retractcharpoint_Ttmp800), A
 11000  50a0  3a0e01            	LD A, (_retractcharpoint_Ttmp797+1)
 11001  50a3  321201            	LD (_retractcharpoint_Ttmp800+1), A
 11002  50a6  2a1101            	LD HL, (_retractcharpoint_Ttmp800)
 11003                          ; peephole(1): r349 (SLA+RL)->(ADD)
 11004                          ;	SLA L
 11005  50a9  29                	ADD HL, HL
 11006                          ;	RL H
 11007  50aa  221101            	LD (_retractcharpoint_Ttmp800), HL
 11008  50ad  e600              	AND $0
 11009  50af  2a1101            	LD HL, (_retractcharpoint_Ttmp800)
 11010  50b2  115f72            	LD DE, _partystr
 11011  50b5  19                	ADD HL, DE
 11012  50b6  221101            	LD (_retractcharpoint_Ttmp800), HL
 11013  50b9  ed5b1101          	LD DE, (_retractcharpoint_Ttmp800)
 11014  50bd  2a0601            	LD HL, (_retractcharpoint_Ttmp780)
 11015  50c0  7d                	LD A, L
 11016  50c1  12                	LD (DE), A
 11017  50c2  13                	INC DE
 11018  50c3  7c                	LD A, H
 11019  50c4  12                	LD (DE), A
 11020                          	; P:63
 11021                          	; L:242
 11022  50c5  3e01              	LD A, $01
 11023  50c7  32fa00            	LD (_retractcharpoint_Ttmp765), A
 11024  50ca  0600              	LD B, 0
 11025  50cc  3a8372            	LD A, (_charPoints)
 11026  50cf  47                	LD B, A
 11027  50d0  3afa00            	LD A, (_retractcharpoint_Ttmp765)
 11028  50d3  80                	ADD A, B
 11029  50d4  32fd00            	LD (_retractcharpoint_Ttmp767), A
 11030                          	 ; variable_move_8bit_8bit
 11031                          	 ; 8 BIT (unsigned) -> 8 BIT (unsigned)
 11032  50d7  3afd00            	LD A, (_retractcharpoint_Ttmp767)
 11033  50da  328372            	LD (_charPoints), A
 11034                          	; P:10
 11035                          	; L:243
 11036                          _label791f:
 11037                          _label791e0:
 11038                          	; P:2
 11039                          	; L:244
 11040  50dd  3e00              	LD A, $00
 11041  50df  32f500            	LD (_retractcharpoint_Ttmp762), A
 11042                          ; peephole(1): r250 (LD A, x; LD (x), A; LD A, x)->(LD A, x; LD (x), A)
 11043                          ;	LD A, $00
 11044  50e2  32f600            	LD (_retractcharpoint_Ttmp762+1), A
 11045  50e5  2af500            	LD HL, (_retractcharpoint_Ttmp762)
 11046  50e8  ed5b8772          	LD DE, (_optionspointer)
 11047  50ec  19                	ADD HL, DE
 11048  50ed  22f500            	LD (_retractcharpoint_Ttmp762), HL
 11049  50f0  e600              	AND $0
 11050  50f2  2af500            	LD HL, (_retractcharpoint_Ttmp762)
 11051  50f5  115871            	LD DE, _options
 11052  50f8  19                	ADD HL, DE
 11053  50f9  22f500            	LD (_retractcharpoint_Ttmp762), HL
 11054  50fc  ed5bf500          	LD DE, (_retractcharpoint_Ttmp762)
 11055  5100  1a                	LD A, (DE)
 11056  5101  321401            	LD (_retractcharpoint_Ttmp804), A
 11057  5104  3a1401            	LD A, (_retractcharpoint_Ttmp804)
 11058  5107  47                	LD B, A
 11059  5108  cdaa02            	CALL DSDESCRIPTOR
 11060  510b  dd7e00            	LD A, (IX)
 11061  510e  32fa00            	LD (_retractcharpoint_Ttmp765), A
 11062  5111  dd7e01            	LD A, (IX+1)
 11063  5114  32f800            	LD (_retractcharpoint_Ttmp764), A
 11064  5117  dd7e02            	LD A, (IX+2)
 11065  511a  32f900            	LD (_retractcharpoint_Ttmp764+1), A
 11066  511d  3a1301            	LD A, (_retractcharpoint_Ttmp803)
 11067  5120  47                	LD B, A
 11068  5121  cd6501            	CALL DSFREE
 11069  5124  3afa00            	LD A, (_retractcharpoint_Ttmp765)
 11070  5127  4f                	LD C, A
 11071  5128  cd4e01            	CALL DSALLOC
 11072  512b  78                	LD A, B
 11073  512c  321301            	LD (_retractcharpoint_Ttmp803), A
 11074  512f  3a1301            	LD A, (_retractcharpoint_Ttmp803)
 11075  5132  47                	LD B, A
 11076  5133  cdaa02            	CALL DSDESCRIPTOR
 11077  5136  dd7e00            	LD A, (IX)
 11078  5139  32fd00            	LD (_retractcharpoint_Ttmp767), A
 11079  513c  dd7e01            	LD A, (IX+1)
 11080  513f  32fb00            	LD (_retractcharpoint_Ttmp766), A
 11081  5142  dd7e02            	LD A, (IX+2)
 11082  5145  32fc00            	LD (_retractcharpoint_Ttmp766+1), A
 11083  5148  2af800            	LD HL, (_retractcharpoint_Ttmp764)
 11084  514b  ed5bfb00          	LD DE, (_retractcharpoint_Ttmp766)
 11085  514f  3afa00            	LD A, (_retractcharpoint_Ttmp765)
 11086  5152  4f                	LD C, A
 11087  5153  0600              	LD B, 0
 11088  5155  cdee02            	CALL DUFFDEVICE
 11089  5158  3a0000            	LD A, (_retractcharpoint_Tstr805)
 11090  515b  320401            	LD (_retractcharpoint_Ttmp774), A
 11091  515e  3a1301            	LD A, (_retractcharpoint_Ttmp803)
 11092  5161  47                	LD B, A
 11093  5162  cdaa02            	CALL DSDESCRIPTOR
 11094  5165  dd7e00            	LD A, (IX)
 11095  5168  320101            	LD (_retractcharpoint_Ttmp772), A
 11096  516b  dd7e01            	LD A, (IX+1)
 11097  516e  32ff00            	LD (_retractcharpoint_Ttmp771), A
 11098  5171  dd7e02            	LD A, (IX+2)
 11099  5174  320001            	LD (_retractcharpoint_Ttmp771+1), A
 11100  5177  3a0101            	LD A, (_retractcharpoint_Ttmp772)
 11101  517a  47                	LD B, A
 11102  517b  3a0401            	LD A, (_retractcharpoint_Ttmp774)
 11103  517e  b8                	CP B
 11104  517f  c28a51            	JP NZ, _label807
 11105  5182  3eff              	LD A, $ff
 11106  5184  32fe00            	LD (_retractcharpoint_Ttmp770), A
 11107  5187  c38f51            	JMP _label807b2
 11108                          _label807:
 11109  518a  3e00              	LD A, $00
 11110  518c  32fe00            	LD (_retractcharpoint_Ttmp770), A
 11111                          _label807b2:
 11112  518f  3afe00            	LD A, (_retractcharpoint_Ttmp770)
 11113  5192  fe00              	CP 0
 11114  5194  ca9a51            	JP Z, _label808
 11115  5197  c39d51            	JMP _label808b2
 11116                          _label808:
 11117  519a  c3d151            	JMP _label806
 11118                          _label808b2:
 11119  519d  210000            	LD HL, _retractcharpoint_Tstr805
 11120  51a0  220201            	LD (_retractcharpoint_Ttmp773), HL
 11121  51a3  2a0201            	LD HL, (_retractcharpoint_Ttmp773)
 11122  51a6  23                	INC HL
 11123  51a7  220201            	LD (_retractcharpoint_Ttmp773), HL
 11124  51aa  3a0101            	LD A, (_retractcharpoint_Ttmp772)
 11125  51ad  fe00              	CP 0
 11126  51af  2813              	JR Z, _label809equal
 11127  51b1  4f                	LD C, A
 11128  51b2  2aff00            	LD HL, (_retractcharpoint_Ttmp771)
 11129  51b5  ed5b0201          	LD DE, (_retractcharpoint_Ttmp773)
 11130                          _label809:
 11131  51b9  7e                	LD A, (HL)
 11132  51ba  47                	LD B, A
 11133  51bb  1a                	LD A, (DE)
 11134  51bc  b8                	CP B
 11135  51bd  200d              	JR NZ, _label809diff
 11136  51bf  13                	INC DE
 11137  51c0  23                	INC HL
 11138  51c1  0d                	DEC C
 11139  51c2  20f5              	JR NZ, _label809
 11140                          _label809equal:
 11141  51c4  3eff              	LD A, $ff
 11142  51c6  32fe00            	LD (_retractcharpoint_Ttmp770), A
 11143  51c9  c3d151            	JMP _label809final
 11144                          _label809diff:
 11145  51cc  3e00              	LD A, $00
 11146  51ce  32fe00            	LD (_retractcharpoint_Ttmp770), A
 11147                          _label809final:
 11148                          _label806:
 11149  51d1  3e00              	LD A, $00
 11150  51d3  320501            	LD (_retractcharpoint_Ttmp778), A
 11151  51d6  217172            	LD HL, _partyskill
 11152  51d9  3a0501            	LD A, (_retractcharpoint_Ttmp778)
 11153  51dc  5f                	LD E, A
 11154                          ; peephole(1): r228 (LD A, 0)->(XOR A)
 11155                          ;	LD A, 0
 11156  51dd  af                	XOR A
 11157  51de  57                	LD D, A
 11158  51df  19                	ADD HL, DE
 11159  51e0  19                	ADD HL, DE
 11160  51e1  7e                	LD A, (HL)
 11161  51e2  320601            	LD (_retractcharpoint_Ttmp780), A
 11162  51e5  23                	INC HL
 11163  51e6  7e                	LD A, (HL)
 11164  51e7  320701            	LD (_retractcharpoint_Ttmp780+1), A
 11165  51ea  3e03              	LD A, $03
 11166  51ec  320801            	LD (_retractcharpoint_Ttmp781), A
 11167  51ef  3e00              	LD A, $00
 11168  51f1  320901            	LD (_retractcharpoint_Ttmp783), A
 11169                          ; peephole(1): r250 (LD A, x; LD (x), A; LD A, x)->(LD A, x; LD (x), A)
 11170                          ;	LD A, $00
 11171  51f4  320a01            	LD (_retractcharpoint_Ttmp783+1), A
 11172  51f7  3a0801            	LD A, (_retractcharpoint_Ttmp781)
 11173  51fa  320901            	LD (_retractcharpoint_Ttmp783), A
 11174  51fd  3a0a01            	LD A, (_retractcharpoint_Ttmp783+1)
 11175  5200  47                	LD B, A
 11176  5201  3a0701            	LD A, (_retractcharpoint_Ttmp780+1)
 11177  5204  b8                	CP B
 11178  5205  2804              	JR Z, _label813l2
 11179  5207  3815              	JR C, _label813
 11180  5209  180c              	JR _label813_0
 11181                          _label813l2:
 11182  520b  3a0901            	LD A, (_retractcharpoint_Ttmp783)
 11183  520e  47                	LD B, A
 11184  520f  3a0601            	LD A, (_retractcharpoint_Ttmp780)
 11185  5212  b8                	CP B
 11186  5213  3809              	JR C, _label813
 11187  5215  2807              	JR Z, _label813
 11188                          _label813_0:
 11189                          ; peephole(1): r228 (LD A, 0)->(XOR A)
 11190                          ;	LD A, 0
 11191  5217  af                	XOR A
 11192  5218  320b01            	LD (_retractcharpoint_Ttmp787), A
 11193  521b  c32352            	JMP _label813b2
 11194                          _label813:
 11195  521e  3eff              	LD A, $ff
 11196  5220  320b01            	LD (_retractcharpoint_Ttmp787), A
 11197                          _label813b2:
 11198  5223  3a0b01            	LD A, (_retractcharpoint_Ttmp787)
 11199                          ; peephole(1): r319 (XOR $FF)->(CPL)
 11200                          ;	XOR $FF
 11201  5226  2f                	CPL
 11202  5227  320b01            	LD (_retractcharpoint_Ttmp787), A
 11203  522a  21fe00            	LD HL, _retractcharpoint_Ttmp770
 11204  522d  dd210b01          	LD IX, _retractcharpoint_Ttmp787
 11205  5231  110c01            	LD DE, _retractcharpoint_Ttmp789
 11206  5234  7e                	LD A, (HL)
 11207  5235  dda600            	AND (IX)
 11208  5238  12                	LD (DE), A
 11209  5239  3a0c01            	LD A, (_retractcharpoint_Ttmp789)
 11210  523c  fe00              	CP 0
 11211  523e  ca4452            	JP Z, _label816
 11212  5241  c34752            	JMP _label816b2
 11213                          _label816:
 11214  5244  c3e752            	JMP _label815e0
 11215                          _label816b2:
 11216                          _label815t:
 11217                          	; P:169
 11218                          	; L:245
 11219  5247  3e00              	LD A, $00
 11220  5249  32fa00            	LD (_retractcharpoint_Ttmp765), A
 11221                          ; peephole(1): r250 (LD A, x; LD (x), A; LD A, x)->(LD A, x; LD (x), A)
 11222                          ;	LD A, $00
 11223  524c  32fd00            	LD (_retractcharpoint_Ttmp767), A
 11224  524f  217172            	LD HL, _partyskill
 11225  5252  3afd00            	LD A, (_retractcharpoint_Ttmp767)
 11226  5255  5f                	LD E, A
 11227                          ; peephole(1): r228 (LD A, 0)->(XOR A)
 11228                          ;	LD A, 0
 11229  5256  af                	XOR A
 11230  5257  57                	LD D, A
 11231  5258  19                	ADD HL, DE
 11232  5259  19                	ADD HL, DE
 11233  525a  7e                	LD A, (HL)
 11234  525b  32f300            	LD (_retractcharpoint_Ttmp761), A
 11235  525e  23                	INC HL
 11236  525f  7e                	LD A, (HL)
 11237  5260  32f400            	LD (_retractcharpoint_Ttmp761+1), A
 11238  5263  3e01              	LD A, $01
 11239  5265  320101            	LD (_retractcharpoint_Ttmp772), A
 11240  5268  3e00              	LD A, $00
 11241  526a  32f500            	LD (_retractcharpoint_Ttmp762), A
 11242                          ; peephole(1): r250 (LD A, x; LD (x), A; LD A, x)->(LD A, x; LD (x), A)
 11243                          ;	LD A, $00
 11244  526d  32f600            	LD (_retractcharpoint_Ttmp762+1), A
 11245  5270  3a0101            	LD A, (_retractcharpoint_Ttmp772)
 11246  5273  32f500            	LD (_retractcharpoint_Ttmp762), A
 11247  5276  2af300            	LD HL, (_retractcharpoint_Ttmp761)
 11248  5279  ed5bf500          	LD DE, (_retractcharpoint_Ttmp762)
 11249  527d  a7                	AND A
 11250  527e  ed52              	SBC HL, DE
 11251  5280  220601            	LD (_retractcharpoint_Ttmp780), HL
 11252  5283  3e00              	LD A, $00
 11253  5285  320d01            	LD (_retractcharpoint_Ttmp797), A
 11254                          ; peephole(1): r250 (LD A, x; LD (x), A; LD A, x)->(LD A, x; LD (x), A)
 11255                          ;	LD A, $00
 11256  5288  320e01            	LD (_retractcharpoint_Ttmp797+1), A
 11257  528b  3e00              	LD A, $00
 11258  528d  320f01            	LD (_retractcharpoint_Ttmp798), A
 11259                          ; peephole(1): r250 (LD A, x; LD (x), A; LD A, x)->(LD A, x; LD (x), A)
 11260                          ;	LD A, $00
 11261  5290  321001            	LD (_retractcharpoint_Ttmp798+1), A
 11262  5293  3afa00            	LD A, (_retractcharpoint_Ttmp765)
 11263  5296  320f01            	LD (_retractcharpoint_Ttmp798), A
 11264  5299  2a0d01            	LD HL, (_retractcharpoint_Ttmp797)
 11265  529c  ed5b0f01          	LD DE, (_retractcharpoint_Ttmp798)
 11266  52a0  19                	ADD HL, DE
 11267  52a1  220d01            	LD (_retractcharpoint_Ttmp797), HL
 11268  52a4  3a0d01            	LD A, (_retractcharpoint_Ttmp797)
 11269  52a7  321101            	LD (_retractcharpoint_Ttmp800), A
 11270  52aa  3a0e01            	LD A, (_retractcharpoint_Ttmp797+1)
 11271  52ad  321201            	LD (_retractcharpoint_Ttmp800+1), A
 11272  52b0  2a1101            	LD HL, (_retractcharpoint_Ttmp800)
 11273                          ; peephole(1): r349 (SLA+RL)->(ADD)
 11274                          ;	SLA L
 11275  52b3  29                	ADD HL, HL
 11276                          ;	RL H
 11277  52b4  221101            	LD (_retractcharpoint_Ttmp800), HL
 11278  52b7  e600              	AND $0
 11279  52b9  2a1101            	LD HL, (_retractcharpoint_Ttmp800)
 11280  52bc  117172            	LD DE, _partyskill
 11281  52bf  19                	ADD HL, DE
 11282  52c0  221101            	LD (_retractcharpoint_Ttmp800), HL
 11283  52c3  ed5b1101          	LD DE, (_retractcharpoint_Ttmp800)
 11284  52c7  2a0601            	LD HL, (_retractcharpoint_Ttmp780)
 11285  52ca  7d                	LD A, L
 11286  52cb  12                	LD (DE), A
 11287  52cc  13                	INC DE
 11288  52cd  7c                	LD A, H
 11289  52ce  12                	LD (DE), A
 11290                          	; P:63
 11291                          	; L:246
 11292  52cf  3e01              	LD A, $01
 11293  52d1  32fa00            	LD (_retractcharpoint_Ttmp765), A
 11294  52d4  0600              	LD B, 0
 11295  52d6  3a8372            	LD A, (_charPoints)
 11296  52d9  47                	LD B, A
 11297  52da  3afa00            	LD A, (_retractcharpoint_Ttmp765)
 11298  52dd  80                	ADD A, B
 11299  52de  32fd00            	LD (_retractcharpoint_Ttmp767), A
 11300                          	 ; variable_move_8bit_8bit
 11301                          	 ; 8 BIT (unsigned) -> 8 BIT (unsigned)
 11302  52e1  3afd00            	LD A, (_retractcharpoint_Ttmp767)
 11303  52e4  328372            	LD (_charPoints), A
 11304                          	; P:10
 11305                          	; L:247
 11306                          _label815f:
 11307                          _label815e0:
 11308                          	; P:2
 11309                          	; L:248
 11310  52e7  3e00              	LD A, $00
 11311  52e9  32f500            	LD (_retractcharpoint_Ttmp762), A
 11312                          ; peephole(1): r250 (LD A, x; LD (x), A; LD A, x)->(LD A, x; LD (x), A)
 11313                          ;	LD A, $00
 11314  52ec  32f600            	LD (_retractcharpoint_Ttmp762+1), A
 11315  52ef  2af500            	LD HL, (_retractcharpoint_Ttmp762)
 11316  52f2  ed5b8772          	LD DE, (_optionspointer)
 11317  52f6  19                	ADD HL, DE
 11318  52f7  22f500            	LD (_retractcharpoint_Ttmp762), HL
 11319  52fa  e600              	AND $0
 11320  52fc  2af500            	LD HL, (_retractcharpoint_Ttmp762)
 11321  52ff  115871            	LD DE, _options
 11322  5302  19                	ADD HL, DE
 11323  5303  22f500            	LD (_retractcharpoint_Ttmp762), HL
 11324  5306  ed5bf500          	LD DE, (_retractcharpoint_Ttmp762)
 11325  530a  1a                	LD A, (DE)
 11326  530b  321601            	LD (_retractcharpoint_Ttmp825), A
 11327  530e  3a1601            	LD A, (_retractcharpoint_Ttmp825)
 11328  5311  47                	LD B, A
 11329  5312  cdaa02            	CALL DSDESCRIPTOR
 11330  5315  dd7e00            	LD A, (IX)
 11331  5318  32fa00            	LD (_retractcharpoint_Ttmp765), A
 11332  531b  dd7e01            	LD A, (IX+1)
 11333  531e  32f800            	LD (_retractcharpoint_Ttmp764), A
 11334  5321  dd7e02            	LD A, (IX+2)
 11335  5324  32f900            	LD (_retractcharpoint_Ttmp764+1), A
 11336  5327  3a1501            	LD A, (_retractcharpoint_Ttmp824)
 11337  532a  47                	LD B, A
 11338  532b  cd6501            	CALL DSFREE
 11339  532e  3afa00            	LD A, (_retractcharpoint_Ttmp765)
 11340  5331  4f                	LD C, A
 11341  5332  cd4e01            	CALL DSALLOC
 11342  5335  78                	LD A, B
 11343  5336  321501            	LD (_retractcharpoint_Ttmp824), A
 11344  5339  3a1501            	LD A, (_retractcharpoint_Ttmp824)
 11345  533c  47                	LD B, A
 11346  533d  cdaa02            	CALL DSDESCRIPTOR
 11347  5340  dd7e00            	LD A, (IX)
 11348  5343  32fd00            	LD (_retractcharpoint_Ttmp767), A
 11349  5346  dd7e01            	LD A, (IX+1)
 11350  5349  32fb00            	LD (_retractcharpoint_Ttmp766), A
 11351  534c  dd7e02            	LD A, (IX+2)
 11352  534f  32fc00            	LD (_retractcharpoint_Ttmp766+1), A
 11353  5352  2af800            	LD HL, (_retractcharpoint_Ttmp764)
 11354  5355  ed5bfb00          	LD DE, (_retractcharpoint_Ttmp766)
 11355  5359  3afa00            	LD A, (_retractcharpoint_Ttmp765)
 11356  535c  4f                	LD C, A
 11357  535d  0600              	LD B, 0
 11358  535f  cdee02            	CALL DUFFDEVICE
 11359  5362  3a0000            	LD A, (_retractcharpoint_Tstr826)
 11360  5365  320401            	LD (_retractcharpoint_Ttmp774), A
 11361  5368  3a1501            	LD A, (_retractcharpoint_Ttmp824)
 11362  536b  47                	LD B, A
 11363  536c  cdaa02            	CALL DSDESCRIPTOR
 11364  536f  dd7e00            	LD A, (IX)
 11365  5372  320101            	LD (_retractcharpoint_Ttmp772), A
 11366  5375  dd7e01            	LD A, (IX+1)
 11367  5378  32ff00            	LD (_retractcharpoint_Ttmp771), A
 11368  537b  dd7e02            	LD A, (IX+2)
 11369  537e  320001            	LD (_retractcharpoint_Ttmp771+1), A
 11370  5381  3a0101            	LD A, (_retractcharpoint_Ttmp772)
 11371  5384  47                	LD B, A
 11372  5385  3a0401            	LD A, (_retractcharpoint_Ttmp774)
 11373  5388  b8                	CP B
 11374  5389  c29453            	JP NZ, _label828
 11375  538c  3eff              	LD A, $ff
 11376  538e  32fe00            	LD (_retractcharpoint_Ttmp770), A
 11377  5391  c39953            	JMP _label828b2
 11378                          _label828:
 11379  5394  3e00              	LD A, $00
 11380  5396  32fe00            	LD (_retractcharpoint_Ttmp770), A
 11381                          _label828b2:
 11382  5399  3afe00            	LD A, (_retractcharpoint_Ttmp770)
 11383  539c  fe00              	CP 0
 11384  539e  caa453            	JP Z, _label829
 11385  53a1  c3a753            	JMP _label829b2
 11386                          _label829:
 11387  53a4  c3db53            	JMP _label827
 11388                          _label829b2:
 11389  53a7  210000            	LD HL, _retractcharpoint_Tstr826
 11390  53aa  220201            	LD (_retractcharpoint_Ttmp773), HL
 11391  53ad  2a0201            	LD HL, (_retractcharpoint_Ttmp773)
 11392  53b0  23                	INC HL
 11393  53b1  220201            	LD (_retractcharpoint_Ttmp773), HL
 11394  53b4  3a0101            	LD A, (_retractcharpoint_Ttmp772)
 11395  53b7  fe00              	CP 0
 11396  53b9  2813              	JR Z, _label830equal
 11397  53bb  4f                	LD C, A
 11398  53bc  2aff00            	LD HL, (_retractcharpoint_Ttmp771)
 11399  53bf  ed5b0201          	LD DE, (_retractcharpoint_Ttmp773)
 11400                          _label830:
 11401  53c3  7e                	LD A, (HL)
 11402  53c4  47                	LD B, A
 11403  53c5  1a                	LD A, (DE)
 11404  53c6  b8                	CP B
 11405  53c7  200d              	JR NZ, _label830diff
 11406  53c9  13                	INC DE
 11407  53ca  23                	INC HL
 11408  53cb  0d                	DEC C
 11409  53cc  20f5              	JR NZ, _label830
 11410                          _label830equal:
 11411  53ce  3eff              	LD A, $ff
 11412  53d0  32fe00            	LD (_retractcharpoint_Ttmp770), A
 11413  53d3  c3db53            	JMP _label830final
 11414                          _label830diff:
 11415  53d6  3e00              	LD A, $00
 11416  53d8  32fe00            	LD (_retractcharpoint_Ttmp770), A
 11417                          _label830final:
 11418                          _label827:
 11419  53db  3e03              	LD A, $03
 11420  53dd  320501            	LD (_retractcharpoint_Ttmp778), A
 11421  53e0  3a0501            	LD A, (_retractcharpoint_Ttmp778)
 11422  53e3  47                	LD B, A
 11423  53e4  3a8472            	LD A, (_charisma)
 11424  53e7  b8                	CP B
 11425  53e8  3809              	JR C, _label832
 11426  53ea  2807              	JR Z, _label832
 11427                          ; peephole(1): r228 (LD A, 0)->(XOR A)
 11428                          ;	LD A, 0
 11429  53ec  af                	XOR A
 11430  53ed  320b01            	LD (_retractcharpoint_Ttmp787), A
 11431  53f0  c3f853            	JMP _label832b2
 11432                          _label832:
 11433  53f3  3eff              	LD A, $ff
 11434  53f5  320b01            	LD (_retractcharpoint_Ttmp787), A
 11435                          _label832b2:
 11436  53f8  3a0b01            	LD A, (_retractcharpoint_Ttmp787)
 11437                          ; peephole(1): r319 (XOR $FF)->(CPL)
 11438                          ;	XOR $FF
 11439  53fb  2f                	CPL
 11440  53fc  320b01            	LD (_retractcharpoint_Ttmp787), A
 11441  53ff  21fe00            	LD HL, _retractcharpoint_Ttmp770
 11442  5402  dd210b01          	LD IX, _retractcharpoint_Ttmp787
 11443  5406  110c01            	LD DE, _retractcharpoint_Ttmp789
 11444  5409  7e                	LD A, (HL)
 11445  540a  dda600            	AND (IX)
 11446  540d  12                	LD (DE), A
 11447  540e  3a0c01            	LD A, (_retractcharpoint_Ttmp789)
 11448  5411  fe00              	CP 0
 11449  5413  ca1954            	JP Z, _label835
 11450  5416  c31c54            	JMP _label835b2
 11451                          _label835:
 11452  5419  c34d54            	JMP _label834e0
 11453                          _label835b2:
 11454                          _label834t:
 11455                          	; P:140
 11456                          	; L:249
 11457  541c  3e01              	LD A, $01
 11458  541e  32fa00            	LD (_retractcharpoint_Ttmp765), A
 11459  5421  0600              	LD B, 0
 11460  5423  3afa00            	LD A, (_retractcharpoint_Ttmp765)
 11461  5426  90                	SUB A, B
 11462  5427  47                	LD B, A
 11463  5428  3a8472            	LD A, (_charisma)
 11464  542b  90                	SUB A,B
 11465  542c  32fd00            	LD (_retractcharpoint_Ttmp767), A
 11466                          	 ; variable_move_8bit_8bit
 11467                          	 ; 8 BIT (unsigned) -> 8 BIT (unsigned)
 11468  542f  3afd00            	LD A, (_retractcharpoint_Ttmp767)
 11469  5432  328472            	LD (_charisma), A
 11470                          	; P:11
 11471                          	; L:250
 11472  5435  3e01              	LD A, $01
 11473  5437  32fa00            	LD (_retractcharpoint_Ttmp765), A
 11474  543a  0600              	LD B, 0
 11475  543c  3a8372            	LD A, (_charPoints)
 11476  543f  47                	LD B, A
 11477  5440  3afa00            	LD A, (_retractcharpoint_Ttmp765)
 11478  5443  80                	ADD A, B
 11479  5444  32fd00            	LD (_retractcharpoint_Ttmp767), A
 11480                          	 ; variable_move_8bit_8bit
 11481                          	 ; 8 BIT (unsigned) -> 8 BIT (unsigned)
 11482  5447  3afd00            	LD A, (_retractcharpoint_Ttmp767)
 11483  544a  328372            	LD (_charPoints), A
 11484                          	; P:10
 11485                          	; L:251
 11486                          _label834f:
 11487                          _label834e0:
 11488                          	; P:2
 11489                          	; L:252
 11490                          ; peephole(1): r383 (CALL+RET)->(JP)
 11491                          ;	call reprintCreateCharacterScreen
 11492  544d  c3ac37            	JP reprintCreateCharacterScreen
 11493                          	; P:1
 11494                          	; L:253
 11495                          	; P:0
 11496                          	; L:254
 11497                          ;	RET
 11498                          retractcharpointafter:
 11499                          	; P:2
 11500                          	; L:255
 11501                          	; P:0
 11502                          	; L:256
 11503                          	; P:0
 11504                          	; L:257
 11505                          	_createcharmode = $0001
 11506                          	; P:1
 11507                          	; L:258
 11508                          	_adventurMode = $0002
 11509                          	; P:1
 11510                          	; L:259
 11511                          	; P:0
 11512                          	; L:260
 11513  5450  3e01              	LD A, $01
 11514  5452  320200            	LD (_Ttmp5), A
 11515  5455  3e00              	LD A, $00
 11516  5457  320300            	LD (_Ttmp5+1), A
 11517  545a  3a0200            	LD A, (_Ttmp5)
 11518  545d  32b372            	LD (_gamemode), A
 11519  5460  3a0300            	LD A, (_Ttmp5+1)
 11520  5463  32b472            	LD (_gamemode+1), A
 11521                          	; P:8
 11522                          	; L:261
 11523                          	; P:0
 11524                          	; L:262
 11525  5466  c3c96c            	jp printAdventureScreenafter
 11526                          printAdventureScreen:
 11527                          	; P:2
 11528                          	; L:263
 11529                          	; P:0
 11530                          	; L:264
 11531                          	; P:0
 11532                          	; L:265
 11533                          	; P:0
 11534                          	; L:266
 11535                          	; P:0
 11536                          	; L:267
 11537  5469  cd5045            	CALL CLS
 11538                          	; P:1
 11539                          	; L:268
 11540  546c  3e00              	LD A, $00
 11541  546e  321701            	LD (_printAdventureScreen_Ttmp836), A
 11542                          ; peephole(1): r250 (LD A, x; LD (x), A; LD A, x)->(LD A, x; LD (x), A)
 11543                          ;	LD A, $00
 11544  5471  321801            	LD (_printAdventureScreen_Ttmp837), A
 11545                          	 ; variable_move_8bit_8bit
 11546                          	 ; 8 BIT (unsigned) -> 8 BIT (unsigned)
 11547  5474  3a1701            	LD A, (_printAdventureScreen_Ttmp836)
 11548  5477  320d71            	LD (XCURSYS), A
 11549                          	 ; variable_move_8bit_8bit
 11550                          	 ; 8 BIT (unsigned) -> 8 BIT (unsigned)
 11551  547a  3a1801            	LD A, (_printAdventureScreen_Ttmp837)
 11552  547d  320e71            	LD (YCURSYS), A
 11553                          	; P:8
 11554                          	; L:269
 11555  5480  3e00              	LD A, $00
 11556  5482  321d01            	LD (_printAdventureScreen_Ttmp843), A
 11557                          ; peephole(1): r250 (LD A, x; LD (x), A; LD A, x)->(LD A, x; LD (x), A)
 11558                          ;	LD A, $00
 11559  5485  321e01            	LD (_printAdventureScreen_Ttmp843+1), A
 11560  5488  3e00              	LD A, $00
 11561  548a  321f01            	LD (_printAdventureScreen_Ttmp844), A
 11562                          ; peephole(1): r250 (LD A, x; LD (x), A; LD A, x)->(LD A, x; LD (x), A)
 11563                          ;	LD A, $00
 11564  548d  322001            	LD (_printAdventureScreen_Ttmp844+1), A
 11565  5490  3a8572            	LD A, (_xlocation)
 11566  5493  321f01            	LD (_printAdventureScreen_Ttmp844), A
 11567  5496  2a1d01            	LD HL, (_printAdventureScreen_Ttmp843)
 11568  5499  ed5b1f01          	LD DE, (_printAdventureScreen_Ttmp844)
 11569  549d  19                	ADD HL, DE
 11570  549e  221d01            	LD (_printAdventureScreen_Ttmp843), HL
 11571  54a1  3e03              	LD A, $03
 11572  54a3  321b01            	LD (_printAdventureScreen_Ttmp842), A
 11573  54a6  3e00              	LD A, $00
 11574  54a8  321c01            	LD (_printAdventureScreen_Ttmp842+1), A
 11575                          ; peephole(1): r250 (LD A, x; LD (x), A; LD A, x)->(LD A, x; LD (x), A)
 11576                          ;	LD A, $00
 11577  54ab  322101            	LD (_printAdventureScreen_Ttmp846), A
 11578  54ae  3e00              	LD A, $00
 11579  54b0  322201            	LD (_printAdventureScreen_Ttmp846+1), A
 11580  54b3  3a8672            	LD A, (_ylocation)
 11581  54b6  322101            	LD (_printAdventureScreen_Ttmp846), A
 11582  54b9  ed4b2101          	LD BC, (_printAdventureScreen_Ttmp846)
 11583  54bd  ed5b1b01          	LD DE, (_printAdventureScreen_Ttmp842)
 11584  54c1  79                	LD A, C
 11585  54c2  48                	LD C, B
 11586  54c3  210000            	LD HL, 0
 11587  54c6  0610              	LD B, 16
 11588                          _label849:
 11589  54c8  29                	ADD HL, HL
 11590  54c9  17                	RLA
 11591  54ca  cb11              	RL C
 11592  54cc  3007              	JR NC,_label849b2
 11593  54ce  19                	ADD HL, DE
 11594  54cf  ce00              	ADC A, 0
 11595  54d1  d2d554            	JP NC,_label849b2
 11596  54d4  0c                	INC C
 11597                          _label849b2:
 11598  54d5  10f1              	DJNZ _label849
 11599  54d7  41                	LD B, C
 11600  54d8  4f                	LD C, A
 11601  54d9  222301            	LD (_printAdventureScreen_Ttmp848), HL
 11602  54dc  ed432501          	LD (_printAdventureScreen_Ttmp848+2), BC
 11603  54e0  3a2301            	LD A, (_printAdventureScreen_Ttmp848)
 11604  54e3  322701            	LD (_printAdventureScreen_Ttmp850), A
 11605  54e6  3a2401            	LD A, (_printAdventureScreen_Ttmp848+1)
 11606  54e9  322801            	LD (_printAdventureScreen_Ttmp850+1), A
 11607  54ec  2a1d01            	LD HL, (_printAdventureScreen_Ttmp843)
 11608  54ef  ed5b2701          	LD DE, (_printAdventureScreen_Ttmp850)
 11609  54f3  19                	ADD HL, DE
 11610  54f4  221d01            	LD (_printAdventureScreen_Ttmp843), HL
 11611  54f7  e600              	AND $0
 11612  54f9  2a1d01            	LD HL, (_printAdventureScreen_Ttmp843)
 11613  54fc  116071            	LD DE, _r
 11614  54ff  19                	ADD HL, DE
 11615  5500  221d01            	LD (_printAdventureScreen_Ttmp843), HL
 11616  5503  ed5b1d01          	LD DE, (_printAdventureScreen_Ttmp843)
 11617  5507  1a                	LD A, (DE)
 11618  5508  322901            	LD (_printAdventureScreen_Ttmp852), A
 11619  550b  3a2901            	LD A, (_printAdventureScreen_Ttmp852)
 11620  550e  47                	LD B, A
 11621  550f  cdaa02            	CALL DSDESCRIPTOR
 11622  5512  dd7e00            	LD A, (IX)
 11623  5515  322c01            	LD (_printAdventureScreen_Ttmp854), A
 11624  5518  dd7e01            	LD A, (IX+1)
 11625  551b  322a01            	LD (_printAdventureScreen_Ttmp853), A
 11626  551e  dd7e02            	LD A, (IX+2)
 11627  5521  322b01            	LD (_printAdventureScreen_Ttmp853+1), A
 11628  5524  3a1a01            	LD A, (_printAdventureScreen_Ttmp841)
 11629  5527  47                	LD B, A
 11630  5528  cd6501            	CALL DSFREE
 11631  552b  3a2c01            	LD A, (_printAdventureScreen_Ttmp854)
 11632  552e  4f                	LD C, A
 11633  552f  cd4e01            	CALL DSALLOC
 11634  5532  78                	LD A, B
 11635  5533  321a01            	LD (_printAdventureScreen_Ttmp841), A
 11636  5536  3a1a01            	LD A, (_printAdventureScreen_Ttmp841)
 11637  5539  47                	LD B, A
 11638  553a  cdaa02            	CALL DSDESCRIPTOR
 11639  553d  dd7e00            	LD A, (IX)
 11640                          ; peephole(3): unread
 11641                          ;	LD (_printAdventureScreen_Ttmp856), A
 11642  5540  dd7e01            	LD A, (IX+1)
 11643  5543  322d01            	LD (_printAdventureScreen_Ttmp855), A
 11644  5546  dd7e02            	LD A, (IX+2)
 11645  5549  322e01            	LD (_printAdventureScreen_Ttmp855+1), A
 11646  554c  2a2a01            	LD HL, (_printAdventureScreen_Ttmp853)
 11647  554f  ed5b2d01          	LD DE, (_printAdventureScreen_Ttmp855)
 11648  5553  3a2c01            	LD A, (_printAdventureScreen_Ttmp854)
 11649  5556  4f                	LD C, A
 11650  5557  0600              	LD B, 0
 11651  5559  cdee02            	CALL DUFFDEVICE
 11652  555c  3a1a01            	LD A, (_printAdventureScreen_Ttmp841)
 11653  555f  47                	LD B, A
 11654  5560  cdaa02            	CALL DSDESCRIPTOR
 11655  5563  dd7e00            	LD A, (IX)
 11656  5566  323101            	LD (_printAdventureScreen_Ttmp859), A
 11657  5569  dd7e01            	LD A, (IX+1)
 11658  556c  322f01            	LD (_printAdventureScreen_Ttmp858), A
 11659  556f  dd7e02            	LD A, (IX+2)
 11660  5572  323001            	LD (_printAdventureScreen_Ttmp858+1), A
 11661  5575  3a3101            	LD A, (_printAdventureScreen_Ttmp859)
 11662  5578  4f                	LD C, A
 11663  5579  0600              	LD B, 0
 11664  557b  2a2f01            	LD HL, (_printAdventureScreen_Ttmp858)
 11665  557e  cda62c            	CALL TEXTAT
 11666  5581  3e00              	LD A, $00
 11667  5583  320d71            	LD (XCURSYS), A
 11668  5586  3a0e71            	LD A, (YCURSYS)
 11669  5589  3c                	INC A
 11670  558a  320e71            	LD (YCURSYS), A
 11671  558d  3a1b71            	LD A, (CURRENTTILESHEIGHT)
 11672  5590  47                	LD B, A
 11673  5591  3a0e71            	LD A, (YCURSYS)
 11674  5594  b8                	CP B
 11675  5595  3807              	JR C, _label863
 11676                          ; peephole(1): r228 (LD A, 0)->(XOR A)
 11677                          ;	LD A, 0
 11678  5597  af                	XOR A
 11679  5598  323201            	LD (_printAdventureScreen_Ttmp862), A
 11680  559b  c3a355            	JMP _label863b2
 11681                          _label863:
 11682  559e  3eff              	LD A, $ff
 11683  55a0  323201            	LD (_printAdventureScreen_Ttmp862), A
 11684                          _label863b2:
 11685  55a3  3a3201            	LD A, (_printAdventureScreen_Ttmp862)
 11686                          ; peephole(1): r319 (XOR $FF)->(CPL)
 11687                          ;	XOR $FF
 11688  55a6  2f                	CPL
 11689  55a7  323201            	LD (_printAdventureScreen_Ttmp862), A
 11690  55aa  3a3201            	LD A, (_printAdventureScreen_Ttmp862)
 11691  55ad  fe00              	CP 0
 11692  55af  c2b555            	JP NZ, _label864
 11693  55b2  c3b855            	JMP _label864b2
 11694                          _label864:
 11695  55b5  c3bb55            	JMP _label860scroll
 11696                          _label864b2:
 11697  55b8  c3cd55            	jp _label860end
 11698                          _label860scroll:
 11699  55bb  3ef8              	LD A, $f8
 11700  55bd  cd0d28            	CALL VSCROLL
 11701  55c0  3a1b71            	LD A, (CURRENTTILESHEIGHT)
 11702  55c3  320e71            	LD (YCURSYS), A
 11703  55c6  3a0e71            	LD A, (YCURSYS)
 11704  55c9  3d                	DEC A
 11705  55ca  320e71            	LD (YCURSYS), A
 11706                          _label860end:
 11707                          	; P:144
 11708                          	; L:270
 11709  55cd  3e00              	LD A, $00
 11710  55cf  321d01            	LD (_printAdventureScreen_Ttmp843), A
 11711                          ; peephole(1): r250 (LD A, x; LD (x), A; LD A, x)->(LD A, x; LD (x), A)
 11712                          ;	LD A, $00
 11713  55d2  321e01            	LD (_printAdventureScreen_Ttmp843+1), A
 11714  55d5  3e00              	LD A, $00
 11715  55d7  321f01            	LD (_printAdventureScreen_Ttmp844), A
 11716                          ; peephole(1): r250 (LD A, x; LD (x), A; LD A, x)->(LD A, x; LD (x), A)
 11717                          ;	LD A, $00
 11718  55da  322001            	LD (_printAdventureScreen_Ttmp844+1), A
 11719  55dd  3a8572            	LD A, (_xlocation)
 11720  55e0  321f01            	LD (_printAdventureScreen_Ttmp844), A
 11721  55e3  2a1d01            	LD HL, (_printAdventureScreen_Ttmp843)
 11722  55e6  ed5b1f01          	LD DE, (_printAdventureScreen_Ttmp844)
 11723  55ea  19                	ADD HL, DE
 11724  55eb  221d01            	LD (_printAdventureScreen_Ttmp843), HL
 11725  55ee  3e03              	LD A, $03
 11726  55f0  321b01            	LD (_printAdventureScreen_Ttmp842), A
 11727  55f3  3e00              	LD A, $00
 11728  55f5  321c01            	LD (_printAdventureScreen_Ttmp842+1), A
 11729                          ; peephole(1): r250 (LD A, x; LD (x), A; LD A, x)->(LD A, x; LD (x), A)
 11730                          ;	LD A, $00
 11731  55f8  322101            	LD (_printAdventureScreen_Ttmp846), A
 11732  55fb  3e00              	LD A, $00
 11733  55fd  322201            	LD (_printAdventureScreen_Ttmp846+1), A
 11734  5600  3a8672            	LD A, (_ylocation)
 11735  5603  322101            	LD (_printAdventureScreen_Ttmp846), A
 11736  5606  ed4b2101          	LD BC, (_printAdventureScreen_Ttmp846)
 11737  560a  ed5b1b01          	LD DE, (_printAdventureScreen_Ttmp842)
 11738  560e  79                	LD A, C
 11739  560f  48                	LD C, B
 11740  5610  210000            	LD HL, 0
 11741  5613  0610              	LD B, 16
 11742                          _label869:
 11743  5615  29                	ADD HL, HL
 11744  5616  17                	RLA
 11745  5617  cb11              	RL C
 11746  5619  3007              	JR NC,_label869b2
 11747  561b  19                	ADD HL, DE
 11748  561c  ce00              	ADC A, 0
 11749  561e  d22256            	JP NC,_label869b2
 11750  5621  0c                	INC C
 11751                          _label869b2:
 11752  5622  10f1              	DJNZ _label869
 11753  5624  41                	LD B, C
 11754  5625  4f                	LD C, A
 11755  5626  222301            	LD (_printAdventureScreen_Ttmp848), HL
 11756  5629  ed432501          	LD (_printAdventureScreen_Ttmp848+2), BC
 11757  562d  3a2301            	LD A, (_printAdventureScreen_Ttmp848)
 11758  5630  322701            	LD (_printAdventureScreen_Ttmp850), A
 11759  5633  3a2401            	LD A, (_printAdventureScreen_Ttmp848+1)
 11760  5636  322801            	LD (_printAdventureScreen_Ttmp850+1), A
 11761  5639  2a1d01            	LD HL, (_printAdventureScreen_Ttmp843)
 11762  563c  ed5b2701          	LD DE, (_printAdventureScreen_Ttmp850)
 11763  5640  19                	ADD HL, DE
 11764  5641  221d01            	LD (_printAdventureScreen_Ttmp843), HL
 11765  5644  e600              	AND $0
 11766  5646  2a1d01            	LD HL, (_printAdventureScreen_Ttmp843)
 11767  5649  117271            	LD DE, _exits
 11768  564c  19                	ADD HL, DE
 11769  564d  221d01            	LD (_printAdventureScreen_Ttmp843), HL
 11770  5650  ed5b1d01          	LD DE, (_printAdventureScreen_Ttmp843)
 11771  5654  1a                	LD A, (DE)
 11772  5655  323401            	LD (_printAdventureScreen_Ttmp870), A
 11773  5658  3a3401            	LD A, (_printAdventureScreen_Ttmp870)
 11774  565b  47                	LD B, A
 11775  565c  cdaa02            	CALL DSDESCRIPTOR
 11776  565f  dd7e00            	LD A, (IX)
 11777  5662  322c01            	LD (_printAdventureScreen_Ttmp854), A
 11778  5665  dd7e01            	LD A, (IX+1)
 11779  5668  322a01            	LD (_printAdventureScreen_Ttmp853), A
 11780  566b  dd7e02            	LD A, (IX+2)
 11781  566e  322b01            	LD (_printAdventureScreen_Ttmp853+1), A
 11782  5671  3a3301            	LD A, (_printAdventureScreen_Ttmp866)
 11783  5674  47                	LD B, A
 11784  5675  cd6501            	CALL DSFREE
 11785  5678  3a2c01            	LD A, (_printAdventureScreen_Ttmp854)
 11786  567b  4f                	LD C, A
 11787  567c  cd4e01            	CALL DSALLOC
 11788  567f  78                	LD A, B
 11789  5680  323301            	LD (_printAdventureScreen_Ttmp866), A
 11790  5683  3a3301            	LD A, (_printAdventureScreen_Ttmp866)
 11791  5686  47                	LD B, A
 11792  5687  cdaa02            	CALL DSDESCRIPTOR
 11793  568a  dd7e00            	LD A, (IX)
 11794                          ; peephole(3): unread
 11795                          ;	LD (_printAdventureScreen_Ttmp856), A
 11796  568d  dd7e01            	LD A, (IX+1)
 11797  5690  322d01            	LD (_printAdventureScreen_Ttmp855), A
 11798  5693  dd7e02            	LD A, (IX+2)
 11799  5696  322e01            	LD (_printAdventureScreen_Ttmp855+1), A
 11800  5699  2a2a01            	LD HL, (_printAdventureScreen_Ttmp853)
 11801  569c  ed5b2d01          	LD DE, (_printAdventureScreen_Ttmp855)
 11802  56a0  3a2c01            	LD A, (_printAdventureScreen_Ttmp854)
 11803  56a3  4f                	LD C, A
 11804  56a4  0600              	LD B, 0
 11805  56a6  cdee02            	CALL DUFFDEVICE
 11806  56a9  3a3301            	LD A, (_printAdventureScreen_Ttmp866)
 11807  56ac  47                	LD B, A
 11808  56ad  cdaa02            	CALL DSDESCRIPTOR
 11809  56b0  dd7e00            	LD A, (IX)
 11810  56b3  323101            	LD (_printAdventureScreen_Ttmp859), A
 11811  56b6  dd7e01            	LD A, (IX+1)
 11812  56b9  322f01            	LD (_printAdventureScreen_Ttmp858), A
 11813  56bc  dd7e02            	LD A, (IX+2)
 11814  56bf  323001            	LD (_printAdventureScreen_Ttmp858+1), A
 11815  56c2  3a3101            	LD A, (_printAdventureScreen_Ttmp859)
 11816  56c5  4f                	LD C, A
 11817  56c6  0600              	LD B, 0
 11818  56c8  2a2f01            	LD HL, (_printAdventureScreen_Ttmp858)
 11819  56cb  cda62c            	CALL TEXTAT
 11820  56ce  3e00              	LD A, $00
 11821  56d0  320d71            	LD (XCURSYS), A
 11822  56d3  3a0e71            	LD A, (YCURSYS)
 11823  56d6  3c                	INC A
 11824  56d7  320e71            	LD (YCURSYS), A
 11825  56da  3a1b71            	LD A, (CURRENTTILESHEIGHT)
 11826  56dd  47                	LD B, A
 11827  56de  3a0e71            	LD A, (YCURSYS)
 11828  56e1  b8                	CP B
 11829  56e2  3807              	JR C, _label874
 11830                          ; peephole(1): r228 (LD A, 0)->(XOR A)
 11831                          ;	LD A, 0
 11832  56e4  af                	XOR A
 11833  56e5  323201            	LD (_printAdventureScreen_Ttmp862), A
 11834  56e8  c3f056            	JMP _label874b2
 11835                          _label874:
 11836  56eb  3eff              	LD A, $ff
 11837  56ed  323201            	LD (_printAdventureScreen_Ttmp862), A
 11838                          _label874b2:
 11839  56f0  3a3201            	LD A, (_printAdventureScreen_Ttmp862)
 11840                          ; peephole(1): r319 (XOR $FF)->(CPL)
 11841                          ;	XOR $FF
 11842  56f3  2f                	CPL
 11843  56f4  323201            	LD (_printAdventureScreen_Ttmp862), A
 11844  56f7  3a3201            	LD A, (_printAdventureScreen_Ttmp862)
 11845  56fa  fe00              	CP 0
 11846  56fc  c20257            	JP NZ, _label875
 11847  56ff  c30557            	JMP _label875b2
 11848                          _label875:
 11849  5702  c30857            	JMP _label872scroll
 11850                          _label875b2:
 11851  5705  c31a57            	jp _label872end
 11852                          _label872scroll:
 11853  5708  3ef8              	LD A, $f8
 11854  570a  cd0d28            	CALL VSCROLL
 11855  570d  3a1b71            	LD A, (CURRENTTILESHEIGHT)
 11856  5710  320e71            	LD (YCURSYS), A
 11857  5713  3a0e71            	LD A, (YCURSYS)
 11858  5716  3d                	DEC A
 11859  5717  320e71            	LD (YCURSYS), A
 11860                          _label872end:
 11861                          	; P:144
 11862                          	; L:271
 11863  571a  3e00              	LD A, $00
 11864  571c  321d01            	LD (_printAdventureScreen_Ttmp843), A
 11865                          ; peephole(1): r250 (LD A, x; LD (x), A; LD A, x)->(LD A, x; LD (x), A)
 11866                          ;	LD A, $00
 11867  571f  321e01            	LD (_printAdventureScreen_Ttmp843+1), A
 11868  5722  3e00              	LD A, $00
 11869  5724  321f01            	LD (_printAdventureScreen_Ttmp844), A
 11870                          ; peephole(1): r250 (LD A, x; LD (x), A; LD A, x)->(LD A, x; LD (x), A)
 11871                          ;	LD A, $00
 11872  5727  322001            	LD (_printAdventureScreen_Ttmp844+1), A
 11873  572a  3a8572            	LD A, (_xlocation)
 11874  572d  321f01            	LD (_printAdventureScreen_Ttmp844), A
 11875  5730  2a1d01            	LD HL, (_printAdventureScreen_Ttmp843)
 11876  5733  ed5b1f01          	LD DE, (_printAdventureScreen_Ttmp844)
 11877  5737  19                	ADD HL, DE
 11878  5738  221d01            	LD (_printAdventureScreen_Ttmp843), HL
 11879  573b  3e03              	LD A, $03
 11880  573d  321b01            	LD (_printAdventureScreen_Ttmp842), A
 11881  5740  3e00              	LD A, $00
 11882  5742  321c01            	LD (_printAdventureScreen_Ttmp842+1), A
 11883                          ; peephole(1): r250 (LD A, x; LD (x), A; LD A, x)->(LD A, x; LD (x), A)
 11884                          ;	LD A, $00
 11885  5745  322101            	LD (_printAdventureScreen_Ttmp846), A
 11886  5748  3e00              	LD A, $00
 11887  574a  322201            	LD (_printAdventureScreen_Ttmp846+1), A
 11888  574d  3a8672            	LD A, (_ylocation)
 11889  5750  322101            	LD (_printAdventureScreen_Ttmp846), A
 11890  5753  ed4b2101          	LD BC, (_printAdventureScreen_Ttmp846)
 11891  5757  ed5b1b01          	LD DE, (_printAdventureScreen_Ttmp842)
 11892  575b  79                	LD A, C
 11893  575c  48                	LD C, B
 11894  575d  210000            	LD HL, 0
 11895  5760  0610              	LD B, 16
 11896                          _label880:
 11897  5762  29                	ADD HL, HL
 11898  5763  17                	RLA
 11899  5764  cb11              	RL C
 11900  5766  3007              	JR NC,_label880b2
 11901  5768  19                	ADD HL, DE
 11902  5769  ce00              	ADC A, 0
 11903  576b  d26f57            	JP NC,_label880b2
 11904  576e  0c                	INC C
 11905                          _label880b2:
 11906  576f  10f1              	DJNZ _label880
 11907  5771  41                	LD B, C
 11908  5772  4f                	LD C, A
 11909  5773  222301            	LD (_printAdventureScreen_Ttmp848), HL
 11910  5776  ed432501          	LD (_printAdventureScreen_Ttmp848+2), BC
 11911  577a  3a2301            	LD A, (_printAdventureScreen_Ttmp848)
 11912  577d  322701            	LD (_printAdventureScreen_Ttmp850), A
 11913  5780  3a2401            	LD A, (_printAdventureScreen_Ttmp848+1)
 11914  5783  322801            	LD (_printAdventureScreen_Ttmp850+1), A
 11915  5786  2a1d01            	LD HL, (_printAdventureScreen_Ttmp843)
 11916  5789  ed5b2701          	LD DE, (_printAdventureScreen_Ttmp850)
 11917  578d  19                	ADD HL, DE
 11918  578e  221d01            	LD (_printAdventureScreen_Ttmp843), HL
 11919  5791  e600              	AND $0
 11920  5793  2a1d01            	LD HL, (_printAdventureScreen_Ttmp843)
 11921  5796  117271            	LD DE, _exits
 11922  5799  19                	ADD HL, DE
 11923  579a  221d01            	LD (_printAdventureScreen_Ttmp843), HL
 11924  579d  ed5b1d01          	LD DE, (_printAdventureScreen_Ttmp843)
 11925  57a1  1a                	LD A, (DE)
 11926  57a2  323601            	LD (_printAdventureScreen_Ttmp881), A
 11927  57a5  3a3601            	LD A, (_printAdventureScreen_Ttmp881)
 11928  57a8  47                	LD B, A
 11929  57a9  cdaa02            	CALL DSDESCRIPTOR
 11930  57ac  dd7e00            	LD A, (IX)
 11931  57af  322c01            	LD (_printAdventureScreen_Ttmp854), A
 11932  57b2  dd7e01            	LD A, (IX+1)
 11933  57b5  322a01            	LD (_printAdventureScreen_Ttmp853), A
 11934  57b8  dd7e02            	LD A, (IX+2)
 11935  57bb  322b01            	LD (_printAdventureScreen_Ttmp853+1), A
 11936  57be  3a3501            	LD A, (_printAdventureScreen_Ttmp877)
 11937  57c1  47                	LD B, A
 11938  57c2  cd6501            	CALL DSFREE
 11939  57c5  3a2c01            	LD A, (_printAdventureScreen_Ttmp854)
 11940  57c8  4f                	LD C, A
 11941  57c9  cd4e01            	CALL DSALLOC
 11942  57cc  78                	LD A, B
 11943  57cd  323501            	LD (_printAdventureScreen_Ttmp877), A
 11944  57d0  3a3501            	LD A, (_printAdventureScreen_Ttmp877)
 11945  57d3  47                	LD B, A
 11946  57d4  cdaa02            	CALL DSDESCRIPTOR
 11947  57d7  dd7e00            	LD A, (IX)
 11948                          ; peephole(3): unread
 11949                          ;	LD (_printAdventureScreen_Ttmp856), A
 11950  57da  dd7e01            	LD A, (IX+1)
 11951  57dd  322d01            	LD (_printAdventureScreen_Ttmp855), A
 11952  57e0  dd7e02            	LD A, (IX+2)
 11953  57e3  322e01            	LD (_printAdventureScreen_Ttmp855+1), A
 11954  57e6  2a2a01            	LD HL, (_printAdventureScreen_Ttmp853)
 11955  57e9  ed5b2d01          	LD DE, (_printAdventureScreen_Ttmp855)
 11956  57ed  3a2c01            	LD A, (_printAdventureScreen_Ttmp854)
 11957  57f0  4f                	LD C, A
 11958  57f1  0600              	LD B, 0
 11959  57f3  cdee02            	CALL DUFFDEVICE
 11960  57f6  3e01              	LD A, $01
 11961  57f8  323101            	LD (_printAdventureScreen_Ttmp859), A
 11962                          ; peephole(1): r250 (LD A, x; LD (x), A; LD A, x)->(LD A, x; LD (x), A)
 11963                          ;	LD A, $01
 11964  57fb  323701            	LD (_printAdventureScreen_Ttmp882), A
 11965  57fe  3a3101            	LD A, (_printAdventureScreen_Ttmp859)
 11966  5801  fe00              	CP $00
 11967  5803  ca1859            	JP Z, _label885empty
 11968  5806  3a3501            	LD A, (_printAdventureScreen_Ttmp877)
 11969  5809  47                	LD B, A
 11970  580a  cdaa02            	CALL DSDESCRIPTOR
 11971  580d  dd7e00            	LD A, (IX)
 11972  5810  323a01            	LD (_printAdventureScreen_Ttmp887), A
 11973  5813  dd7e01            	LD A, (IX+1)
 11974  5816  322f01            	LD (_printAdventureScreen_Ttmp858), A
 11975  5819  dd7e02            	LD A, (IX+2)
 11976  581c  323001            	LD (_printAdventureScreen_Ttmp858+1), A
 11977  581f  3a3a01            	LD A, (_printAdventureScreen_Ttmp887)
 11978  5822  47                	LD B, A
 11979  5823  3a3101            	LD A, (_printAdventureScreen_Ttmp859)
 11980  5826  b8                	CP B
 11981  5827  3809              	JR C, _label890
 11982  5829  2807              	JR Z, _label890
 11983                          ; peephole(1): r228 (LD A, 0)->(XOR A)
 11984                          ;	LD A, 0
 11985  582b  af                	XOR A
 11986  582c  323d01            	LD (_printAdventureScreen_Ttmp889), A
 11987  582f  c33758            	JMP _label890b2
 11988                          _label890:
 11989  5832  3eff              	LD A, $ff
 11990  5834  323d01            	LD (_printAdventureScreen_Ttmp889), A
 11991                          _label890b2:
 11992  5837  3a3d01            	LD A, (_printAdventureScreen_Ttmp889)
 11993                          ; peephole(1): r319 (XOR $FF)->(CPL)
 11994                          ;	XOR $FF
 11995  583a  2f                	CPL
 11996  583b  323d01            	LD (_printAdventureScreen_Ttmp889), A
 11997  583e  3a3d01            	LD A, (_printAdventureScreen_Ttmp889)
 11998  5841  fe00              	CP $00
 11999  5843  c21859            	JP NZ, _label885empty
 12000  5846  2a2f01            	LD HL, (_printAdventureScreen_Ttmp858)
 12001  5849  110000            	LD DE, 0
 12002  584c  3a3101            	LD A, (_printAdventureScreen_Ttmp859)
 12003  584f  5f                	LD E, A
 12004  5850  19                	ADD HL, DE
 12005  5851  222f01            	LD (_printAdventureScreen_Ttmp858), HL
 12006  5854  2a2f01            	LD HL, (_printAdventureScreen_Ttmp858)
 12007  5857  2b                	DEC HL
 12008  5858  222f01            	LD (_printAdventureScreen_Ttmp858), HL
 12009  585b  3a3701            	LD A, (_printAdventureScreen_Ttmp882)
 12010  585e  323901            	LD (_printAdventureScreen_Ttmp884), A
 12011                          ; peephole(1): r250 (LD A, x; LD (x), A; LD A, x)->(LD A, x; LD (x), A)
 12012                          ;	LD A, (_printAdventureScreen_Ttmp882)
 12013  5861  323e01            	LD (_printAdventureScreen_Ttmp892), A
 12014  5864  0600              	LD B, 0
 12015  5866  3a3101            	LD A, (_printAdventureScreen_Ttmp859)
 12016  5869  47                	LD B, A
 12017  586a  3a3e01            	LD A, (_printAdventureScreen_Ttmp892)
 12018  586d  80                	ADD A, B
 12019  586e  323e01            	LD (_printAdventureScreen_Ttmp892), A
 12020  5871  3a3a01            	LD A, (_printAdventureScreen_Ttmp887)
 12021  5874  47                	LD B, A
 12022  5875  3a3e01            	LD A, (_printAdventureScreen_Ttmp892)
 12023  5878  b8                	CP B
 12024  5879  3809              	JR C, _label893
 12025  587b  2807              	JR Z, _label893
 12026                          ; peephole(1): r228 (LD A, 0)->(XOR A)
 12027                          ;	LD A, 0
 12028  587d  af                	XOR A
 12029  587e  323e01            	LD (_printAdventureScreen_Ttmp892), A
 12030  5881  c38958            	JMP _label893b2
 12031                          _label893:
 12032  5884  3eff              	LD A, $ff
 12033  5886  323e01            	LD (_printAdventureScreen_Ttmp892), A
 12034                          _label893b2:
 12035  5889  3a3e01            	LD A, (_printAdventureScreen_Ttmp892)
 12036                          ; peephole(1): r319 (XOR $FF)->(CPL)
 12037                          ;	XOR $FF
 12038  588c  2f                	CPL
 12039  588d  323e01            	LD (_printAdventureScreen_Ttmp892), A
 12040  5890  3a3e01            	LD A, (_printAdventureScreen_Ttmp892)
 12041  5893  fe00              	CP $00
 12042  5895  cab358            	JP Z, _label885unlim
 12043  5898  3a3a01            	LD A, (_printAdventureScreen_Ttmp887)
 12044  589b  323e01            	LD (_printAdventureScreen_Ttmp892), A
 12045  589e  0600              	LD B, 0
 12046  58a0  3a3101            	LD A, (_printAdventureScreen_Ttmp859)
 12047  58a3  90                	SUB A, B
 12048  58a4  47                	LD B, A
 12049  58a5  3a3e01            	LD A, (_printAdventureScreen_Ttmp892)
 12050  58a8  90                	SUB A,B
 12051  58a9  323901            	LD (_printAdventureScreen_Ttmp884), A
 12052  58ac  3a3901            	LD A, (_printAdventureScreen_Ttmp884)
 12053  58af  3c                	INC A
 12054  58b0  323901            	LD (_printAdventureScreen_Ttmp884), A
 12055                          _label885unlim:
 12056  58b3  3a3a01            	LD A, (_printAdventureScreen_Ttmp887)
 12057  58b6  47                	LD B, A
 12058  58b7  3a3101            	LD A, (_printAdventureScreen_Ttmp859)
 12059  58ba  b8                	CP B
 12060  58bb  3809              	JR C, _label895
 12061  58bd  2807              	JR Z, _label895
 12062                          ; peephole(1): r228 (LD A, 0)->(XOR A)
 12063                          ;	LD A, 0
 12064  58bf  af                	XOR A
 12065  58c0  323d01            	LD (_printAdventureScreen_Ttmp889), A
 12066  58c3  c3cb58            	JMP _label895b2
 12067                          _label895:
 12068  58c6  3eff              	LD A, $ff
 12069  58c8  323d01            	LD (_printAdventureScreen_Ttmp889), A
 12070                          _label895b2:
 12071  58cb  3a3d01            	LD A, (_printAdventureScreen_Ttmp889)
 12072                          ; peephole(1): r319 (XOR $FF)->(CPL)
 12073                          ;	XOR $FF
 12074  58ce  2f                	CPL
 12075  58cf  323d01            	LD (_printAdventureScreen_Ttmp889), A
 12076  58d2  3a3d01            	LD A, (_printAdventureScreen_Ttmp889)
 12077  58d5  feff              	CP $ff
 12078  58d7  ca1859            	JP Z, _label885empty
 12079  58da  3a3801            	LD A, (_printAdventureScreen_Ttmp883)
 12080  58dd  47                	LD B, A
 12081  58de  cd6501            	CALL DSFREE
 12082  58e1  3a3901            	LD A, (_printAdventureScreen_Ttmp884)
 12083  58e4  4f                	LD C, A
 12084  58e5  cd4e01            	CALL DSALLOC
 12085  58e8  78                	LD A, B
 12086  58e9  323801            	LD (_printAdventureScreen_Ttmp883), A
 12087  58ec  3a3801            	LD A, (_printAdventureScreen_Ttmp883)
 12088  58ef  47                	LD B, A
 12089  58f0  cdaa02            	CALL DSDESCRIPTOR
 12090  58f3  dd7e00            	LD A, (IX)
 12091  58f6  323d01            	LD (_printAdventureScreen_Ttmp889), A
 12092  58f9  dd7e01            	LD A, (IX+1)
 12093  58fc  323b01            	LD (_printAdventureScreen_Ttmp888), A
 12094  58ff  dd7e02            	LD A, (IX+2)
 12095  5902  323c01            	LD (_printAdventureScreen_Ttmp888+1), A
 12096  5905  2a2f01            	LD HL, (_printAdventureScreen_Ttmp858)
 12097  5908  ed5b3b01          	LD DE, (_printAdventureScreen_Ttmp888)
 12098  590c  3a3901            	LD A, (_printAdventureScreen_Ttmp884)
 12099  590f  4f                	LD C, A
 12100  5910  0600              	LD B, 0
 12101  5912  cdee02            	CALL DUFFDEVICE
 12102  5915  c32959            	jp _label885done
 12103                          _label885empty:
 12104  5918  3a3801            	LD A, (_printAdventureScreen_Ttmp883)
 12105  591b  47                	LD B, A
 12106  591c  cd6501            	CALL DSFREE
 12107  591f  3e00              	LD A, $00
 12108  5921  4f                	LD C, A
 12109  5922  cd4e01            	CALL DSALLOC
 12110  5925  78                	LD A, B
 12111  5926  323801            	LD (_printAdventureScreen_Ttmp883), A
 12112                          _label885done:
 12113  5929  3a3801            	LD A, (_printAdventureScreen_Ttmp883)
 12114  592c  47                	LD B, A
 12115  592d  cdaa02            	CALL DSDESCRIPTOR
 12116  5930  dd7e00            	LD A, (IX)
 12117  5933  324101            	LD (_printAdventureScreen_Ttmp899), A
 12118  5936  dd7e01            	LD A, (IX+1)
 12119  5939  323f01            	LD (_printAdventureScreen_Ttmp898), A
 12120  593c  dd7e02            	LD A, (IX+2)
 12121  593f  324001            	LD (_printAdventureScreen_Ttmp898+1), A
 12122  5942  3a4101            	LD A, (_printAdventureScreen_Ttmp899)
 12123  5945  4f                	LD C, A
 12124  5946  0600              	LD B, 0
 12125  5948  2a3f01            	LD HL, (_printAdventureScreen_Ttmp898)
 12126  594b  cda62c            	CALL TEXTAT
 12127  594e  3e00              	LD A, $00
 12128  5950  320d71            	LD (XCURSYS), A
 12129  5953  3a0e71            	LD A, (YCURSYS)
 12130  5956  3c                	INC A
 12131  5957  320e71            	LD (YCURSYS), A
 12132  595a  3a1b71            	LD A, (CURRENTTILESHEIGHT)
 12133  595d  47                	LD B, A
 12134  595e  3a0e71            	LD A, (YCURSYS)
 12135  5961  b8                	CP B
 12136  5962  3807              	JR C, _label902
 12137                          ; peephole(1): r228 (LD A, 0)->(XOR A)
 12138                          ;	LD A, 0
 12139  5964  af                	XOR A
 12140  5965  323201            	LD (_printAdventureScreen_Ttmp862), A
 12141  5968  c37059            	JMP _label902b2
 12142                          _label902:
 12143  596b  3eff              	LD A, $ff
 12144  596d  323201            	LD (_printAdventureScreen_Ttmp862), A
 12145                          _label902b2:
 12146  5970  3a3201            	LD A, (_printAdventureScreen_Ttmp862)
 12147                          ; peephole(1): r319 (XOR $FF)->(CPL)
 12148                          ;	XOR $FF
 12149  5973  2f                	CPL
 12150  5974  323201            	LD (_printAdventureScreen_Ttmp862), A
 12151  5977  3a3201            	LD A, (_printAdventureScreen_Ttmp862)
 12152  597a  fe00              	CP 0
 12153  597c  c28259            	JP NZ, _label903
 12154  597f  c38559            	JMP _label903b2
 12155                          _label903:
 12156  5982  c38859            	JMP _label900scroll
 12157                          _label903b2:
 12158  5985  c39a59            	jp _label900end
 12159                          _label900scroll:
 12160  5988  3ef8              	LD A, $f8
 12161  598a  cd0d28            	CALL VSCROLL
 12162  598d  3a1b71            	LD A, (CURRENTTILESHEIGHT)
 12163  5990  320e71            	LD (YCURSYS), A
 12164  5993  3a0e71            	LD A, (YCURSYS)
 12165  5996  3d                	DEC A
 12166  5997  320e71            	LD (YCURSYS), A
 12167                          _label900end:
 12168                          	; P:283
 12169                          	; L:272
 12170  599a  3e00              	LD A, $00
 12171  599c  321d01            	LD (_printAdventureScreen_Ttmp843), A
 12172                          ; peephole(1): r250 (LD A, x; LD (x), A; LD A, x)->(LD A, x; LD (x), A)
 12173                          ;	LD A, $00
 12174  599f  321e01            	LD (_printAdventureScreen_Ttmp843+1), A
 12175  59a2  3e00              	LD A, $00
 12176  59a4  321f01            	LD (_printAdventureScreen_Ttmp844), A
 12177                          ; peephole(1): r250 (LD A, x; LD (x), A; LD A, x)->(LD A, x; LD (x), A)
 12178                          ;	LD A, $00
 12179  59a7  322001            	LD (_printAdventureScreen_Ttmp844+1), A
 12180  59aa  3a8572            	LD A, (_xlocation)
 12181  59ad  321f01            	LD (_printAdventureScreen_Ttmp844), A
 12182  59b0  2a1d01            	LD HL, (_printAdventureScreen_Ttmp843)
 12183  59b3  ed5b1f01          	LD DE, (_printAdventureScreen_Ttmp844)
 12184  59b7  19                	ADD HL, DE
 12185  59b8  221d01            	LD (_printAdventureScreen_Ttmp843), HL
 12186  59bb  3e03              	LD A, $03
 12187  59bd  321b01            	LD (_printAdventureScreen_Ttmp842), A
 12188  59c0  3e00              	LD A, $00
 12189  59c2  321c01            	LD (_printAdventureScreen_Ttmp842+1), A
 12190                          ; peephole(1): r250 (LD A, x; LD (x), A; LD A, x)->(LD A, x; LD (x), A)
 12191                          ;	LD A, $00
 12192  59c5  322101            	LD (_printAdventureScreen_Ttmp846), A
 12193  59c8  3e00              	LD A, $00
 12194  59ca  322201            	LD (_printAdventureScreen_Ttmp846+1), A
 12195  59cd  3a8672            	LD A, (_ylocation)
 12196  59d0  322101            	LD (_printAdventureScreen_Ttmp846), A
 12197  59d3  ed4b2101          	LD BC, (_printAdventureScreen_Ttmp846)
 12198  59d7  ed5b1b01          	LD DE, (_printAdventureScreen_Ttmp842)
 12199  59db  79                	LD A, C
 12200  59dc  48                	LD C, B
 12201  59dd  210000            	LD HL, 0
 12202  59e0  0610              	LD B, 16
 12203                          _label908:
 12204  59e2  29                	ADD HL, HL
 12205  59e3  17                	RLA
 12206  59e4  cb11              	RL C
 12207  59e6  3007              	JR NC,_label908b2
 12208  59e8  19                	ADD HL, DE
 12209  59e9  ce00              	ADC A, 0
 12210  59eb  d2ef59            	JP NC,_label908b2
 12211  59ee  0c                	INC C
 12212                          _label908b2:
 12213  59ef  10f1              	DJNZ _label908
 12214  59f1  41                	LD B, C
 12215  59f2  4f                	LD C, A
 12216  59f3  222301            	LD (_printAdventureScreen_Ttmp848), HL
 12217  59f6  ed432501          	LD (_printAdventureScreen_Ttmp848+2), BC
 12218  59fa  3a2301            	LD A, (_printAdventureScreen_Ttmp848)
 12219  59fd  322701            	LD (_printAdventureScreen_Ttmp850), A
 12220  5a00  3a2401            	LD A, (_printAdventureScreen_Ttmp848+1)
 12221  5a03  322801            	LD (_printAdventureScreen_Ttmp850+1), A
 12222  5a06  2a1d01            	LD HL, (_printAdventureScreen_Ttmp843)
 12223  5a09  ed5b2701          	LD DE, (_printAdventureScreen_Ttmp850)
 12224  5a0d  19                	ADD HL, DE
 12225  5a0e  221d01            	LD (_printAdventureScreen_Ttmp843), HL
 12226  5a11  e600              	AND $0
 12227  5a13  2a1d01            	LD HL, (_printAdventureScreen_Ttmp843)
 12228  5a16  117271            	LD DE, _exits
 12229  5a19  19                	ADD HL, DE
 12230  5a1a  221d01            	LD (_printAdventureScreen_Ttmp843), HL
 12231  5a1d  ed5b1d01          	LD DE, (_printAdventureScreen_Ttmp843)
 12232  5a21  1a                	LD A, (DE)
 12233  5a22  324301            	LD (_printAdventureScreen_Ttmp909), A
 12234  5a25  3a4301            	LD A, (_printAdventureScreen_Ttmp909)
 12235  5a28  47                	LD B, A
 12236  5a29  cdaa02            	CALL DSDESCRIPTOR
 12237  5a2c  dd7e00            	LD A, (IX)
 12238  5a2f  322c01            	LD (_printAdventureScreen_Ttmp854), A
 12239  5a32  dd7e01            	LD A, (IX+1)
 12240  5a35  322a01            	LD (_printAdventureScreen_Ttmp853), A
 12241  5a38  dd7e02            	LD A, (IX+2)
 12242  5a3b  322b01            	LD (_printAdventureScreen_Ttmp853+1), A
 12243  5a3e  3a4201            	LD A, (_printAdventureScreen_Ttmp905)
 12244  5a41  47                	LD B, A
 12245  5a42  cd6501            	CALL DSFREE
 12246  5a45  3a2c01            	LD A, (_printAdventureScreen_Ttmp854)
 12247  5a48  4f                	LD C, A
 12248  5a49  cd4e01            	CALL DSALLOC
 12249  5a4c  78                	LD A, B
 12250  5a4d  324201            	LD (_printAdventureScreen_Ttmp905), A
 12251  5a50  3a4201            	LD A, (_printAdventureScreen_Ttmp905)
 12252  5a53  47                	LD B, A
 12253  5a54  cdaa02            	CALL DSDESCRIPTOR
 12254  5a57  dd7e00            	LD A, (IX)
 12255                          ; peephole(3): unread
 12256                          ;	LD (_printAdventureScreen_Ttmp856), A
 12257  5a5a  dd7e01            	LD A, (IX+1)
 12258  5a5d  322d01            	LD (_printAdventureScreen_Ttmp855), A
 12259  5a60  dd7e02            	LD A, (IX+2)
 12260  5a63  322e01            	LD (_printAdventureScreen_Ttmp855+1), A
 12261  5a66  2a2a01            	LD HL, (_printAdventureScreen_Ttmp853)
 12262  5a69  ed5b2d01          	LD DE, (_printAdventureScreen_Ttmp855)
 12263  5a6d  3a2c01            	LD A, (_printAdventureScreen_Ttmp854)
 12264  5a70  4f                	LD C, A
 12265  5a71  0600              	LD B, 0
 12266  5a73  cdee02            	CALL DUFFDEVICE
 12267  5a76  3e02              	LD A, $02
 12268  5a78  323101            	LD (_printAdventureScreen_Ttmp859), A
 12269  5a7b  3e01              	LD A, $01
 12270  5a7d  323701            	LD (_printAdventureScreen_Ttmp882), A
 12271  5a80  3a3101            	LD A, (_printAdventureScreen_Ttmp859)
 12272  5a83  fe00              	CP $00
 12273  5a85  ca9a5b            	JP Z, _label911empty
 12274  5a88  3a4201            	LD A, (_printAdventureScreen_Ttmp905)
 12275  5a8b  47                	LD B, A
 12276  5a8c  cdaa02            	CALL DSDESCRIPTOR
 12277  5a8f  dd7e00            	LD A, (IX)
 12278  5a92  323a01            	LD (_printAdventureScreen_Ttmp887), A
 12279  5a95  dd7e01            	LD A, (IX+1)
 12280  5a98  322f01            	LD (_printAdventureScreen_Ttmp858), A
 12281  5a9b  dd7e02            	LD A, (IX+2)
 12282  5a9e  323001            	LD (_printAdventureScreen_Ttmp858+1), A
 12283  5aa1  3a3a01            	LD A, (_printAdventureScreen_Ttmp887)
 12284  5aa4  47                	LD B, A
 12285  5aa5  3a3101            	LD A, (_printAdventureScreen_Ttmp859)
 12286  5aa8  b8                	CP B
 12287  5aa9  3809              	JR C, _label913
 12288  5aab  2807              	JR Z, _label913
 12289                          ; peephole(1): r228 (LD A, 0)->(XOR A)
 12290                          ;	LD A, 0
 12291  5aad  af                	XOR A
 12292  5aae  323d01            	LD (_printAdventureScreen_Ttmp889), A
 12293  5ab1  c3b95a            	JMP _label913b2
 12294                          _label913:
 12295  5ab4  3eff              	LD A, $ff
 12296  5ab6  323d01            	LD (_printAdventureScreen_Ttmp889), A
 12297                          _label913b2:
 12298  5ab9  3a3d01            	LD A, (_printAdventureScreen_Ttmp889)
 12299                          ; peephole(1): r319 (XOR $FF)->(CPL)
 12300                          ;	XOR $FF
 12301  5abc  2f                	CPL
 12302  5abd  323d01            	LD (_printAdventureScreen_Ttmp889), A
 12303  5ac0  3a3d01            	LD A, (_printAdventureScreen_Ttmp889)
 12304  5ac3  fe00              	CP $00
 12305  5ac5  c29a5b            	JP NZ, _label911empty
 12306  5ac8  2a2f01            	LD HL, (_printAdventureScreen_Ttmp858)
 12307  5acb  110000            	LD DE, 0
 12308  5ace  3a3101            	LD A, (_printAdventureScreen_Ttmp859)
 12309  5ad1  5f                	LD E, A
 12310  5ad2  19                	ADD HL, DE
 12311  5ad3  222f01            	LD (_printAdventureScreen_Ttmp858), HL
 12312  5ad6  2a2f01            	LD HL, (_printAdventureScreen_Ttmp858)
 12313  5ad9  2b                	DEC HL
 12314  5ada  222f01            	LD (_printAdventureScreen_Ttmp858), HL
 12315  5add  3a3701            	LD A, (_printAdventureScreen_Ttmp882)
 12316  5ae0  323901            	LD (_printAdventureScreen_Ttmp884), A
 12317                          ; peephole(1): r250 (LD A, x; LD (x), A; LD A, x)->(LD A, x; LD (x), A)
 12318                          ;	LD A, (_printAdventureScreen_Ttmp882)
 12319  5ae3  323e01            	LD (_printAdventureScreen_Ttmp892), A
 12320  5ae6  0600              	LD B, 0
 12321  5ae8  3a3101            	LD A, (_printAdventureScreen_Ttmp859)
 12322  5aeb  47                	LD B, A
 12323  5aec  3a3e01            	LD A, (_printAdventureScreen_Ttmp892)
 12324  5aef  80                	ADD A, B
 12325  5af0  323e01            	LD (_printAdventureScreen_Ttmp892), A
 12326  5af3  3a3a01            	LD A, (_printAdventureScreen_Ttmp887)
 12327  5af6  47                	LD B, A
 12328  5af7  3a3e01            	LD A, (_printAdventureScreen_Ttmp892)
 12329  5afa  b8                	CP B
 12330  5afb  3809              	JR C, _label915
 12331  5afd  2807              	JR Z, _label915
 12332                          ; peephole(1): r228 (LD A, 0)->(XOR A)
 12333                          ;	LD A, 0
 12334  5aff  af                	XOR A
 12335  5b00  323e01            	LD (_printAdventureScreen_Ttmp892), A
 12336  5b03  c30b5b            	JMP _label915b2
 12337                          _label915:
 12338  5b06  3eff              	LD A, $ff
 12339  5b08  323e01            	LD (_printAdventureScreen_Ttmp892), A
 12340                          _label915b2:
 12341  5b0b  3a3e01            	LD A, (_printAdventureScreen_Ttmp892)
 12342                          ; peephole(1): r319 (XOR $FF)->(CPL)
 12343                          ;	XOR $FF
 12344  5b0e  2f                	CPL
 12345  5b0f  323e01            	LD (_printAdventureScreen_Ttmp892), A
 12346  5b12  3a3e01            	LD A, (_printAdventureScreen_Ttmp892)
 12347  5b15  fe00              	CP $00
 12348  5b17  ca355b            	JP Z, _label911unlim
 12349  5b1a  3a3a01            	LD A, (_printAdventureScreen_Ttmp887)
 12350  5b1d  323e01            	LD (_printAdventureScreen_Ttmp892), A
 12351  5b20  0600              	LD B, 0
 12352  5b22  3a3101            	LD A, (_printAdventureScreen_Ttmp859)
 12353  5b25  90                	SUB A, B
 12354  5b26  47                	LD B, A
 12355  5b27  3a3e01            	LD A, (_printAdventureScreen_Ttmp892)
 12356  5b2a  90                	SUB A,B
 12357  5b2b  323901            	LD (_printAdventureScreen_Ttmp884), A
 12358  5b2e  3a3901            	LD A, (_printAdventureScreen_Ttmp884)
 12359  5b31  3c                	INC A
 12360  5b32  323901            	LD (_printAdventureScreen_Ttmp884), A
 12361                          _label911unlim:
 12362  5b35  3a3a01            	LD A, (_printAdventureScreen_Ttmp887)
 12363  5b38  47                	LD B, A
 12364  5b39  3a3101            	LD A, (_printAdventureScreen_Ttmp859)
 12365  5b3c  b8                	CP B
 12366  5b3d  3809              	JR C, _label917
 12367  5b3f  2807              	JR Z, _label917
 12368                          ; peephole(1): r228 (LD A, 0)->(XOR A)
 12369                          ;	LD A, 0
 12370  5b41  af                	XOR A
 12371  5b42  323d01            	LD (_printAdventureScreen_Ttmp889), A
 12372  5b45  c34d5b            	JMP _label917b2
 12373                          _label917:
 12374  5b48  3eff              	LD A, $ff
 12375  5b4a  323d01            	LD (_printAdventureScreen_Ttmp889), A
 12376                          _label917b2:
 12377  5b4d  3a3d01            	LD A, (_printAdventureScreen_Ttmp889)
 12378                          ; peephole(1): r319 (XOR $FF)->(CPL)
 12379                          ;	XOR $FF
 12380  5b50  2f                	CPL
 12381  5b51  323d01            	LD (_printAdventureScreen_Ttmp889), A
 12382  5b54  3a3d01            	LD A, (_printAdventureScreen_Ttmp889)
 12383  5b57  feff              	CP $ff
 12384  5b59  ca9a5b            	JP Z, _label911empty
 12385  5b5c  3a4401            	LD A, (_printAdventureScreen_Ttmp910)
 12386  5b5f  47                	LD B, A
 12387  5b60  cd6501            	CALL DSFREE
 12388  5b63  3a3901            	LD A, (_printAdventureScreen_Ttmp884)
 12389  5b66  4f                	LD C, A
 12390  5b67  cd4e01            	CALL DSALLOC
 12391  5b6a  78                	LD A, B
 12392  5b6b  324401            	LD (_printAdventureScreen_Ttmp910), A
 12393  5b6e  3a4401            	LD A, (_printAdventureScreen_Ttmp910)
 12394  5b71  47                	LD B, A
 12395  5b72  cdaa02            	CALL DSDESCRIPTOR
 12396  5b75  dd7e00            	LD A, (IX)
 12397  5b78  323d01            	LD (_printAdventureScreen_Ttmp889), A
 12398  5b7b  dd7e01            	LD A, (IX+1)
 12399  5b7e  323b01            	LD (_printAdventureScreen_Ttmp888), A
 12400  5b81  dd7e02            	LD A, (IX+2)
 12401  5b84  323c01            	LD (_printAdventureScreen_Ttmp888+1), A
 12402  5b87  2a2f01            	LD HL, (_printAdventureScreen_Ttmp858)
 12403  5b8a  ed5b3b01          	LD DE, (_printAdventureScreen_Ttmp888)
 12404  5b8e  3a3901            	LD A, (_printAdventureScreen_Ttmp884)
 12405  5b91  4f                	LD C, A
 12406  5b92  0600              	LD B, 0
 12407  5b94  cdee02            	CALL DUFFDEVICE
 12408  5b97  c3ab5b            	jp _label911done
 12409                          _label911empty:
 12410  5b9a  3a4401            	LD A, (_printAdventureScreen_Ttmp910)
 12411  5b9d  47                	LD B, A
 12412  5b9e  cd6501            	CALL DSFREE
 12413  5ba1  3e00              	LD A, $00
 12414  5ba3  4f                	LD C, A
 12415  5ba4  cd4e01            	CALL DSALLOC
 12416  5ba7  78                	LD A, B
 12417  5ba8  324401            	LD (_printAdventureScreen_Ttmp910), A
 12418                          _label911done:
 12419  5bab  3a4401            	LD A, (_printAdventureScreen_Ttmp910)
 12420  5bae  47                	LD B, A
 12421  5baf  cdaa02            	CALL DSDESCRIPTOR
 12422  5bb2  dd7e00            	LD A, (IX)
 12423  5bb5  324101            	LD (_printAdventureScreen_Ttmp899), A
 12424  5bb8  dd7e01            	LD A, (IX+1)
 12425  5bbb  323f01            	LD (_printAdventureScreen_Ttmp898), A
 12426  5bbe  dd7e02            	LD A, (IX+2)
 12427  5bc1  324001            	LD (_printAdventureScreen_Ttmp898+1), A
 12428  5bc4  3a4101            	LD A, (_printAdventureScreen_Ttmp899)
 12429  5bc7  4f                	LD C, A
 12430  5bc8  0600              	LD B, 0
 12431  5bca  2a3f01            	LD HL, (_printAdventureScreen_Ttmp898)
 12432  5bcd  cda62c            	CALL TEXTAT
 12433  5bd0  3e00              	LD A, $00
 12434  5bd2  320d71            	LD (XCURSYS), A
 12435  5bd5  3a0e71            	LD A, (YCURSYS)
 12436  5bd8  3c                	INC A
 12437  5bd9  320e71            	LD (YCURSYS), A
 12438  5bdc  3a1b71            	LD A, (CURRENTTILESHEIGHT)
 12439  5bdf  47                	LD B, A
 12440  5be0  3a0e71            	LD A, (YCURSYS)
 12441  5be3  b8                	CP B
 12442  5be4  3807              	JR C, _label922
 12443                          ; peephole(1): r228 (LD A, 0)->(XOR A)
 12444                          ;	LD A, 0
 12445  5be6  af                	XOR A
 12446  5be7  323201            	LD (_printAdventureScreen_Ttmp862), A
 12447  5bea  c3f25b            	JMP _label922b2
 12448                          _label922:
 12449  5bed  3eff              	LD A, $ff
 12450  5bef  323201            	LD (_printAdventureScreen_Ttmp862), A
 12451                          _label922b2:
 12452  5bf2  3a3201            	LD A, (_printAdventureScreen_Ttmp862)
 12453                          ; peephole(1): r319 (XOR $FF)->(CPL)
 12454                          ;	XOR $FF
 12455  5bf5  2f                	CPL
 12456  5bf6  323201            	LD (_printAdventureScreen_Ttmp862), A
 12457  5bf9  3a3201            	LD A, (_printAdventureScreen_Ttmp862)
 12458  5bfc  fe00              	CP 0
 12459  5bfe  c2045c            	JP NZ, _label923
 12460  5c01  c3075c            	JMP _label923b2
 12461                          _label923:
 12462  5c04  c30a5c            	JMP _label920scroll
 12463                          _label923b2:
 12464  5c07  c31c5c            	jp _label920end
 12465                          _label920scroll:
 12466  5c0a  3ef8              	LD A, $f8
 12467  5c0c  cd0d28            	CALL VSCROLL
 12468  5c0f  3a1b71            	LD A, (CURRENTTILESHEIGHT)
 12469  5c12  320e71            	LD (YCURSYS), A
 12470  5c15  3a0e71            	LD A, (YCURSYS)
 12471  5c18  3d                	DEC A
 12472  5c19  320e71            	LD (YCURSYS), A
 12473                          _label920end:
 12474                          	; P:283
 12475                          	; L:273
 12476  5c1c  3e00              	LD A, $00
 12477  5c1e  321d01            	LD (_printAdventureScreen_Ttmp843), A
 12478                          ; peephole(1): r250 (LD A, x; LD (x), A; LD A, x)->(LD A, x; LD (x), A)
 12479                          ;	LD A, $00
 12480  5c21  321e01            	LD (_printAdventureScreen_Ttmp843+1), A
 12481  5c24  3e00              	LD A, $00
 12482  5c26  321f01            	LD (_printAdventureScreen_Ttmp844), A
 12483                          ; peephole(1): r250 (LD A, x; LD (x), A; LD A, x)->(LD A, x; LD (x), A)
 12484                          ;	LD A, $00
 12485  5c29  322001            	LD (_printAdventureScreen_Ttmp844+1), A
 12486  5c2c  3a8572            	LD A, (_xlocation)
 12487  5c2f  321f01            	LD (_printAdventureScreen_Ttmp844), A
 12488  5c32  2a1d01            	LD HL, (_printAdventureScreen_Ttmp843)
 12489  5c35  ed5b1f01          	LD DE, (_printAdventureScreen_Ttmp844)
 12490  5c39  19                	ADD HL, DE
 12491  5c3a  221d01            	LD (_printAdventureScreen_Ttmp843), HL
 12492  5c3d  3e03              	LD A, $03
 12493  5c3f  321b01            	LD (_printAdventureScreen_Ttmp842), A
 12494  5c42  3e00              	LD A, $00
 12495  5c44  321c01            	LD (_printAdventureScreen_Ttmp842+1), A
 12496                          ; peephole(1): r250 (LD A, x; LD (x), A; LD A, x)->(LD A, x; LD (x), A)
 12497                          ;	LD A, $00
 12498  5c47  322101            	LD (_printAdventureScreen_Ttmp846), A
 12499  5c4a  3e00              	LD A, $00
 12500  5c4c  322201            	LD (_printAdventureScreen_Ttmp846+1), A
 12501  5c4f  3a8672            	LD A, (_ylocation)
 12502  5c52  322101            	LD (_printAdventureScreen_Ttmp846), A
 12503  5c55  ed4b2101          	LD BC, (_printAdventureScreen_Ttmp846)
 12504  5c59  ed5b1b01          	LD DE, (_printAdventureScreen_Ttmp842)
 12505  5c5d  79                	LD A, C
 12506  5c5e  48                	LD C, B
 12507  5c5f  210000            	LD HL, 0
 12508  5c62  0610              	LD B, 16
 12509                          _label928:
 12510  5c64  29                	ADD HL, HL
 12511  5c65  17                	RLA
 12512  5c66  cb11              	RL C
 12513  5c68  3007              	JR NC,_label928b2
 12514  5c6a  19                	ADD HL, DE
 12515  5c6b  ce00              	ADC A, 0
 12516  5c6d  d2715c            	JP NC,_label928b2
 12517  5c70  0c                	INC C
 12518                          _label928b2:
 12519  5c71  10f1              	DJNZ _label928
 12520  5c73  41                	LD B, C
 12521  5c74  4f                	LD C, A
 12522  5c75  222301            	LD (_printAdventureScreen_Ttmp848), HL
 12523  5c78  ed432501          	LD (_printAdventureScreen_Ttmp848+2), BC
 12524  5c7c  3a2301            	LD A, (_printAdventureScreen_Ttmp848)
 12525  5c7f  322701            	LD (_printAdventureScreen_Ttmp850), A
 12526  5c82  3a2401            	LD A, (_printAdventureScreen_Ttmp848+1)
 12527  5c85  322801            	LD (_printAdventureScreen_Ttmp850+1), A
 12528  5c88  2a1d01            	LD HL, (_printAdventureScreen_Ttmp843)
 12529  5c8b  ed5b2701          	LD DE, (_printAdventureScreen_Ttmp850)
 12530  5c8f  19                	ADD HL, DE
 12531  5c90  221d01            	LD (_printAdventureScreen_Ttmp843), HL
 12532  5c93  e600              	AND $0
 12533  5c95  2a1d01            	LD HL, (_printAdventureScreen_Ttmp843)
 12534  5c98  117271            	LD DE, _exits
 12535  5c9b  19                	ADD HL, DE
 12536  5c9c  221d01            	LD (_printAdventureScreen_Ttmp843), HL
 12537  5c9f  ed5b1d01          	LD DE, (_printAdventureScreen_Ttmp843)
 12538  5ca3  1a                	LD A, (DE)
 12539  5ca4  324601            	LD (_printAdventureScreen_Ttmp929), A
 12540  5ca7  3a4601            	LD A, (_printAdventureScreen_Ttmp929)
 12541  5caa  47                	LD B, A
 12542  5cab  cdaa02            	CALL DSDESCRIPTOR
 12543  5cae  dd7e00            	LD A, (IX)
 12544  5cb1  322c01            	LD (_printAdventureScreen_Ttmp854), A
 12545  5cb4  dd7e01            	LD A, (IX+1)
 12546  5cb7  322a01            	LD (_printAdventureScreen_Ttmp853), A
 12547  5cba  dd7e02            	LD A, (IX+2)
 12548  5cbd  322b01            	LD (_printAdventureScreen_Ttmp853+1), A
 12549  5cc0  3a4501            	LD A, (_printAdventureScreen_Ttmp925)
 12550  5cc3  47                	LD B, A
 12551  5cc4  cd6501            	CALL DSFREE
 12552  5cc7  3a2c01            	LD A, (_printAdventureScreen_Ttmp854)
 12553  5cca  4f                	LD C, A
 12554  5ccb  cd4e01            	CALL DSALLOC
 12555  5cce  78                	LD A, B
 12556  5ccf  324501            	LD (_printAdventureScreen_Ttmp925), A
 12557  5cd2  3a4501            	LD A, (_printAdventureScreen_Ttmp925)
 12558  5cd5  47                	LD B, A
 12559  5cd6  cdaa02            	CALL DSDESCRIPTOR
 12560  5cd9  dd7e00            	LD A, (IX)
 12561                          ; peephole(3): unread
 12562                          ;	LD (_printAdventureScreen_Ttmp856), A
 12563  5cdc  dd7e01            	LD A, (IX+1)
 12564  5cdf  322d01            	LD (_printAdventureScreen_Ttmp855), A
 12565  5ce2  dd7e02            	LD A, (IX+2)
 12566  5ce5  322e01            	LD (_printAdventureScreen_Ttmp855+1), A
 12567  5ce8  2a2a01            	LD HL, (_printAdventureScreen_Ttmp853)
 12568  5ceb  ed5b2d01          	LD DE, (_printAdventureScreen_Ttmp855)
 12569  5cef  3a2c01            	LD A, (_printAdventureScreen_Ttmp854)
 12570  5cf2  4f                	LD C, A
 12571  5cf3  0600              	LD B, 0
 12572  5cf5  cdee02            	CALL DUFFDEVICE
 12573  5cf8  3e03              	LD A, $03
 12574  5cfa  323101            	LD (_printAdventureScreen_Ttmp859), A
 12575  5cfd  3e01              	LD A, $01
 12576  5cff  323701            	LD (_printAdventureScreen_Ttmp882), A
 12577  5d02  3a3101            	LD A, (_printAdventureScreen_Ttmp859)
 12578  5d05  fe00              	CP $00
 12579  5d07  ca1c5e            	JP Z, _label931empty
 12580  5d0a  3a4501            	LD A, (_printAdventureScreen_Ttmp925)
 12581  5d0d  47                	LD B, A
 12582  5d0e  cdaa02            	CALL DSDESCRIPTOR
 12583  5d11  dd7e00            	LD A, (IX)
 12584  5d14  323a01            	LD (_printAdventureScreen_Ttmp887), A
 12585  5d17  dd7e01            	LD A, (IX+1)
 12586  5d1a  322f01            	LD (_printAdventureScreen_Ttmp858), A
 12587  5d1d  dd7e02            	LD A, (IX+2)
 12588  5d20  323001            	LD (_printAdventureScreen_Ttmp858+1), A
 12589  5d23  3a3a01            	LD A, (_printAdventureScreen_Ttmp887)
 12590  5d26  47                	LD B, A
 12591  5d27  3a3101            	LD A, (_printAdventureScreen_Ttmp859)
 12592  5d2a  b8                	CP B
 12593  5d2b  3809              	JR C, _label933
 12594  5d2d  2807              	JR Z, _label933
 12595                          ; peephole(1): r228 (LD A, 0)->(XOR A)
 12596                          ;	LD A, 0
 12597  5d2f  af                	XOR A
 12598  5d30  323d01            	LD (_printAdventureScreen_Ttmp889), A
 12599  5d33  c33b5d            	JMP _label933b2
 12600                          _label933:
 12601  5d36  3eff              	LD A, $ff
 12602  5d38  323d01            	LD (_printAdventureScreen_Ttmp889), A
 12603                          _label933b2:
 12604  5d3b  3a3d01            	LD A, (_printAdventureScreen_Ttmp889)
 12605                          ; peephole(1): r319 (XOR $FF)->(CPL)
 12606                          ;	XOR $FF
 12607  5d3e  2f                	CPL
 12608  5d3f  323d01            	LD (_printAdventureScreen_Ttmp889), A
 12609  5d42  3a3d01            	LD A, (_printAdventureScreen_Ttmp889)
 12610  5d45  fe00              	CP $00
 12611  5d47  c21c5e            	JP NZ, _label931empty
 12612  5d4a  2a2f01            	LD HL, (_printAdventureScreen_Ttmp858)
 12613  5d4d  110000            	LD DE, 0
 12614  5d50  3a3101            	LD A, (_printAdventureScreen_Ttmp859)
 12615  5d53  5f                	LD E, A
 12616  5d54  19                	ADD HL, DE
 12617  5d55  222f01            	LD (_printAdventureScreen_Ttmp858), HL
 12618  5d58  2a2f01            	LD HL, (_printAdventureScreen_Ttmp858)
 12619  5d5b  2b                	DEC HL
 12620  5d5c  222f01            	LD (_printAdventureScreen_Ttmp858), HL
 12621  5d5f  3a3701            	LD A, (_printAdventureScreen_Ttmp882)
 12622  5d62  323901            	LD (_printAdventureScreen_Ttmp884), A
 12623                          ; peephole(1): r250 (LD A, x; LD (x), A; LD A, x)->(LD A, x; LD (x), A)
 12624                          ;	LD A, (_printAdventureScreen_Ttmp882)
 12625  5d65  323e01            	LD (_printAdventureScreen_Ttmp892), A
 12626  5d68  0600              	LD B, 0
 12627  5d6a  3a3101            	LD A, (_printAdventureScreen_Ttmp859)
 12628  5d6d  47                	LD B, A
 12629  5d6e  3a3e01            	LD A, (_printAdventureScreen_Ttmp892)
 12630  5d71  80                	ADD A, B
 12631  5d72  323e01            	LD (_printAdventureScreen_Ttmp892), A
 12632  5d75  3a3a01            	LD A, (_printAdventureScreen_Ttmp887)
 12633  5d78  47                	LD B, A
 12634  5d79  3a3e01            	LD A, (_printAdventureScreen_Ttmp892)
 12635  5d7c  b8                	CP B
 12636  5d7d  3809              	JR C, _label935
 12637  5d7f  2807              	JR Z, _label935
 12638                          ; peephole(1): r228 (LD A, 0)->(XOR A)
 12639                          ;	LD A, 0
 12640  5d81  af                	XOR A
 12641  5d82  323e01            	LD (_printAdventureScreen_Ttmp892), A
 12642  5d85  c38d5d            	JMP _label935b2
 12643                          _label935:
 12644  5d88  3eff              	LD A, $ff
 12645  5d8a  323e01            	LD (_printAdventureScreen_Ttmp892), A
 12646                          _label935b2:
 12647  5d8d  3a3e01            	LD A, (_printAdventureScreen_Ttmp892)
 12648                          ; peephole(1): r319 (XOR $FF)->(CPL)
 12649                          ;	XOR $FF
 12650  5d90  2f                	CPL
 12651  5d91  323e01            	LD (_printAdventureScreen_Ttmp892), A
 12652  5d94  3a3e01            	LD A, (_printAdventureScreen_Ttmp892)
 12653  5d97  fe00              	CP $00
 12654  5d99  cab75d            	JP Z, _label931unlim
 12655  5d9c  3a3a01            	LD A, (_printAdventureScreen_Ttmp887)
 12656  5d9f  323e01            	LD (_printAdventureScreen_Ttmp892), A
 12657  5da2  0600              	LD B, 0
 12658  5da4  3a3101            	LD A, (_printAdventureScreen_Ttmp859)
 12659  5da7  90                	SUB A, B
 12660  5da8  47                	LD B, A
 12661  5da9  3a3e01            	LD A, (_printAdventureScreen_Ttmp892)
 12662  5dac  90                	SUB A,B
 12663  5dad  323901            	LD (_printAdventureScreen_Ttmp884), A
 12664  5db0  3a3901            	LD A, (_printAdventureScreen_Ttmp884)
 12665  5db3  3c                	INC A
 12666  5db4  323901            	LD (_printAdventureScreen_Ttmp884), A
 12667                          _label931unlim:
 12668  5db7  3a3a01            	LD A, (_printAdventureScreen_Ttmp887)
 12669  5dba  47                	LD B, A
 12670  5dbb  3a3101            	LD A, (_printAdventureScreen_Ttmp859)
 12671  5dbe  b8                	CP B
 12672  5dbf  3809              	JR C, _label937
 12673  5dc1  2807              	JR Z, _label937
 12674                          ; peephole(1): r228 (LD A, 0)->(XOR A)
 12675                          ;	LD A, 0
 12676  5dc3  af                	XOR A
 12677  5dc4  323d01            	LD (_printAdventureScreen_Ttmp889), A
 12678  5dc7  c3cf5d            	JMP _label937b2
 12679                          _label937:
 12680  5dca  3eff              	LD A, $ff
 12681  5dcc  323d01            	LD (_printAdventureScreen_Ttmp889), A
 12682                          _label937b2:
 12683  5dcf  3a3d01            	LD A, (_printAdventureScreen_Ttmp889)
 12684                          ; peephole(1): r319 (XOR $FF)->(CPL)
 12685                          ;	XOR $FF
 12686  5dd2  2f                	CPL
 12687  5dd3  323d01            	LD (_printAdventureScreen_Ttmp889), A
 12688  5dd6  3a3d01            	LD A, (_printAdventureScreen_Ttmp889)
 12689  5dd9  feff              	CP $ff
 12690  5ddb  ca1c5e            	JP Z, _label931empty
 12691  5dde  3a4701            	LD A, (_printAdventureScreen_Ttmp930)
 12692  5de1  47                	LD B, A
 12693  5de2  cd6501            	CALL DSFREE
 12694  5de5  3a3901            	LD A, (_printAdventureScreen_Ttmp884)
 12695  5de8  4f                	LD C, A
 12696  5de9  cd4e01            	CALL DSALLOC
 12697  5dec  78                	LD A, B
 12698  5ded  324701            	LD (_printAdventureScreen_Ttmp930), A
 12699  5df0  3a4701            	LD A, (_printAdventureScreen_Ttmp930)
 12700  5df3  47                	LD B, A
 12701  5df4  cdaa02            	CALL DSDESCRIPTOR
 12702  5df7  dd7e00            	LD A, (IX)
 12703  5dfa  323d01            	LD (_printAdventureScreen_Ttmp889), A
 12704  5dfd  dd7e01            	LD A, (IX+1)
 12705  5e00  323b01            	LD (_printAdventureScreen_Ttmp888), A
 12706  5e03  dd7e02            	LD A, (IX+2)
 12707  5e06  323c01            	LD (_printAdventureScreen_Ttmp888+1), A
 12708  5e09  2a2f01            	LD HL, (_printAdventureScreen_Ttmp858)
 12709  5e0c  ed5b3b01          	LD DE, (_printAdventureScreen_Ttmp888)
 12710  5e10  3a3901            	LD A, (_printAdventureScreen_Ttmp884)
 12711  5e13  4f                	LD C, A
 12712  5e14  0600              	LD B, 0
 12713  5e16  cdee02            	CALL DUFFDEVICE
 12714  5e19  c32d5e            	jp _label931done
 12715                          _label931empty:
 12716  5e1c  3a4701            	LD A, (_printAdventureScreen_Ttmp930)
 12717  5e1f  47                	LD B, A
 12718  5e20  cd6501            	CALL DSFREE
 12719  5e23  3e00              	LD A, $00
 12720  5e25  4f                	LD C, A
 12721  5e26  cd4e01            	CALL DSALLOC
 12722  5e29  78                	LD A, B
 12723  5e2a  324701            	LD (_printAdventureScreen_Ttmp930), A
 12724                          _label931done:
 12725  5e2d  3a4701            	LD A, (_printAdventureScreen_Ttmp930)
 12726  5e30  47                	LD B, A
 12727  5e31  cdaa02            	CALL DSDESCRIPTOR
 12728  5e34  dd7e00            	LD A, (IX)
 12729  5e37  324101            	LD (_printAdventureScreen_Ttmp899), A
 12730  5e3a  dd7e01            	LD A, (IX+1)
 12731  5e3d  323f01            	LD (_printAdventureScreen_Ttmp898), A
 12732  5e40  dd7e02            	LD A, (IX+2)
 12733  5e43  324001            	LD (_printAdventureScreen_Ttmp898+1), A
 12734  5e46  3a4101            	LD A, (_printAdventureScreen_Ttmp899)
 12735  5e49  4f                	LD C, A
 12736  5e4a  0600              	LD B, 0
 12737  5e4c  2a3f01            	LD HL, (_printAdventureScreen_Ttmp898)
 12738  5e4f  cda62c            	CALL TEXTAT
 12739  5e52  3e00              	LD A, $00
 12740  5e54  320d71            	LD (XCURSYS), A
 12741  5e57  3a0e71            	LD A, (YCURSYS)
 12742  5e5a  3c                	INC A
 12743  5e5b  320e71            	LD (YCURSYS), A
 12744  5e5e  3a1b71            	LD A, (CURRENTTILESHEIGHT)
 12745  5e61  47                	LD B, A
 12746  5e62  3a0e71            	LD A, (YCURSYS)
 12747  5e65  b8                	CP B
 12748  5e66  3807              	JR C, _label942
 12749                          ; peephole(1): r228 (LD A, 0)->(XOR A)
 12750                          ;	LD A, 0
 12751  5e68  af                	XOR A
 12752  5e69  323201            	LD (_printAdventureScreen_Ttmp862), A
 12753  5e6c  c3745e            	JMP _label942b2
 12754                          _label942:
 12755  5e6f  3eff              	LD A, $ff
 12756  5e71  323201            	LD (_printAdventureScreen_Ttmp862), A
 12757                          _label942b2:
 12758  5e74  3a3201            	LD A, (_printAdventureScreen_Ttmp862)
 12759                          ; peephole(1): r319 (XOR $FF)->(CPL)
 12760                          ;	XOR $FF
 12761  5e77  2f                	CPL
 12762  5e78  323201            	LD (_printAdventureScreen_Ttmp862), A
 12763  5e7b  3a3201            	LD A, (_printAdventureScreen_Ttmp862)
 12764  5e7e  fe00              	CP 0
 12765  5e80  c2865e            	JP NZ, _label943
 12766  5e83  c3895e            	JMP _label943b2
 12767                          _label943:
 12768  5e86  c38c5e            	JMP _label940scroll
 12769                          _label943b2:
 12770  5e89  c39e5e            	jp _label940end
 12771                          _label940scroll:
 12772  5e8c  3ef8              	LD A, $f8
 12773  5e8e  cd0d28            	CALL VSCROLL
 12774  5e91  3a1b71            	LD A, (CURRENTTILESHEIGHT)
 12775  5e94  320e71            	LD (YCURSYS), A
 12776  5e97  3a0e71            	LD A, (YCURSYS)
 12777  5e9a  3d                	DEC A
 12778  5e9b  320e71            	LD (YCURSYS), A
 12779                          _label940end:
 12780                          	; P:283
 12781                          	; L:274
 12782                          	; P:0
 12783                          	; L:275
 12784  5e9e  3e00              	LD A, $00
 12785  5ea0  321701            	LD (_printAdventureScreen_Ttmp836), A
 12786  5ea3  3e03              	LD A, $03
 12787  5ea5  321801            	LD (_printAdventureScreen_Ttmp837), A
 12788                          	; _TRtmp944 <-> (step 1) (resident)
 12789                          	; _TRtmp945 <-> (resident to) (resident)
 12790                          	 ; variable_move_8bit_8bit
 12791                          	 ; 8 BIT (unsigned) -> 8 BIT (unsigned)
 12792  5ea8  3a1801            	LD A, (_printAdventureScreen_Ttmp837)
 12793  5eab  327f01            	LD (_TRtmp945), A
 12794  5eae  3e01              	LD A, $01
 12795  5eb0  327e01            	LD (_TRtmp944), A
 12796                          	 ; variable_move_8bit_8bit
 12797                          	 ; 8 BIT (unsigned) -> 8 BIT (unsigned)
 12798  5eb3  3a1701            	LD A, (_printAdventureScreen_Ttmp836)
 12799  5eb6  32b572            	LD (_printAdventureScreen_c), A
 12800                          _label946bf:
 12801  5eb9  3a7f01            	LD A, (_TRtmp945)
 12802  5ebc  47                	LD B, A
 12803  5ebd  3ab572            	LD A, (_printAdventureScreen_c)
 12804  5ec0  b8                	CP B
 12805  5ec1  3809              	JR C, _label948
 12806  5ec3  2807              	JR Z, _label948
 12807                          ; peephole(1): r228 (LD A, 0)->(XOR A)
 12808                          ;	LD A, 0
 12809  5ec5  af                	XOR A
 12810  5ec6  323201            	LD (_printAdventureScreen_Ttmp862), A
 12811  5ec9  c3d15e            	JMP _label948b2
 12812                          _label948:
 12813  5ecc  3eff              	LD A, $ff
 12814  5ece  323201            	LD (_printAdventureScreen_Ttmp862), A
 12815                          _label948b2:
 12816  5ed1  3a3201            	LD A, (_printAdventureScreen_Ttmp862)
 12817                          ; peephole(1): r319 (XOR $FF)->(CPL)
 12818                          ;	XOR $FF
 12819  5ed4  2f                	CPL
 12820  5ed5  323201            	LD (_printAdventureScreen_Ttmp862), A
 12821  5ed8  3a3201            	LD A, (_printAdventureScreen_Ttmp862)
 12822  5edb  fe00              	CP 0
 12823  5edd  c2e35e            	JP NZ, _label949
 12824  5ee0  c3e65e            	JMP _label949b2
 12825                          _label949:
 12826  5ee3  c3c66c            	JMP _label946bis
 12827                          _label949b2:
 12828                          	; P:34
 12829                          	; L:276
 12830                          	; P:0
 12831                          	; L:277
 12832  5ee6  3e00              	LD A, $00
 12833  5ee8  321d01            	LD (_printAdventureScreen_Ttmp843), A
 12834                          ; peephole(1): r250 (LD A, x; LD (x), A; LD A, x)->(LD A, x; LD (x), A)
 12835                          ;	LD A, $00
 12836  5eeb  321e01            	LD (_printAdventureScreen_Ttmp843+1), A
 12837  5eee  3e00              	LD A, $00
 12838  5ef0  321f01            	LD (_printAdventureScreen_Ttmp844), A
 12839                          ; peephole(1): r250 (LD A, x; LD (x), A; LD A, x)->(LD A, x; LD (x), A)
 12840                          ;	LD A, $00
 12841  5ef3  322001            	LD (_printAdventureScreen_Ttmp844+1), A
 12842  5ef6  3a8572            	LD A, (_xlocation)
 12843  5ef9  321f01            	LD (_printAdventureScreen_Ttmp844), A
 12844  5efc  2a1d01            	LD HL, (_printAdventureScreen_Ttmp843)
 12845  5eff  ed5b1f01          	LD DE, (_printAdventureScreen_Ttmp844)
 12846  5f03  19                	ADD HL, DE
 12847  5f04  221d01            	LD (_printAdventureScreen_Ttmp843), HL
 12848  5f07  3e03              	LD A, $03
 12849  5f09  321b01            	LD (_printAdventureScreen_Ttmp842), A
 12850  5f0c  3e00              	LD A, $00
 12851  5f0e  321c01            	LD (_printAdventureScreen_Ttmp842+1), A
 12852                          ; peephole(1): r250 (LD A, x; LD (x), A; LD A, x)->(LD A, x; LD (x), A)
 12853                          ;	LD A, $00
 12854  5f11  322101            	LD (_printAdventureScreen_Ttmp846), A
 12855  5f14  3e00              	LD A, $00
 12856  5f16  322201            	LD (_printAdventureScreen_Ttmp846+1), A
 12857  5f19  3a8672            	LD A, (_ylocation)
 12858  5f1c  322101            	LD (_printAdventureScreen_Ttmp846), A
 12859  5f1f  ed4b2101          	LD BC, (_printAdventureScreen_Ttmp846)
 12860  5f23  ed5b1b01          	LD DE, (_printAdventureScreen_Ttmp842)
 12861  5f27  79                	LD A, C
 12862  5f28  48                	LD C, B
 12863  5f29  210000            	LD HL, 0
 12864  5f2c  0610              	LD B, 16
 12865                          _label954:
 12866  5f2e  29                	ADD HL, HL
 12867  5f2f  17                	RLA
 12868  5f30  cb11              	RL C
 12869  5f32  3007              	JR NC,_label954b2
 12870  5f34  19                	ADD HL, DE
 12871  5f35  ce00              	ADC A, 0
 12872  5f37  d23b5f            	JP NC,_label954b2
 12873  5f3a  0c                	INC C
 12874                          _label954b2:
 12875  5f3b  10f1              	DJNZ _label954
 12876  5f3d  41                	LD B, C
 12877  5f3e  4f                	LD C, A
 12878  5f3f  222301            	LD (_printAdventureScreen_Ttmp848), HL
 12879  5f42  ed432501          	LD (_printAdventureScreen_Ttmp848+2), BC
 12880  5f46  3a2301            	LD A, (_printAdventureScreen_Ttmp848)
 12881  5f49  322701            	LD (_printAdventureScreen_Ttmp850), A
 12882  5f4c  3a2401            	LD A, (_printAdventureScreen_Ttmp848+1)
 12883  5f4f  322801            	LD (_printAdventureScreen_Ttmp850+1), A
 12884  5f52  2a1d01            	LD HL, (_printAdventureScreen_Ttmp843)
 12885  5f55  ed5b2701          	LD DE, (_printAdventureScreen_Ttmp850)
 12886  5f59  19                	ADD HL, DE
 12887  5f5a  221d01            	LD (_printAdventureScreen_Ttmp843), HL
 12888  5f5d  e600              	AND $0
 12889  5f5f  2a1d01            	LD HL, (_printAdventureScreen_Ttmp843)
 12890  5f62  117271            	LD DE, _exits
 12891  5f65  19                	ADD HL, DE
 12892  5f66  221d01            	LD (_printAdventureScreen_Ttmp843), HL
 12893  5f69  ed5b1d01          	LD DE, (_printAdventureScreen_Ttmp843)
 12894  5f6d  1a                	LD A, (DE)
 12895  5f6e  324901            	LD (_printAdventureScreen_Ttmp955), A
 12896  5f71  3a4901            	LD A, (_printAdventureScreen_Ttmp955)
 12897  5f74  47                	LD B, A
 12898  5f75  cdaa02            	CALL DSDESCRIPTOR
 12899  5f78  dd7e00            	LD A, (IX)
 12900  5f7b  322c01            	LD (_printAdventureScreen_Ttmp854), A
 12901  5f7e  dd7e01            	LD A, (IX+1)
 12902  5f81  322a01            	LD (_printAdventureScreen_Ttmp853), A
 12903  5f84  dd7e02            	LD A, (IX+2)
 12904  5f87  322b01            	LD (_printAdventureScreen_Ttmp853+1), A
 12905  5f8a  3a4801            	LD A, (_printAdventureScreen_Ttmp951)
 12906  5f8d  47                	LD B, A
 12907  5f8e  cd6501            	CALL DSFREE
 12908  5f91  3a2c01            	LD A, (_printAdventureScreen_Ttmp854)
 12909  5f94  4f                	LD C, A
 12910  5f95  cd4e01            	CALL DSALLOC
 12911  5f98  78                	LD A, B
 12912  5f99  324801            	LD (_printAdventureScreen_Ttmp951), A
 12913  5f9c  3a4801            	LD A, (_printAdventureScreen_Ttmp951)
 12914  5f9f  47                	LD B, A
 12915  5fa0  cdaa02            	CALL DSDESCRIPTOR
 12916  5fa3  dd7e00            	LD A, (IX)
 12917                          ; peephole(3): unread
 12918                          ;	LD (_printAdventureScreen_Ttmp856), A
 12919  5fa6  dd7e01            	LD A, (IX+1)
 12920  5fa9  322d01            	LD (_printAdventureScreen_Ttmp855), A
 12921  5fac  dd7e02            	LD A, (IX+2)
 12922  5faf  322e01            	LD (_printAdventureScreen_Ttmp855+1), A
 12923  5fb2  2a2a01            	LD HL, (_printAdventureScreen_Ttmp853)
 12924  5fb5  ed5b2d01          	LD DE, (_printAdventureScreen_Ttmp855)
 12925  5fb9  3a2c01            	LD A, (_printAdventureScreen_Ttmp854)
 12926  5fbc  4f                	LD C, A
 12927  5fbd  0600              	LD B, 0
 12928  5fbf  cdee02            	CALL DUFFDEVICE
 12929  5fc2  3e01              	LD A, $01
 12930  5fc4  323101            	LD (_printAdventureScreen_Ttmp859), A
 12931  5fc7  3ab572            	LD A, (_printAdventureScreen_c)
 12932  5fca  fe00              	CP $00
 12933  5fcc  cae160            	JP Z, _label957empty
 12934  5fcf  3a4801            	LD A, (_printAdventureScreen_Ttmp951)
 12935  5fd2  47                	LD B, A
 12936  5fd3  cdaa02            	CALL DSDESCRIPTOR
 12937  5fd6  dd7e00            	LD A, (IX)
 12938  5fd9  323901            	LD (_printAdventureScreen_Ttmp884), A
 12939  5fdc  dd7e01            	LD A, (IX+1)
 12940  5fdf  322f01            	LD (_printAdventureScreen_Ttmp858), A
 12941  5fe2  dd7e02            	LD A, (IX+2)
 12942  5fe5  323001            	LD (_printAdventureScreen_Ttmp858+1), A
 12943  5fe8  3a3901            	LD A, (_printAdventureScreen_Ttmp884)
 12944  5feb  47                	LD B, A
 12945  5fec  3ab572            	LD A, (_printAdventureScreen_c)
 12946  5fef  b8                	CP B
 12947  5ff0  3809              	JR C, _label959
 12948  5ff2  2807              	JR Z, _label959
 12949                          ; peephole(1): r228 (LD A, 0)->(XOR A)
 12950                          ;	LD A, 0
 12951  5ff4  af                	XOR A
 12952  5ff5  323a01            	LD (_printAdventureScreen_Ttmp887), A
 12953  5ff8  c30060            	JMP _label959b2
 12954                          _label959:
 12955  5ffb  3eff              	LD A, $ff
 12956  5ffd  323a01            	LD (_printAdventureScreen_Ttmp887), A
 12957                          _label959b2:
 12958  6000  3a3a01            	LD A, (_printAdventureScreen_Ttmp887)
 12959                          ; peephole(1): r319 (XOR $FF)->(CPL)
 12960                          ;	XOR $FF
 12961  6003  2f                	CPL
 12962  6004  323a01            	LD (_printAdventureScreen_Ttmp887), A
 12963  6007  3a3a01            	LD A, (_printAdventureScreen_Ttmp887)
 12964  600a  fe00              	CP $00
 12965  600c  c2e160            	JP NZ, _label957empty
 12966  600f  2a2f01            	LD HL, (_printAdventureScreen_Ttmp858)
 12967  6012  110000            	LD DE, 0
 12968  6015  3ab572            	LD A, (_printAdventureScreen_c)
 12969  6018  5f                	LD E, A
 12970  6019  19                	ADD HL, DE
 12971  601a  222f01            	LD (_printAdventureScreen_Ttmp858), HL
 12972  601d  2a2f01            	LD HL, (_printAdventureScreen_Ttmp858)
 12973  6020  2b                	DEC HL
 12974  6021  222f01            	LD (_printAdventureScreen_Ttmp858), HL
 12975  6024  3a3101            	LD A, (_printAdventureScreen_Ttmp859)
 12976  6027  323701            	LD (_printAdventureScreen_Ttmp882), A
 12977                          ; peephole(1): r250 (LD A, x; LD (x), A; LD A, x)->(LD A, x; LD (x), A)
 12978                          ;	LD A, (_printAdventureScreen_Ttmp859)
 12979  602a  323d01            	LD (_printAdventureScreen_Ttmp889), A
 12980  602d  0600              	LD B, 0
 12981  602f  3ab572            	LD A, (_printAdventureScreen_c)
 12982  6032  47                	LD B, A
 12983  6033  3a3d01            	LD A, (_printAdventureScreen_Ttmp889)
 12984  6036  80                	ADD A, B
 12985  6037  323d01            	LD (_printAdventureScreen_Ttmp889), A
 12986  603a  3a3901            	LD A, (_printAdventureScreen_Ttmp884)
 12987  603d  47                	LD B, A
 12988  603e  3a3d01            	LD A, (_printAdventureScreen_Ttmp889)
 12989  6041  b8                	CP B
 12990  6042  3809              	JR C, _label961
 12991  6044  2807              	JR Z, _label961
 12992                          ; peephole(1): r228 (LD A, 0)->(XOR A)
 12993                          ;	LD A, 0
 12994  6046  af                	XOR A
 12995  6047  323d01            	LD (_printAdventureScreen_Ttmp889), A
 12996  604a  c35260            	JMP _label961b2
 12997                          _label961:
 12998  604d  3eff              	LD A, $ff
 12999  604f  323d01            	LD (_printAdventureScreen_Ttmp889), A
 13000                          _label961b2:
 13001  6052  3a3d01            	LD A, (_printAdventureScreen_Ttmp889)
 13002                          ; peephole(1): r319 (XOR $FF)->(CPL)
 13003                          ;	XOR $FF
 13004  6055  2f                	CPL
 13005  6056  323d01            	LD (_printAdventureScreen_Ttmp889), A
 13006  6059  3a3d01            	LD A, (_printAdventureScreen_Ttmp889)
 13007  605c  fe00              	CP $00
 13008  605e  ca7c60            	JP Z, _label957unlim
 13009  6061  3a3901            	LD A, (_printAdventureScreen_Ttmp884)
 13010  6064  323d01            	LD (_printAdventureScreen_Ttmp889), A
 13011  6067  0600              	LD B, 0
 13012  6069  3ab572            	LD A, (_printAdventureScreen_c)
 13013  606c  90                	SUB A, B
 13014  606d  47                	LD B, A
 13015  606e  3a3d01            	LD A, (_printAdventureScreen_Ttmp889)
 13016  6071  90                	SUB A,B
 13017  6072  323701            	LD (_printAdventureScreen_Ttmp882), A
 13018  6075  3a3701            	LD A, (_printAdventureScreen_Ttmp882)
 13019  6078  3c                	INC A
 13020  6079  323701            	LD (_printAdventureScreen_Ttmp882), A
 13021                          _label957unlim:
 13022  607c  3a3901            	LD A, (_printAdventureScreen_Ttmp884)
 13023  607f  47                	LD B, A
 13024  6080  3ab572            	LD A, (_printAdventureScreen_c)
 13025  6083  b8                	CP B
 13026  6084  3809              	JR C, _label963
 13027  6086  2807              	JR Z, _label963
 13028                          ; peephole(1): r228 (LD A, 0)->(XOR A)
 13029                          ;	LD A, 0
 13030  6088  af                	XOR A
 13031  6089  323a01            	LD (_printAdventureScreen_Ttmp887), A
 13032  608c  c39460            	JMP _label963b2
 13033                          _label963:
 13034  608f  3eff              	LD A, $ff
 13035  6091  323a01            	LD (_printAdventureScreen_Ttmp887), A
 13036                          _label963b2:
 13037  6094  3a3a01            	LD A, (_printAdventureScreen_Ttmp887)
 13038                          ; peephole(1): r319 (XOR $FF)->(CPL)
 13039                          ;	XOR $FF
 13040  6097  2f                	CPL
 13041  6098  323a01            	LD (_printAdventureScreen_Ttmp887), A
 13042  609b  3a3a01            	LD A, (_printAdventureScreen_Ttmp887)
 13043  609e  feff              	CP $ff
 13044  60a0  cae160            	JP Z, _label957empty
 13045  60a3  3a4a01            	LD A, (_printAdventureScreen_Ttmp956)
 13046  60a6  47                	LD B, A
 13047  60a7  cd6501            	CALL DSFREE
 13048  60aa  3a3701            	LD A, (_printAdventureScreen_Ttmp882)
 13049  60ad  4f                	LD C, A
 13050  60ae  cd4e01            	CALL DSALLOC
 13051  60b1  78                	LD A, B
 13052  60b2  324a01            	LD (_printAdventureScreen_Ttmp956), A
 13053  60b5  3a4a01            	LD A, (_printAdventureScreen_Ttmp956)
 13054  60b8  47                	LD B, A
 13055  60b9  cdaa02            	CALL DSDESCRIPTOR
 13056  60bc  dd7e00            	LD A, (IX)
 13057  60bf  323a01            	LD (_printAdventureScreen_Ttmp887), A
 13058  60c2  dd7e01            	LD A, (IX+1)
 13059  60c5  323b01            	LD (_printAdventureScreen_Ttmp888), A
 13060  60c8  dd7e02            	LD A, (IX+2)
 13061  60cb  323c01            	LD (_printAdventureScreen_Ttmp888+1), A
 13062  60ce  2a2f01            	LD HL, (_printAdventureScreen_Ttmp858)
 13063  60d1  ed5b3b01          	LD DE, (_printAdventureScreen_Ttmp888)
 13064  60d5  3a3701            	LD A, (_printAdventureScreen_Ttmp882)
 13065  60d8  4f                	LD C, A
 13066  60d9  0600              	LD B, 0
 13067  60db  cdee02            	CALL DUFFDEVICE
 13068  60de  c3f260            	jp _label957done
 13069                          _label957empty:
 13070  60e1  3a4a01            	LD A, (_printAdventureScreen_Ttmp956)
 13071  60e4  47                	LD B, A
 13072  60e5  cd6501            	CALL DSFREE
 13073  60e8  3e00              	LD A, $00
 13074  60ea  4f                	LD C, A
 13075  60eb  cd4e01            	CALL DSALLOC
 13076  60ee  78                	LD A, B
 13077  60ef  324a01            	LD (_printAdventureScreen_Ttmp956), A
 13078                          _label957done:
 13079  60f2  3a0000            	LD A, (_printAdventureScreen_Tstr965)
 13080  60f5  324101            	LD (_printAdventureScreen_Ttmp899), A
 13081  60f8  3a4a01            	LD A, (_printAdventureScreen_Ttmp956)
 13082  60fb  47                	LD B, A
 13083  60fc  cdaa02            	CALL DSDESCRIPTOR
 13084  60ff  dd7e00            	LD A, (IX)
 13085  6102  323e01            	LD (_printAdventureScreen_Ttmp892), A
 13086  6105  dd7e01            	LD A, (IX+1)
 13087  6108  323f01            	LD (_printAdventureScreen_Ttmp898), A
 13088  610b  dd7e02            	LD A, (IX+2)
 13089  610e  324001            	LD (_printAdventureScreen_Ttmp898+1), A
 13090  6111  3a3e01            	LD A, (_printAdventureScreen_Ttmp892)
 13091  6114  47                	LD B, A
 13092  6115  3a4101            	LD A, (_printAdventureScreen_Ttmp899)
 13093  6118  b8                	CP B
 13094  6119  c22461            	JP NZ, _label968
 13095  611c  3eff              	LD A, $ff
 13096  611e  323201            	LD (_printAdventureScreen_Ttmp862), A
 13097  6121  c32961            	JMP _label968b2
 13098                          _label968:
 13099  6124  3e00              	LD A, $00
 13100  6126  323201            	LD (_printAdventureScreen_Ttmp862), A
 13101                          _label968b2:
 13102  6129  3a3201            	LD A, (_printAdventureScreen_Ttmp862)
 13103  612c  fe00              	CP 0
 13104  612e  ca3461            	JP Z, _label969
 13105  6131  c33761            	JMP _label969b2
 13106                          _label969:
 13107  6134  c36b61            	JMP _label966
 13108                          _label969b2:
 13109  6137  210000            	LD HL, _printAdventureScreen_Tstr965
 13110  613a  224b01            	LD (_printAdventureScreen_Ttmp967), HL
 13111  613d  2a4b01            	LD HL, (_printAdventureScreen_Ttmp967)
 13112  6140  23                	INC HL
 13113  6141  224b01            	LD (_printAdventureScreen_Ttmp967), HL
 13114  6144  3a3e01            	LD A, (_printAdventureScreen_Ttmp892)
 13115  6147  fe00              	CP 0
 13116  6149  2813              	JR Z, _label970equal
 13117  614b  4f                	LD C, A
 13118  614c  2a3f01            	LD HL, (_printAdventureScreen_Ttmp898)
 13119  614f  ed5b4b01          	LD DE, (_printAdventureScreen_Ttmp967)
 13120                          _label970:
 13121  6153  7e                	LD A, (HL)
 13122  6154  47                	LD B, A
 13123  6155  1a                	LD A, (DE)
 13124  6156  b8                	CP B
 13125  6157  200d              	JR NZ, _label970diff
 13126  6159  13                	INC DE
 13127  615a  23                	INC HL
 13128  615b  0d                	DEC C
 13129  615c  20f5              	JR NZ, _label970
 13130                          _label970equal:
 13131  615e  3eff              	LD A, $ff
 13132  6160  323201            	LD (_printAdventureScreen_Ttmp862), A
 13133  6163  c36b61            	JMP _label970final
 13134                          _label970diff:
 13135  6166  3e00              	LD A, $00
 13136  6168  323201            	LD (_printAdventureScreen_Ttmp862), A
 13137                          _label970final:
 13138                          _label966:
 13139  616b  3a3201            	LD A, (_printAdventureScreen_Ttmp862)
 13140  616e  fe00              	CP 0
 13141  6170  ca7661            	JP Z, _label972
 13142  6173  c37961            	JMP _label972b2
 13143                          _label972:
 13144  6176  c36d62            	JMP _label971e0
 13145                          _label972b2:
 13146                          _label971t:
 13147                          	; P:298
 13148                          	; L:278
 13149  6179  3e01              	LD A, $01
 13150  617b  321701            	LD (_printAdventureScreen_Ttmp836), A
 13151  617e  3e00              	LD A, $00
 13152  6180  321d01            	LD (_printAdventureScreen_Ttmp843), A
 13153                          ; peephole(1): r250 (LD A, x; LD (x), A; LD A, x)->(LD A, x; LD (x), A)
 13154                          ;	LD A, $00
 13155  6183  321e01            	LD (_printAdventureScreen_Ttmp843+1), A
 13156  6186  3e00              	LD A, $00
 13157  6188  321f01            	LD (_printAdventureScreen_Ttmp844), A
 13158                          ; peephole(1): r250 (LD A, x; LD (x), A; LD A, x)->(LD A, x; LD (x), A)
 13159                          ;	LD A, $00
 13160  618b  322001            	LD (_printAdventureScreen_Ttmp844+1), A
 13161  618e  3a1701            	LD A, (_printAdventureScreen_Ttmp836)
 13162  6191  321f01            	LD (_printAdventureScreen_Ttmp844), A
 13163  6194  2a1d01            	LD HL, (_printAdventureScreen_Ttmp843)
 13164  6197  ed5b1f01          	LD DE, (_printAdventureScreen_Ttmp844)
 13165  619b  19                	ADD HL, DE
 13166  619c  221d01            	LD (_printAdventureScreen_Ttmp843), HL
 13167  619f  e600              	AND $0
 13168  61a1  2a1d01            	LD HL, (_printAdventureScreen_Ttmp843)
 13169  61a4  115871            	LD DE, _options
 13170  61a7  19                	ADD HL, DE
 13171  61a8  221d01            	LD (_printAdventureScreen_Ttmp843), HL
 13172  61ab  ed5b1d01          	LD DE, (_printAdventureScreen_Ttmp843)
 13173  61af  1a                	LD A, (DE)
 13174  61b0  324d01            	LD (_printAdventureScreen_Ttmp976), A
 13175  61b3  3a0000            	LD A, (_printAdventureScreen_Tstr973)
 13176  61b6  321901            	LD (_printAdventureScreen_Ttmp839), A
 13177  61b9  210000            	LD HL, _printAdventureScreen_Tstr973
 13178  61bc  222a01            	LD (_printAdventureScreen_Ttmp853), HL
 13179  61bf  2a2a01            	LD HL, (_printAdventureScreen_Ttmp853)
 13180  61c2  23                	INC HL
 13181  61c3  222a01            	LD (_printAdventureScreen_Ttmp853), HL
 13182  61c6  3a4d01            	LD A, (_printAdventureScreen_Ttmp976)
 13183  61c9  47                	LD B, A
 13184  61ca  cd6501            	CALL DSFREE
 13185  61cd  3a1901            	LD A, (_printAdventureScreen_Ttmp839)
 13186  61d0  4f                	LD C, A
 13187  61d1  cd4e01            	CALL DSALLOC
 13188  61d4  78                	LD A, B
 13189  61d5  324d01            	LD (_printAdventureScreen_Ttmp976), A
 13190  61d8  3a4d01            	LD A, (_printAdventureScreen_Ttmp976)
 13191  61db  47                	LD B, A
 13192  61dc  cdaa02            	CALL DSDESCRIPTOR
 13193  61df  dd7e00            	LD A, (IX)
 13194                          ; peephole(3): unread
 13195                          ;	LD (_printAdventureScreen_Ttmp851), A
 13196  61e2  dd7e01            	LD A, (IX+1)
 13197  61e5  322d01            	LD (_printAdventureScreen_Ttmp855), A
 13198  61e8  dd7e02            	LD A, (IX+2)
 13199  61eb  322e01            	LD (_printAdventureScreen_Ttmp855+1), A
 13200  61ee  2a2a01            	LD HL, (_printAdventureScreen_Ttmp853)
 13201  61f1  ed5b2d01          	LD DE, (_printAdventureScreen_Ttmp855)
 13202  61f5  3a1901            	LD A, (_printAdventureScreen_Ttmp839)
 13203  61f8  4f                	LD C, A
 13204  61f9  0600              	LD B, 0
 13205  61fb  cdee02            	CALL DUFFDEVICE
 13206  61fe  ed5b1d01          	LD DE, (_printAdventureScreen_Ttmp843)
 13207  6202  3a4d01            	LD A, (_printAdventureScreen_Ttmp976)
 13208  6205  12                	LD (DE), A
 13209  6206  3e00              	LD A, $00
 13210  6208  324d01            	LD (_printAdventureScreen_Ttmp976), A
 13211                          	; L:278
 13212  620b  3e01              	LD A, $01
 13213  620d  321701            	LD (_printAdventureScreen_Ttmp836), A
 13214                          ; peephole(1): r250 (LD A, x; LD (x), A; LD A, x)->(LD A, x; LD (x), A)
 13215                          ;	LD A, $01
 13216  6210  321801            	LD (_printAdventureScreen_Ttmp837), A
 13217  6213  3e00              	LD A, $00
 13218  6215  321b01            	LD (_printAdventureScreen_Ttmp842), A
 13219                          ; peephole(1): r250 (LD A, x; LD (x), A; LD A, x)->(LD A, x; LD (x), A)
 13220                          ;	LD A, $00
 13221  6218  321c01            	LD (_printAdventureScreen_Ttmp842+1), A
 13222  621b  3a1801            	LD A, (_printAdventureScreen_Ttmp837)
 13223  621e  321b01            	LD (_printAdventureScreen_Ttmp842), A
 13224  6221  3e00              	LD A, $00
 13225  6223  321f01            	LD (_printAdventureScreen_Ttmp844), A
 13226                          ; peephole(1): r250 (LD A, x; LD (x), A; LD A, x)->(LD A, x; LD (x), A)
 13227                          ;	LD A, $00
 13228  6226  322001            	LD (_printAdventureScreen_Ttmp844+1), A
 13229  6229  3e00              	LD A, $00
 13230  622b  322101            	LD (_printAdventureScreen_Ttmp846), A
 13231                          ; peephole(1): r250 (LD A, x; LD (x), A; LD A, x)->(LD A, x; LD (x), A)
 13232                          ;	LD A, $00
 13233  622e  322201            	LD (_printAdventureScreen_Ttmp846+1), A
 13234  6231  3a1701            	LD A, (_printAdventureScreen_Ttmp836)
 13235  6234  322101            	LD (_printAdventureScreen_Ttmp846), A
 13236  6237  2a1f01            	LD HL, (_printAdventureScreen_Ttmp844)
 13237  623a  ed5b2101          	LD DE, (_printAdventureScreen_Ttmp846)
 13238  623e  19                	ADD HL, DE
 13239  623f  221f01            	LD (_printAdventureScreen_Ttmp844), HL
 13240  6242  3a1f01            	LD A, (_printAdventureScreen_Ttmp844)
 13241  6245  322701            	LD (_printAdventureScreen_Ttmp850), A
 13242  6248  3a2001            	LD A, (_printAdventureScreen_Ttmp844+1)
 13243  624b  322801            	LD (_printAdventureScreen_Ttmp850+1), A
 13244  624e  2a2701            	LD HL, (_printAdventureScreen_Ttmp850)
 13245                          ; peephole(1): r349 (SLA+RL)->(ADD)
 13246                          ;	SLA L
 13247  6251  29                	ADD HL, HL
 13248                          ;	RL H
 13249  6252  222701            	LD (_printAdventureScreen_Ttmp850), HL
 13250  6255  e600              	AND $0
 13251  6257  2a2701            	LD HL, (_printAdventureScreen_Ttmp850)
 13252  625a  114871            	LD DE, _availableoptions
 13253  625d  19                	ADD HL, DE
 13254  625e  222701            	LD (_printAdventureScreen_Ttmp850), HL
 13255  6261  ed5b2701          	LD DE, (_printAdventureScreen_Ttmp850)
 13256  6265  2a1b01            	LD HL, (_printAdventureScreen_Ttmp842)
 13257  6268  7d                	LD A, L
 13258  6269  12                	LD (DE), A
 13259  626a  13                	INC DE
 13260  626b  7c                	LD A, H
 13261  626c  12                	LD (DE), A
 13262                          	; P:103
 13263                          	; L:279
 13264                          _label971f:
 13265                          _label971e0:
 13266                          	; P:2
 13267                          	; L:280
 13268  626d  3e00              	LD A, $00
 13269  626f  321d01            	LD (_printAdventureScreen_Ttmp843), A
 13270                          ; peephole(1): r250 (LD A, x; LD (x), A; LD A, x)->(LD A, x; LD (x), A)
 13271                          ;	LD A, $00
 13272  6272  321e01            	LD (_printAdventureScreen_Ttmp843+1), A
 13273  6275  3e00              	LD A, $00
 13274  6277  321f01            	LD (_printAdventureScreen_Ttmp844), A
 13275                          ; peephole(1): r250 (LD A, x; LD (x), A; LD A, x)->(LD A, x; LD (x), A)
 13276                          ;	LD A, $00
 13277  627a  322001            	LD (_printAdventureScreen_Ttmp844+1), A
 13278  627d  3a8572            	LD A, (_xlocation)
 13279  6280  321f01            	LD (_printAdventureScreen_Ttmp844), A
 13280  6283  2a1d01            	LD HL, (_printAdventureScreen_Ttmp843)
 13281  6286  ed5b1f01          	LD DE, (_printAdventureScreen_Ttmp844)
 13282  628a  19                	ADD HL, DE
 13283  628b  221d01            	LD (_printAdventureScreen_Ttmp843), HL
 13284  628e  3e03              	LD A, $03
 13285  6290  321b01            	LD (_printAdventureScreen_Ttmp842), A
 13286  6293  3e00              	LD A, $00
 13287  6295  321c01            	LD (_printAdventureScreen_Ttmp842+1), A
 13288                          ; peephole(1): r250 (LD A, x; LD (x), A; LD A, x)->(LD A, x; LD (x), A)
 13289                          ;	LD A, $00
 13290  6298  322101            	LD (_printAdventureScreen_Ttmp846), A
 13291  629b  3e00              	LD A, $00
 13292  629d  322201            	LD (_printAdventureScreen_Ttmp846+1), A
 13293  62a0  3a8672            	LD A, (_ylocation)
 13294  62a3  322101            	LD (_printAdventureScreen_Ttmp846), A
 13295  62a6  ed4b2101          	LD BC, (_printAdventureScreen_Ttmp846)
 13296  62aa  ed5b1b01          	LD DE, (_printAdventureScreen_Ttmp842)
 13297  62ae  79                	LD A, C
 13298  62af  48                	LD C, B
 13299  62b0  210000            	LD HL, 0
 13300  62b3  0610              	LD B, 16
 13301                          _label986:
 13302  62b5  29                	ADD HL, HL
 13303  62b6  17                	RLA
 13304  62b7  cb11              	RL C
 13305  62b9  3007              	JR NC,_label986b2
 13306  62bb  19                	ADD HL, DE
 13307  62bc  ce00              	ADC A, 0
 13308  62be  d2c262            	JP NC,_label986b2
 13309  62c1  0c                	INC C
 13310                          _label986b2:
 13311  62c2  10f1              	DJNZ _label986
 13312  62c4  41                	LD B, C
 13313  62c5  4f                	LD C, A
 13314  62c6  222301            	LD (_printAdventureScreen_Ttmp848), HL
 13315  62c9  ed432501          	LD (_printAdventureScreen_Ttmp848+2), BC
 13316  62cd  3a2301            	LD A, (_printAdventureScreen_Ttmp848)
 13317  62d0  322701            	LD (_printAdventureScreen_Ttmp850), A
 13318  62d3  3a2401            	LD A, (_printAdventureScreen_Ttmp848+1)
 13319  62d6  322801            	LD (_printAdventureScreen_Ttmp850+1), A
 13320  62d9  2a1d01            	LD HL, (_printAdventureScreen_Ttmp843)
 13321  62dc  ed5b2701          	LD DE, (_printAdventureScreen_Ttmp850)
 13322  62e0  19                	ADD HL, DE
 13323  62e1  221d01            	LD (_printAdventureScreen_Ttmp843), HL
 13324  62e4  e600              	AND $0
 13325  62e6  2a1d01            	LD HL, (_printAdventureScreen_Ttmp843)
 13326  62e9  117271            	LD DE, _exits
 13327  62ec  19                	ADD HL, DE
 13328  62ed  221d01            	LD (_printAdventureScreen_Ttmp843), HL
 13329  62f0  ed5b1d01          	LD DE, (_printAdventureScreen_Ttmp843)
 13330  62f4  1a                	LD A, (DE)
 13331  62f5  324f01            	LD (_printAdventureScreen_Ttmp987), A
 13332  62f8  3a4f01            	LD A, (_printAdventureScreen_Ttmp987)
 13333  62fb  47                	LD B, A
 13334  62fc  cdaa02            	CALL DSDESCRIPTOR
 13335  62ff  dd7e00            	LD A, (IX)
 13336  6302  322c01            	LD (_printAdventureScreen_Ttmp854), A
 13337  6305  dd7e01            	LD A, (IX+1)
 13338  6308  322a01            	LD (_printAdventureScreen_Ttmp853), A
 13339  630b  dd7e02            	LD A, (IX+2)
 13340  630e  322b01            	LD (_printAdventureScreen_Ttmp853+1), A
 13341  6311  3a4e01            	LD A, (_printAdventureScreen_Ttmp983)
 13342  6314  47                	LD B, A
 13343  6315  cd6501            	CALL DSFREE
 13344  6318  3a2c01            	LD A, (_printAdventureScreen_Ttmp854)
 13345  631b  4f                	LD C, A
 13346  631c  cd4e01            	CALL DSALLOC
 13347  631f  78                	LD A, B
 13348  6320  324e01            	LD (_printAdventureScreen_Ttmp983), A
 13349  6323  3a4e01            	LD A, (_printAdventureScreen_Ttmp983)
 13350  6326  47                	LD B, A
 13351  6327  cdaa02            	CALL DSDESCRIPTOR
 13352  632a  dd7e00            	LD A, (IX)
 13353                          ; peephole(3): unread
 13354                          ;	LD (_printAdventureScreen_Ttmp856), A
 13355  632d  dd7e01            	LD A, (IX+1)
 13356  6330  322d01            	LD (_printAdventureScreen_Ttmp855), A
 13357  6333  dd7e02            	LD A, (IX+2)
 13358  6336  322e01            	LD (_printAdventureScreen_Ttmp855+1), A
 13359  6339  2a2a01            	LD HL, (_printAdventureScreen_Ttmp853)
 13360  633c  ed5b2d01          	LD DE, (_printAdventureScreen_Ttmp855)
 13361  6340  3a2c01            	LD A, (_printAdventureScreen_Ttmp854)
 13362  6343  4f                	LD C, A
 13363  6344  0600              	LD B, 0
 13364  6346  cdee02            	CALL DUFFDEVICE
 13365  6349  3e01              	LD A, $01
 13366  634b  323101            	LD (_printAdventureScreen_Ttmp859), A
 13367  634e  3ab572            	LD A, (_printAdventureScreen_c)
 13368  6351  fe00              	CP $00
 13369  6353  ca6864            	JP Z, _label989empty
 13370  6356  3a4e01            	LD A, (_printAdventureScreen_Ttmp983)
 13371  6359  47                	LD B, A
 13372  635a  cdaa02            	CALL DSDESCRIPTOR
 13373  635d  dd7e00            	LD A, (IX)
 13374  6360  323901            	LD (_printAdventureScreen_Ttmp884), A
 13375  6363  dd7e01            	LD A, (IX+1)
 13376  6366  322f01            	LD (_printAdventureScreen_Ttmp858), A
 13377  6369  dd7e02            	LD A, (IX+2)
 13378  636c  323001            	LD (_printAdventureScreen_Ttmp858+1), A
 13379  636f  3a3901            	LD A, (_printAdventureScreen_Ttmp884)
 13380  6372  47                	LD B, A
 13381  6373  3ab572            	LD A, (_printAdventureScreen_c)
 13382  6376  b8                	CP B
 13383  6377  3809              	JR C, _label991
 13384  6379  2807              	JR Z, _label991
 13385                          ; peephole(1): r228 (LD A, 0)->(XOR A)
 13386                          ;	LD A, 0
 13387  637b  af                	XOR A
 13388  637c  323a01            	LD (_printAdventureScreen_Ttmp887), A
 13389  637f  c38763            	JMP _label991b2
 13390                          _label991:
 13391  6382  3eff              	LD A, $ff
 13392  6384  323a01            	LD (_printAdventureScreen_Ttmp887), A
 13393                          _label991b2:
 13394  6387  3a3a01            	LD A, (_printAdventureScreen_Ttmp887)
 13395                          ; peephole(1): r319 (XOR $FF)->(CPL)
 13396                          ;	XOR $FF
 13397  638a  2f                	CPL
 13398  638b  323a01            	LD (_printAdventureScreen_Ttmp887), A
 13399  638e  3a3a01            	LD A, (_printAdventureScreen_Ttmp887)
 13400  6391  fe00              	CP $00
 13401  6393  c26864            	JP NZ, _label989empty
 13402  6396  2a2f01            	LD HL, (_printAdventureScreen_Ttmp858)
 13403  6399  110000            	LD DE, 0
 13404  639c  3ab572            	LD A, (_printAdventureScreen_c)
 13405  639f  5f                	LD E, A
 13406  63a0  19                	ADD HL, DE
 13407  63a1  222f01            	LD (_printAdventureScreen_Ttmp858), HL
 13408  63a4  2a2f01            	LD HL, (_printAdventureScreen_Ttmp858)
 13409  63a7  2b                	DEC HL
 13410  63a8  222f01            	LD (_printAdventureScreen_Ttmp858), HL
 13411  63ab  3a3101            	LD A, (_printAdventureScreen_Ttmp859)
 13412  63ae  323701            	LD (_printAdventureScreen_Ttmp882), A
 13413                          ; peephole(1): r250 (LD A, x; LD (x), A; LD A, x)->(LD A, x; LD (x), A)
 13414                          ;	LD A, (_printAdventureScreen_Ttmp859)
 13415  63b1  323d01            	LD (_printAdventureScreen_Ttmp889), A
 13416  63b4  0600              	LD B, 0
 13417  63b6  3ab572            	LD A, (_printAdventureScreen_c)
 13418  63b9  47                	LD B, A
 13419  63ba  3a3d01            	LD A, (_printAdventureScreen_Ttmp889)
 13420  63bd  80                	ADD A, B
 13421  63be  323d01            	LD (_printAdventureScreen_Ttmp889), A
 13422  63c1  3a3901            	LD A, (_printAdventureScreen_Ttmp884)
 13423  63c4  47                	LD B, A
 13424  63c5  3a3d01            	LD A, (_printAdventureScreen_Ttmp889)
 13425  63c8  b8                	CP B
 13426  63c9  3809              	JR C, _label993
 13427  63cb  2807              	JR Z, _label993
 13428                          ; peephole(1): r228 (LD A, 0)->(XOR A)
 13429                          ;	LD A, 0
 13430  63cd  af                	XOR A
 13431  63ce  323d01            	LD (_printAdventureScreen_Ttmp889), A
 13432  63d1  c3d963            	JMP _label993b2
 13433                          _label993:
 13434  63d4  3eff              	LD A, $ff
 13435  63d6  323d01            	LD (_printAdventureScreen_Ttmp889), A
 13436                          _label993b2:
 13437  63d9  3a3d01            	LD A, (_printAdventureScreen_Ttmp889)
 13438                          ; peephole(1): r319 (XOR $FF)->(CPL)
 13439                          ;	XOR $FF
 13440  63dc  2f                	CPL
 13441  63dd  323d01            	LD (_printAdventureScreen_Ttmp889), A
 13442  63e0  3a3d01            	LD A, (_printAdventureScreen_Ttmp889)
 13443  63e3  fe00              	CP $00
 13444  63e5  ca0364            	JP Z, _label989unlim
 13445  63e8  3a3901            	LD A, (_printAdventureScreen_Ttmp884)
 13446  63eb  323d01            	LD (_printAdventureScreen_Ttmp889), A
 13447  63ee  0600              	LD B, 0
 13448  63f0  3ab572            	LD A, (_printAdventureScreen_c)
 13449  63f3  90                	SUB A, B
 13450  63f4  47                	LD B, A
 13451  63f5  3a3d01            	LD A, (_printAdventureScreen_Ttmp889)
 13452  63f8  90                	SUB A,B
 13453  63f9  323701            	LD (_printAdventureScreen_Ttmp882), A
 13454  63fc  3a3701            	LD A, (_printAdventureScreen_Ttmp882)
 13455  63ff  3c                	INC A
 13456  6400  323701            	LD (_printAdventureScreen_Ttmp882), A
 13457                          _label989unlim:
 13458  6403  3a3901            	LD A, (_printAdventureScreen_Ttmp884)
 13459  6406  47                	LD B, A
 13460  6407  3ab572            	LD A, (_printAdventureScreen_c)
 13461  640a  b8                	CP B
 13462  640b  3809              	JR C, _label995
 13463  640d  2807              	JR Z, _label995
 13464                          ; peephole(1): r228 (LD A, 0)->(XOR A)
 13465                          ;	LD A, 0
 13466  640f  af                	XOR A
 13467  6410  323a01            	LD (_printAdventureScreen_Ttmp887), A
 13468  6413  c31b64            	JMP _label995b2
 13469                          _label995:
 13470  6416  3eff              	LD A, $ff
 13471  6418  323a01            	LD (_printAdventureScreen_Ttmp887), A
 13472                          _label995b2:
 13473  641b  3a3a01            	LD A, (_printAdventureScreen_Ttmp887)
 13474                          ; peephole(1): r319 (XOR $FF)->(CPL)
 13475                          ;	XOR $FF
 13476  641e  2f                	CPL
 13477  641f  323a01            	LD (_printAdventureScreen_Ttmp887), A
 13478  6422  3a3a01            	LD A, (_printAdventureScreen_Ttmp887)
 13479  6425  feff              	CP $ff
 13480  6427  ca6864            	JP Z, _label989empty
 13481  642a  3a5001            	LD A, (_printAdventureScreen_Ttmp988)
 13482  642d  47                	LD B, A
 13483  642e  cd6501            	CALL DSFREE
 13484  6431  3a3701            	LD A, (_printAdventureScreen_Ttmp882)
 13485  6434  4f                	LD C, A
 13486  6435  cd4e01            	CALL DSALLOC
 13487  6438  78                	LD A, B
 13488  6439  325001            	LD (_printAdventureScreen_Ttmp988), A
 13489  643c  3a5001            	LD A, (_printAdventureScreen_Ttmp988)
 13490  643f  47                	LD B, A
 13491  6440  cdaa02            	CALL DSDESCRIPTOR
 13492  6443  dd7e00            	LD A, (IX)
 13493  6446  323a01            	LD (_printAdventureScreen_Ttmp887), A
 13494  6449  dd7e01            	LD A, (IX+1)
 13495  644c  323b01            	LD (_printAdventureScreen_Ttmp888), A
 13496  644f  dd7e02            	LD A, (IX+2)
 13497  6452  323c01            	LD (_printAdventureScreen_Ttmp888+1), A
 13498  6455  2a2f01            	LD HL, (_printAdventureScreen_Ttmp858)
 13499  6458  ed5b3b01          	LD DE, (_printAdventureScreen_Ttmp888)
 13500  645c  3a3701            	LD A, (_printAdventureScreen_Ttmp882)
 13501  645f  4f                	LD C, A
 13502  6460  0600              	LD B, 0
 13503  6462  cdee02            	CALL DUFFDEVICE
 13504  6465  c37964            	jp _label989done
 13505                          _label989empty:
 13506  6468  3a5001            	LD A, (_printAdventureScreen_Ttmp988)
 13507  646b  47                	LD B, A
 13508  646c  cd6501            	CALL DSFREE
 13509  646f  3e00              	LD A, $00
 13510  6471  4f                	LD C, A
 13511  6472  cd4e01            	CALL DSALLOC
 13512  6475  78                	LD A, B
 13513  6476  325001            	LD (_printAdventureScreen_Ttmp988), A
 13514                          _label989done:
 13515  6479  3a0000            	LD A, (_printAdventureScreen_Tstr997)
 13516  647c  324101            	LD (_printAdventureScreen_Ttmp899), A
 13517  647f  3a5001            	LD A, (_printAdventureScreen_Ttmp988)
 13518  6482  47                	LD B, A
 13519  6483  cdaa02            	CALL DSDESCRIPTOR
 13520  6486  dd7e00            	LD A, (IX)
 13521  6489  323e01            	LD (_printAdventureScreen_Ttmp892), A
 13522  648c  dd7e01            	LD A, (IX+1)
 13523  648f  323f01            	LD (_printAdventureScreen_Ttmp898), A
 13524  6492  dd7e02            	LD A, (IX+2)
 13525  6495  324001            	LD (_printAdventureScreen_Ttmp898+1), A
 13526  6498  3a3e01            	LD A, (_printAdventureScreen_Ttmp892)
 13527  649b  47                	LD B, A
 13528  649c  3a4101            	LD A, (_printAdventureScreen_Ttmp899)
 13529  649f  b8                	CP B
 13530  64a0  c2ab64            	JP NZ, _label999
 13531  64a3  3eff              	LD A, $ff
 13532  64a5  323201            	LD (_printAdventureScreen_Ttmp862), A
 13533  64a8  c3b064            	JMP _label999b2
 13534                          _label999:
 13535  64ab  3e00              	LD A, $00
 13536  64ad  323201            	LD (_printAdventureScreen_Ttmp862), A
 13537                          _label999b2:
 13538  64b0  3a3201            	LD A, (_printAdventureScreen_Ttmp862)
 13539  64b3  fe00              	CP 0
 13540  64b5  cabb64            	JP Z, _label1000
 13541  64b8  c3be64            	JMP _label1000b2
 13542                          _label1000:
 13543  64bb  c3f264            	JMP _label998
 13544                          _label1000b2:
 13545  64be  210000            	LD HL, _printAdventureScreen_Tstr997
 13546  64c1  224b01            	LD (_printAdventureScreen_Ttmp967), HL
 13547  64c4  2a4b01            	LD HL, (_printAdventureScreen_Ttmp967)
 13548  64c7  23                	INC HL
 13549  64c8  224b01            	LD (_printAdventureScreen_Ttmp967), HL
 13550  64cb  3a3e01            	LD A, (_printAdventureScreen_Ttmp892)
 13551  64ce  fe00              	CP 0
 13552  64d0  2813              	JR Z, _label1001equal
 13553  64d2  4f                	LD C, A
 13554  64d3  2a3f01            	LD HL, (_printAdventureScreen_Ttmp898)
 13555  64d6  ed5b4b01          	LD DE, (_printAdventureScreen_Ttmp967)
 13556                          _label1001:
 13557  64da  7e                	LD A, (HL)
 13558  64db  47                	LD B, A
 13559  64dc  1a                	LD A, (DE)
 13560  64dd  b8                	CP B
 13561  64de  200d              	JR NZ, _label1001diff
 13562  64e0  13                	INC DE
 13563  64e1  23                	INC HL
 13564  64e2  0d                	DEC C
 13565  64e3  20f5              	JR NZ, _label1001
 13566                          _label1001equal:
 13567  64e5  3eff              	LD A, $ff
 13568  64e7  323201            	LD (_printAdventureScreen_Ttmp862), A
 13569  64ea  c3f264            	JMP _label1001final
 13570                          _label1001diff:
 13571  64ed  3e00              	LD A, $00
 13572  64ef  323201            	LD (_printAdventureScreen_Ttmp862), A
 13573                          _label1001final:
 13574                          _label998:
 13575  64f2  3a3201            	LD A, (_printAdventureScreen_Ttmp862)
 13576  64f5  fe00              	CP 0
 13577  64f7  cafd64            	JP Z, _label1003
 13578  64fa  c30065            	JMP _label1003b2
 13579                          _label1003:
 13580  64fd  c3f665            	JMP _label1002e0
 13581                          _label1003b2:
 13582                          _label1002t:
 13583                          	; P:298
 13584                          	; L:281
 13585  6500  3e02              	LD A, $02
 13586  6502  321701            	LD (_printAdventureScreen_Ttmp836), A
 13587  6505  3e00              	LD A, $00
 13588  6507  321d01            	LD (_printAdventureScreen_Ttmp843), A
 13589                          ; peephole(1): r250 (LD A, x; LD (x), A; LD A, x)->(LD A, x; LD (x), A)
 13590                          ;	LD A, $00
 13591  650a  321e01            	LD (_printAdventureScreen_Ttmp843+1), A
 13592  650d  3e00              	LD A, $00
 13593  650f  321f01            	LD (_printAdventureScreen_Ttmp844), A
 13594                          ; peephole(1): r250 (LD A, x; LD (x), A; LD A, x)->(LD A, x; LD (x), A)
 13595                          ;	LD A, $00
 13596  6512  322001            	LD (_printAdventureScreen_Ttmp844+1), A
 13597  6515  3a1701            	LD A, (_printAdventureScreen_Ttmp836)
 13598  6518  321f01            	LD (_printAdventureScreen_Ttmp844), A
 13599  651b  2a1d01            	LD HL, (_printAdventureScreen_Ttmp843)
 13600  651e  ed5b1f01          	LD DE, (_printAdventureScreen_Ttmp844)
 13601  6522  19                	ADD HL, DE
 13602  6523  221d01            	LD (_printAdventureScreen_Ttmp843), HL
 13603  6526  e600              	AND $0
 13604  6528  2a1d01            	LD HL, (_printAdventureScreen_Ttmp843)
 13605  652b  115871            	LD DE, _options
 13606  652e  19                	ADD HL, DE
 13607  652f  221d01            	LD (_printAdventureScreen_Ttmp843), HL
 13608  6532  ed5b1d01          	LD DE, (_printAdventureScreen_Ttmp843)
 13609  6536  1a                	LD A, (DE)
 13610  6537  325101            	LD (_printAdventureScreen_Ttmp1007), A
 13611  653a  3a0000            	LD A, (_printAdventureScreen_Tstr1004)
 13612  653d  321901            	LD (_printAdventureScreen_Ttmp839), A
 13613  6540  210000            	LD HL, _printAdventureScreen_Tstr1004
 13614  6543  222a01            	LD (_printAdventureScreen_Ttmp853), HL
 13615  6546  2a2a01            	LD HL, (_printAdventureScreen_Ttmp853)
 13616  6549  23                	INC HL
 13617  654a  222a01            	LD (_printAdventureScreen_Ttmp853), HL
 13618  654d  3a5101            	LD A, (_printAdventureScreen_Ttmp1007)
 13619  6550  47                	LD B, A
 13620  6551  cd6501            	CALL DSFREE
 13621  6554  3a1901            	LD A, (_printAdventureScreen_Ttmp839)
 13622  6557  4f                	LD C, A
 13623  6558  cd4e01            	CALL DSALLOC
 13624  655b  78                	LD A, B
 13625  655c  325101            	LD (_printAdventureScreen_Ttmp1007), A
 13626  655f  3a5101            	LD A, (_printAdventureScreen_Ttmp1007)
 13627  6562  47                	LD B, A
 13628  6563  cdaa02            	CALL DSDESCRIPTOR
 13629  6566  dd7e00            	LD A, (IX)
 13630                          ; peephole(3): unread
 13631                          ;	LD (_printAdventureScreen_Ttmp851), A
 13632  6569  dd7e01            	LD A, (IX+1)
 13633  656c  322d01            	LD (_printAdventureScreen_Ttmp855), A
 13634  656f  dd7e02            	LD A, (IX+2)
 13635  6572  322e01            	LD (_printAdventureScreen_Ttmp855+1), A
 13636  6575  2a2a01            	LD HL, (_printAdventureScreen_Ttmp853)
 13637  6578  ed5b2d01          	LD DE, (_printAdventureScreen_Ttmp855)
 13638  657c  3a1901            	LD A, (_printAdventureScreen_Ttmp839)
 13639  657f  4f                	LD C, A
 13640  6580  0600              	LD B, 0
 13641  6582  cdee02            	CALL DUFFDEVICE
 13642  6585  ed5b1d01          	LD DE, (_printAdventureScreen_Ttmp843)
 13643  6589  3a5101            	LD A, (_printAdventureScreen_Ttmp1007)
 13644  658c  12                	LD (DE), A
 13645  658d  3e00              	LD A, $00
 13646  658f  325101            	LD (_printAdventureScreen_Ttmp1007), A
 13647                          	; L:281
 13648  6592  3e02              	LD A, $02
 13649  6594  321701            	LD (_printAdventureScreen_Ttmp836), A
 13650  6597  3e01              	LD A, $01
 13651  6599  321801            	LD (_printAdventureScreen_Ttmp837), A
 13652  659c  3e00              	LD A, $00
 13653  659e  321b01            	LD (_printAdventureScreen_Ttmp842), A
 13654                          ; peephole(1): r250 (LD A, x; LD (x), A; LD A, x)->(LD A, x; LD (x), A)
 13655                          ;	LD A, $00
 13656  65a1  321c01            	LD (_printAdventureScreen_Ttmp842+1), A
 13657  65a4  3a1801            	LD A, (_printAdventureScreen_Ttmp837)
 13658  65a7  321b01            	LD (_printAdventureScreen_Ttmp842), A
 13659  65aa  3e00              	LD A, $00
 13660  65ac  321f01            	LD (_printAdventureScreen_Ttmp844), A
 13661                          ; peephole(1): r250 (LD A, x; LD (x), A; LD A, x)->(LD A, x; LD (x), A)
 13662                          ;	LD A, $00
 13663  65af  322001            	LD (_printAdventureScreen_Ttmp844+1), A
 13664  65b2  3e00              	LD A, $00
 13665  65b4  322101            	LD (_printAdventureScreen_Ttmp846), A
 13666                          ; peephole(1): r250 (LD A, x; LD (x), A; LD A, x)->(LD A, x; LD (x), A)
 13667                          ;	LD A, $00
 13668  65b7  322201            	LD (_printAdventureScreen_Ttmp846+1), A
 13669  65ba  3a1701            	LD A, (_printAdventureScreen_Ttmp836)
 13670  65bd  322101            	LD (_printAdventureScreen_Ttmp846), A
 13671  65c0  2a1f01            	LD HL, (_printAdventureScreen_Ttmp844)
 13672  65c3  ed5b2101          	LD DE, (_printAdventureScreen_Ttmp846)
 13673  65c7  19                	ADD HL, DE
 13674  65c8  221f01            	LD (_printAdventureScreen_Ttmp844), HL
 13675  65cb  3a1f01            	LD A, (_printAdventureScreen_Ttmp844)
 13676  65ce  322701            	LD (_printAdventureScreen_Ttmp850), A
 13677  65d1  3a2001            	LD A, (_printAdventureScreen_Ttmp844+1)
 13678  65d4  322801            	LD (_printAdventureScreen_Ttmp850+1), A
 13679  65d7  2a2701            	LD HL, (_printAdventureScreen_Ttmp850)
 13680                          ; peephole(1): r349 (SLA+RL)->(ADD)
 13681                          ;	SLA L
 13682  65da  29                	ADD HL, HL
 13683                          ;	RL H
 13684  65db  222701            	LD (_printAdventureScreen_Ttmp850), HL
 13685  65de  e600              	AND $0
 13686  65e0  2a2701            	LD HL, (_printAdventureScreen_Ttmp850)
 13687  65e3  114871            	LD DE, _availableoptions
 13688  65e6  19                	ADD HL, DE
 13689  65e7  222701            	LD (_printAdventureScreen_Ttmp850), HL
 13690  65ea  ed5b2701          	LD DE, (_printAdventureScreen_Ttmp850)
 13691  65ee  2a1b01            	LD HL, (_printAdventureScreen_Ttmp842)
 13692  65f1  7d                	LD A, L
 13693  65f2  12                	LD (DE), A
 13694  65f3  13                	INC DE
 13695  65f4  7c                	LD A, H
 13696  65f5  12                	LD (DE), A
 13697                          	; P:103
 13698                          	; L:282
 13699                          _label1002f:
 13700                          _label1002e0:
 13701                          	; P:2
 13702                          	; L:283
 13703  65f6  3e00              	LD A, $00
 13704  65f8  321d01            	LD (_printAdventureScreen_Ttmp843), A
 13705                          ; peephole(1): r250 (LD A, x; LD (x), A; LD A, x)->(LD A, x; LD (x), A)
 13706                          ;	LD A, $00
 13707  65fb  321e01            	LD (_printAdventureScreen_Ttmp843+1), A
 13708  65fe  3e00              	LD A, $00
 13709  6600  321f01            	LD (_printAdventureScreen_Ttmp844), A
 13710                          ; peephole(1): r250 (LD A, x; LD (x), A; LD A, x)->(LD A, x; LD (x), A)
 13711                          ;	LD A, $00
 13712  6603  322001            	LD (_printAdventureScreen_Ttmp844+1), A
 13713  6606  3a8572            	LD A, (_xlocation)
 13714  6609  321f01            	LD (_printAdventureScreen_Ttmp844), A
 13715  660c  2a1d01            	LD HL, (_printAdventureScreen_Ttmp843)
 13716  660f  ed5b1f01          	LD DE, (_printAdventureScreen_Ttmp844)
 13717  6613  19                	ADD HL, DE
 13718  6614  221d01            	LD (_printAdventureScreen_Ttmp843), HL
 13719  6617  3e03              	LD A, $03
 13720  6619  321b01            	LD (_printAdventureScreen_Ttmp842), A
 13721  661c  3e00              	LD A, $00
 13722  661e  321c01            	LD (_printAdventureScreen_Ttmp842+1), A
 13723                          ; peephole(1): r250 (LD A, x; LD (x), A; LD A, x)->(LD A, x; LD (x), A)
 13724                          ;	LD A, $00
 13725  6621  322101            	LD (_printAdventureScreen_Ttmp846), A
 13726  6624  3e00              	LD A, $00
 13727  6626  322201            	LD (_printAdventureScreen_Ttmp846+1), A
 13728  6629  3a8672            	LD A, (_ylocation)
 13729  662c  322101            	LD (_printAdventureScreen_Ttmp846), A
 13730  662f  ed4b2101          	LD BC, (_printAdventureScreen_Ttmp846)
 13731  6633  ed5b1b01          	LD DE, (_printAdventureScreen_Ttmp842)
 13732  6637  79                	LD A, C
 13733  6638  48                	LD C, B
 13734  6639  210000            	LD HL, 0
 13735  663c  0610              	LD B, 16
 13736                          _label1017:
 13737  663e  29                	ADD HL, HL
 13738  663f  17                	RLA
 13739  6640  cb11              	RL C
 13740  6642  3007              	JR NC,_label1017b2
 13741  6644  19                	ADD HL, DE
 13742  6645  ce00              	ADC A, 0
 13743  6647  d24b66            	JP NC,_label1017b2
 13744  664a  0c                	INC C
 13745                          _label1017b2:
 13746  664b  10f1              	DJNZ _label1017
 13747  664d  41                	LD B, C
 13748  664e  4f                	LD C, A
 13749  664f  222301            	LD (_printAdventureScreen_Ttmp848), HL
 13750  6652  ed432501          	LD (_printAdventureScreen_Ttmp848+2), BC
 13751  6656  3a2301            	LD A, (_printAdventureScreen_Ttmp848)
 13752  6659  322701            	LD (_printAdventureScreen_Ttmp850), A
 13753  665c  3a2401            	LD A, (_printAdventureScreen_Ttmp848+1)
 13754  665f  322801            	LD (_printAdventureScreen_Ttmp850+1), A
 13755  6662  2a1d01            	LD HL, (_printAdventureScreen_Ttmp843)
 13756  6665  ed5b2701          	LD DE, (_printAdventureScreen_Ttmp850)
 13757  6669  19                	ADD HL, DE
 13758  666a  221d01            	LD (_printAdventureScreen_Ttmp843), HL
 13759  666d  e600              	AND $0
 13760  666f  2a1d01            	LD HL, (_printAdventureScreen_Ttmp843)
 13761  6672  117271            	LD DE, _exits
 13762  6675  19                	ADD HL, DE
 13763  6676  221d01            	LD (_printAdventureScreen_Ttmp843), HL
 13764  6679  ed5b1d01          	LD DE, (_printAdventureScreen_Ttmp843)
 13765  667d  1a                	LD A, (DE)
 13766  667e  325301            	LD (_printAdventureScreen_Ttmp1018), A
 13767  6681  3a5301            	LD A, (_printAdventureScreen_Ttmp1018)
 13768  6684  47                	LD B, A
 13769  6685  cdaa02            	CALL DSDESCRIPTOR
 13770  6688  dd7e00            	LD A, (IX)
 13771  668b  322c01            	LD (_printAdventureScreen_Ttmp854), A
 13772  668e  dd7e01            	LD A, (IX+1)
 13773  6691  322a01            	LD (_printAdventureScreen_Ttmp853), A
 13774  6694  dd7e02            	LD A, (IX+2)
 13775  6697  322b01            	LD (_printAdventureScreen_Ttmp853+1), A
 13776  669a  3a5201            	LD A, (_printAdventureScreen_Ttmp1014)
 13777  669d  47                	LD B, A
 13778  669e  cd6501            	CALL DSFREE
 13779  66a1  3a2c01            	LD A, (_printAdventureScreen_Ttmp854)
 13780  66a4  4f                	LD C, A
 13781  66a5  cd4e01            	CALL DSALLOC
 13782  66a8  78                	LD A, B
 13783  66a9  325201            	LD (_printAdventureScreen_Ttmp1014), A
 13784  66ac  3a5201            	LD A, (_printAdventureScreen_Ttmp1014)
 13785  66af  47                	LD B, A
 13786  66b0  cdaa02            	CALL DSDESCRIPTOR
 13787  66b3  dd7e00            	LD A, (IX)
 13788                          ; peephole(3): unread
 13789                          ;	LD (_printAdventureScreen_Ttmp856), A
 13790  66b6  dd7e01            	LD A, (IX+1)
 13791  66b9  322d01            	LD (_printAdventureScreen_Ttmp855), A
 13792  66bc  dd7e02            	LD A, (IX+2)
 13793  66bf  322e01            	LD (_printAdventureScreen_Ttmp855+1), A
 13794  66c2  2a2a01            	LD HL, (_printAdventureScreen_Ttmp853)
 13795  66c5  ed5b2d01          	LD DE, (_printAdventureScreen_Ttmp855)
 13796  66c9  3a2c01            	LD A, (_printAdventureScreen_Ttmp854)
 13797  66cc  4f                	LD C, A
 13798  66cd  0600              	LD B, 0
 13799  66cf  cdee02            	CALL DUFFDEVICE
 13800  66d2  3e01              	LD A, $01
 13801  66d4  323101            	LD (_printAdventureScreen_Ttmp859), A
 13802  66d7  3ab572            	LD A, (_printAdventureScreen_c)
 13803  66da  fe00              	CP $00
 13804  66dc  caf167            	JP Z, _label1020empty
 13805  66df  3a5201            	LD A, (_printAdventureScreen_Ttmp1014)
 13806  66e2  47                	LD B, A
 13807  66e3  cdaa02            	CALL DSDESCRIPTOR
 13808  66e6  dd7e00            	LD A, (IX)
 13809  66e9  323901            	LD (_printAdventureScreen_Ttmp884), A
 13810  66ec  dd7e01            	LD A, (IX+1)
 13811  66ef  322f01            	LD (_printAdventureScreen_Ttmp858), A
 13812  66f2  dd7e02            	LD A, (IX+2)
 13813  66f5  323001            	LD (_printAdventureScreen_Ttmp858+1), A
 13814  66f8  3a3901            	LD A, (_printAdventureScreen_Ttmp884)
 13815  66fb  47                	LD B, A
 13816  66fc  3ab572            	LD A, (_printAdventureScreen_c)
 13817  66ff  b8                	CP B
 13818  6700  3809              	JR C, _label1022
 13819  6702  2807              	JR Z, _label1022
 13820                          ; peephole(1): r228 (LD A, 0)->(XOR A)
 13821                          ;	LD A, 0
 13822  6704  af                	XOR A
 13823  6705  323a01            	LD (_printAdventureScreen_Ttmp887), A
 13824  6708  c31067            	JMP _label1022b2
 13825                          _label1022:
 13826  670b  3eff              	LD A, $ff
 13827  670d  323a01            	LD (_printAdventureScreen_Ttmp887), A
 13828                          _label1022b2:
 13829  6710  3a3a01            	LD A, (_printAdventureScreen_Ttmp887)
 13830                          ; peephole(1): r319 (XOR $FF)->(CPL)
 13831                          ;	XOR $FF
 13832  6713  2f                	CPL
 13833  6714  323a01            	LD (_printAdventureScreen_Ttmp887), A
 13834  6717  3a3a01            	LD A, (_printAdventureScreen_Ttmp887)
 13835  671a  fe00              	CP $00
 13836  671c  c2f167            	JP NZ, _label1020empty
 13837  671f  2a2f01            	LD HL, (_printAdventureScreen_Ttmp858)
 13838  6722  110000            	LD DE, 0
 13839  6725  3ab572            	LD A, (_printAdventureScreen_c)
 13840  6728  5f                	LD E, A
 13841  6729  19                	ADD HL, DE
 13842  672a  222f01            	LD (_printAdventureScreen_Ttmp858), HL
 13843  672d  2a2f01            	LD HL, (_printAdventureScreen_Ttmp858)
 13844  6730  2b                	DEC HL
 13845  6731  222f01            	LD (_printAdventureScreen_Ttmp858), HL
 13846  6734  3a3101            	LD A, (_printAdventureScreen_Ttmp859)
 13847  6737  323701            	LD (_printAdventureScreen_Ttmp882), A
 13848                          ; peephole(1): r250 (LD A, x; LD (x), A; LD A, x)->(LD A, x; LD (x), A)
 13849                          ;	LD A, (_printAdventureScreen_Ttmp859)
 13850  673a  323d01            	LD (_printAdventureScreen_Ttmp889), A
 13851  673d  0600              	LD B, 0
 13852  673f  3ab572            	LD A, (_printAdventureScreen_c)
 13853  6742  47                	LD B, A
 13854  6743  3a3d01            	LD A, (_printAdventureScreen_Ttmp889)
 13855  6746  80                	ADD A, B
 13856  6747  323d01            	LD (_printAdventureScreen_Ttmp889), A
 13857  674a  3a3901            	LD A, (_printAdventureScreen_Ttmp884)
 13858  674d  47                	LD B, A
 13859  674e  3a3d01            	LD A, (_printAdventureScreen_Ttmp889)
 13860  6751  b8                	CP B
 13861  6752  3809              	JR C, _label1024
 13862  6754  2807              	JR Z, _label1024
 13863                          ; peephole(1): r228 (LD A, 0)->(XOR A)
 13864                          ;	LD A, 0
 13865  6756  af                	XOR A
 13866  6757  323d01            	LD (_printAdventureScreen_Ttmp889), A
 13867  675a  c36267            	JMP _label1024b2
 13868                          _label1024:
 13869  675d  3eff              	LD A, $ff
 13870  675f  323d01            	LD (_printAdventureScreen_Ttmp889), A
 13871                          _label1024b2:
 13872  6762  3a3d01            	LD A, (_printAdventureScreen_Ttmp889)
 13873                          ; peephole(1): r319 (XOR $FF)->(CPL)
 13874                          ;	XOR $FF
 13875  6765  2f                	CPL
 13876  6766  323d01            	LD (_printAdventureScreen_Ttmp889), A
 13877  6769  3a3d01            	LD A, (_printAdventureScreen_Ttmp889)
 13878  676c  fe00              	CP $00
 13879  676e  ca8c67            	JP Z, _label1020unlim
 13880  6771  3a3901            	LD A, (_printAdventureScreen_Ttmp884)
 13881  6774  323d01            	LD (_printAdventureScreen_Ttmp889), A
 13882  6777  0600              	LD B, 0
 13883  6779  3ab572            	LD A, (_printAdventureScreen_c)
 13884  677c  90                	SUB A, B
 13885  677d  47                	LD B, A
 13886  677e  3a3d01            	LD A, (_printAdventureScreen_Ttmp889)
 13887  6781  90                	SUB A,B
 13888  6782  323701            	LD (_printAdventureScreen_Ttmp882), A
 13889  6785  3a3701            	LD A, (_printAdventureScreen_Ttmp882)
 13890  6788  3c                	INC A
 13891  6789  323701            	LD (_printAdventureScreen_Ttmp882), A
 13892                          _label1020unlim:
 13893  678c  3a3901            	LD A, (_printAdventureScreen_Ttmp884)
 13894  678f  47                	LD B, A
 13895  6790  3ab572            	LD A, (_printAdventureScreen_c)
 13896  6793  b8                	CP B
 13897  6794  3809              	JR C, _label1026
 13898  6796  2807              	JR Z, _label1026
 13899                          ; peephole(1): r228 (LD A, 0)->(XOR A)
 13900                          ;	LD A, 0
 13901  6798  af                	XOR A
 13902  6799  323a01            	LD (_printAdventureScreen_Ttmp887), A
 13903  679c  c3a467            	JMP _label1026b2
 13904                          _label1026:
 13905  679f  3eff              	LD A, $ff
 13906  67a1  323a01            	LD (_printAdventureScreen_Ttmp887), A
 13907                          _label1026b2:
 13908  67a4  3a3a01            	LD A, (_printAdventureScreen_Ttmp887)
 13909                          ; peephole(1): r319 (XOR $FF)->(CPL)
 13910                          ;	XOR $FF
 13911  67a7  2f                	CPL
 13912  67a8  323a01            	LD (_printAdventureScreen_Ttmp887), A
 13913  67ab  3a3a01            	LD A, (_printAdventureScreen_Ttmp887)
 13914  67ae  feff              	CP $ff
 13915  67b0  caf167            	JP Z, _label1020empty
 13916  67b3  3a5401            	LD A, (_printAdventureScreen_Ttmp1019)
 13917  67b6  47                	LD B, A
 13918  67b7  cd6501            	CALL DSFREE
 13919  67ba  3a3701            	LD A, (_printAdventureScreen_Ttmp882)
 13920  67bd  4f                	LD C, A
 13921  67be  cd4e01            	CALL DSALLOC
 13922  67c1  78                	LD A, B
 13923  67c2  325401            	LD (_printAdventureScreen_Ttmp1019), A
 13924  67c5  3a5401            	LD A, (_printAdventureScreen_Ttmp1019)
 13925  67c8  47                	LD B, A
 13926  67c9  cdaa02            	CALL DSDESCRIPTOR
 13927  67cc  dd7e00            	LD A, (IX)
 13928  67cf  323a01            	LD (_printAdventureScreen_Ttmp887), A
 13929  67d2  dd7e01            	LD A, (IX+1)
 13930  67d5  323b01            	LD (_printAdventureScreen_Ttmp888), A
 13931  67d8  dd7e02            	LD A, (IX+2)
 13932  67db  323c01            	LD (_printAdventureScreen_Ttmp888+1), A
 13933  67de  2a2f01            	LD HL, (_printAdventureScreen_Ttmp858)
 13934  67e1  ed5b3b01          	LD DE, (_printAdventureScreen_Ttmp888)
 13935  67e5  3a3701            	LD A, (_printAdventureScreen_Ttmp882)
 13936  67e8  4f                	LD C, A
 13937  67e9  0600              	LD B, 0
 13938  67eb  cdee02            	CALL DUFFDEVICE
 13939  67ee  c30268            	jp _label1020done
 13940                          _label1020empty:
 13941  67f1  3a5401            	LD A, (_printAdventureScreen_Ttmp1019)
 13942  67f4  47                	LD B, A
 13943  67f5  cd6501            	CALL DSFREE
 13944  67f8  3e00              	LD A, $00
 13945  67fa  4f                	LD C, A
 13946  67fb  cd4e01            	CALL DSALLOC
 13947  67fe  78                	LD A, B
 13948  67ff  325401            	LD (_printAdventureScreen_Ttmp1019), A
 13949                          _label1020done:
 13950  6802  3a0000            	LD A, (_printAdventureScreen_Tstr1028)
 13951  6805  324101            	LD (_printAdventureScreen_Ttmp899), A
 13952  6808  3a5401            	LD A, (_printAdventureScreen_Ttmp1019)
 13953  680b  47                	LD B, A
 13954  680c  cdaa02            	CALL DSDESCRIPTOR
 13955  680f  dd7e00            	LD A, (IX)
 13956  6812  323e01            	LD (_printAdventureScreen_Ttmp892), A
 13957  6815  dd7e01            	LD A, (IX+1)
 13958  6818  323f01            	LD (_printAdventureScreen_Ttmp898), A
 13959  681b  dd7e02            	LD A, (IX+2)
 13960  681e  324001            	LD (_printAdventureScreen_Ttmp898+1), A
 13961  6821  3a3e01            	LD A, (_printAdventureScreen_Ttmp892)
 13962  6824  47                	LD B, A
 13963  6825  3a4101            	LD A, (_printAdventureScreen_Ttmp899)
 13964  6828  b8                	CP B
 13965  6829  c23468            	JP NZ, _label1030
 13966  682c  3eff              	LD A, $ff
 13967  682e  323201            	LD (_printAdventureScreen_Ttmp862), A
 13968  6831  c33968            	JMP _label1030b2
 13969                          _label1030:
 13970  6834  3e00              	LD A, $00
 13971  6836  323201            	LD (_printAdventureScreen_Ttmp862), A
 13972                          _label1030b2:
 13973  6839  3a3201            	LD A, (_printAdventureScreen_Ttmp862)
 13974  683c  fe00              	CP 0
 13975  683e  ca4468            	JP Z, _label1031
 13976  6841  c34768            	JMP _label1031b2
 13977                          _label1031:
 13978  6844  c37b68            	JMP _label1029
 13979                          _label1031b2:
 13980  6847  210000            	LD HL, _printAdventureScreen_Tstr1028
 13981  684a  224b01            	LD (_printAdventureScreen_Ttmp967), HL
 13982  684d  2a4b01            	LD HL, (_printAdventureScreen_Ttmp967)
 13983  6850  23                	INC HL
 13984  6851  224b01            	LD (_printAdventureScreen_Ttmp967), HL
 13985  6854  3a3e01            	LD A, (_printAdventureScreen_Ttmp892)
 13986  6857  fe00              	CP 0
 13987  6859  2813              	JR Z, _label1032equal
 13988  685b  4f                	LD C, A
 13989  685c  2a3f01            	LD HL, (_printAdventureScreen_Ttmp898)
 13990  685f  ed5b4b01          	LD DE, (_printAdventureScreen_Ttmp967)
 13991                          _label1032:
 13992  6863  7e                	LD A, (HL)
 13993  6864  47                	LD B, A
 13994  6865  1a                	LD A, (DE)
 13995  6866  b8                	CP B
 13996  6867  200d              	JR NZ, _label1032diff
 13997  6869  13                	INC DE
 13998  686a  23                	INC HL
 13999  686b  0d                	DEC C
 14000  686c  20f5              	JR NZ, _label1032
 14001                          _label1032equal:
 14002  686e  3eff              	LD A, $ff
 14003  6870  323201            	LD (_printAdventureScreen_Ttmp862), A
 14004  6873  c37b68            	JMP _label1032final
 14005                          _label1032diff:
 14006  6876  3e00              	LD A, $00
 14007  6878  323201            	LD (_printAdventureScreen_Ttmp862), A
 14008                          _label1032final:
 14009                          _label1029:
 14010  687b  3a3201            	LD A, (_printAdventureScreen_Ttmp862)
 14011  687e  fe00              	CP 0
 14012  6880  ca8668            	JP Z, _label1034
 14013  6883  c38968            	JMP _label1034b2
 14014                          _label1034:
 14015  6886  c37f69            	JMP _label1033e0
 14016                          _label1034b2:
 14017                          _label1033t:
 14018                          	; P:298
 14019                          	; L:284
 14020  6889  3e03              	LD A, $03
 14021  688b  321701            	LD (_printAdventureScreen_Ttmp836), A
 14022  688e  3e00              	LD A, $00
 14023  6890  321d01            	LD (_printAdventureScreen_Ttmp843), A
 14024                          ; peephole(1): r250 (LD A, x; LD (x), A; LD A, x)->(LD A, x; LD (x), A)
 14025                          ;	LD A, $00
 14026  6893  321e01            	LD (_printAdventureScreen_Ttmp843+1), A
 14027  6896  3e00              	LD A, $00
 14028  6898  321f01            	LD (_printAdventureScreen_Ttmp844), A
 14029                          ; peephole(1): r250 (LD A, x; LD (x), A; LD A, x)->(LD A, x; LD (x), A)
 14030                          ;	LD A, $00
 14031  689b  322001            	LD (_printAdventureScreen_Ttmp844+1), A
 14032  689e  3a1701            	LD A, (_printAdventureScreen_Ttmp836)
 14033  68a1  321f01            	LD (_printAdventureScreen_Ttmp844), A
 14034  68a4  2a1d01            	LD HL, (_printAdventureScreen_Ttmp843)
 14035  68a7  ed5b1f01          	LD DE, (_printAdventureScreen_Ttmp844)
 14036  68ab  19                	ADD HL, DE
 14037  68ac  221d01            	LD (_printAdventureScreen_Ttmp843), HL
 14038  68af  e600              	AND $0
 14039  68b1  2a1d01            	LD HL, (_printAdventureScreen_Ttmp843)
 14040  68b4  115871            	LD DE, _options
 14041  68b7  19                	ADD HL, DE
 14042  68b8  221d01            	LD (_printAdventureScreen_Ttmp843), HL
 14043  68bb  ed5b1d01          	LD DE, (_printAdventureScreen_Ttmp843)
 14044  68bf  1a                	LD A, (DE)
 14045  68c0  325501            	LD (_printAdventureScreen_Ttmp1038), A
 14046  68c3  3a0000            	LD A, (_printAdventureScreen_Tstr1035)
 14047  68c6  321901            	LD (_printAdventureScreen_Ttmp839), A
 14048  68c9  210000            	LD HL, _printAdventureScreen_Tstr1035
 14049  68cc  222a01            	LD (_printAdventureScreen_Ttmp853), HL
 14050  68cf  2a2a01            	LD HL, (_printAdventureScreen_Ttmp853)
 14051  68d2  23                	INC HL
 14052  68d3  222a01            	LD (_printAdventureScreen_Ttmp853), HL
 14053  68d6  3a5501            	LD A, (_printAdventureScreen_Ttmp1038)
 14054  68d9  47                	LD B, A
 14055  68da  cd6501            	CALL DSFREE
 14056  68dd  3a1901            	LD A, (_printAdventureScreen_Ttmp839)
 14057  68e0  4f                	LD C, A
 14058  68e1  cd4e01            	CALL DSALLOC
 14059  68e4  78                	LD A, B
 14060  68e5  325501            	LD (_printAdventureScreen_Ttmp1038), A
 14061  68e8  3a5501            	LD A, (_printAdventureScreen_Ttmp1038)
 14062  68eb  47                	LD B, A
 14063  68ec  cdaa02            	CALL DSDESCRIPTOR
 14064  68ef  dd7e00            	LD A, (IX)
 14065                          ; peephole(3): unread
 14066                          ;	LD (_printAdventureScreen_Ttmp851), A
 14067  68f2  dd7e01            	LD A, (IX+1)
 14068  68f5  322d01            	LD (_printAdventureScreen_Ttmp855), A
 14069  68f8  dd7e02            	LD A, (IX+2)
 14070  68fb  322e01            	LD (_printAdventureScreen_Ttmp855+1), A
 14071  68fe  2a2a01            	LD HL, (_printAdventureScreen_Ttmp853)
 14072  6901  ed5b2d01          	LD DE, (_printAdventureScreen_Ttmp855)
 14073  6905  3a1901            	LD A, (_printAdventureScreen_Ttmp839)
 14074  6908  4f                	LD C, A
 14075  6909  0600              	LD B, 0
 14076  690b  cdee02            	CALL DUFFDEVICE
 14077  690e  ed5b1d01          	LD DE, (_printAdventureScreen_Ttmp843)
 14078  6912  3a5501            	LD A, (_printAdventureScreen_Ttmp1038)
 14079  6915  12                	LD (DE), A
 14080  6916  3e00              	LD A, $00
 14081  6918  325501            	LD (_printAdventureScreen_Ttmp1038), A
 14082                          	; L:284
 14083  691b  3e03              	LD A, $03
 14084  691d  321701            	LD (_printAdventureScreen_Ttmp836), A
 14085  6920  3e01              	LD A, $01
 14086  6922  321801            	LD (_printAdventureScreen_Ttmp837), A
 14087  6925  3e00              	LD A, $00
 14088  6927  321b01            	LD (_printAdventureScreen_Ttmp842), A
 14089                          ; peephole(1): r250 (LD A, x; LD (x), A; LD A, x)->(LD A, x; LD (x), A)
 14090                          ;	LD A, $00
 14091  692a  321c01            	LD (_printAdventureScreen_Ttmp842+1), A
 14092  692d  3a1801            	LD A, (_printAdventureScreen_Ttmp837)
 14093  6930  321b01            	LD (_printAdventureScreen_Ttmp842), A
 14094  6933  3e00              	LD A, $00
 14095  6935  321f01            	LD (_printAdventureScreen_Ttmp844), A
 14096                          ; peephole(1): r250 (LD A, x; LD (x), A; LD A, x)->(LD A, x; LD (x), A)
 14097                          ;	LD A, $00
 14098  6938  322001            	LD (_printAdventureScreen_Ttmp844+1), A
 14099  693b  3e00              	LD A, $00
 14100  693d  322101            	LD (_printAdventureScreen_Ttmp846), A
 14101                          ; peephole(1): r250 (LD A, x; LD (x), A; LD A, x)->(LD A, x; LD (x), A)
 14102                          ;	LD A, $00
 14103  6940  322201            	LD (_printAdventureScreen_Ttmp846+1), A
 14104  6943  3a1701            	LD A, (_printAdventureScreen_Ttmp836)
 14105  6946  322101            	LD (_printAdventureScreen_Ttmp846), A
 14106  6949  2a1f01            	LD HL, (_printAdventureScreen_Ttmp844)
 14107  694c  ed5b2101          	LD DE, (_printAdventureScreen_Ttmp846)
 14108  6950  19                	ADD HL, DE
 14109  6951  221f01            	LD (_printAdventureScreen_Ttmp844), HL
 14110  6954  3a1f01            	LD A, (_printAdventureScreen_Ttmp844)
 14111  6957  322701            	LD (_printAdventureScreen_Ttmp850), A
 14112  695a  3a2001            	LD A, (_printAdventureScreen_Ttmp844+1)
 14113  695d  322801            	LD (_printAdventureScreen_Ttmp850+1), A
 14114  6960  2a2701            	LD HL, (_printAdventureScreen_Ttmp850)
 14115                          ; peephole(1): r349 (SLA+RL)->(ADD)
 14116                          ;	SLA L
 14117  6963  29                	ADD HL, HL
 14118                          ;	RL H
 14119  6964  222701            	LD (_printAdventureScreen_Ttmp850), HL
 14120  6967  e600              	AND $0
 14121  6969  2a2701            	LD HL, (_printAdventureScreen_Ttmp850)
 14122  696c  114871            	LD DE, _availableoptions
 14123  696f  19                	ADD HL, DE
 14124  6970  222701            	LD (_printAdventureScreen_Ttmp850), HL
 14125  6973  ed5b2701          	LD DE, (_printAdventureScreen_Ttmp850)
 14126  6977  2a1b01            	LD HL, (_printAdventureScreen_Ttmp842)
 14127  697a  7d                	LD A, L
 14128  697b  12                	LD (DE), A
 14129  697c  13                	INC DE
 14130  697d  7c                	LD A, H
 14131  697e  12                	LD (DE), A
 14132                          	; P:103
 14133                          	; L:285
 14134                          _label1033f:
 14135                          _label1033e0:
 14136                          	; P:2
 14137                          	; L:286
 14138  697f  3e00              	LD A, $00
 14139  6981  321d01            	LD (_printAdventureScreen_Ttmp843), A
 14140                          ; peephole(1): r250 (LD A, x; LD (x), A; LD A, x)->(LD A, x; LD (x), A)
 14141                          ;	LD A, $00
 14142  6984  321e01            	LD (_printAdventureScreen_Ttmp843+1), A
 14143  6987  3e00              	LD A, $00
 14144  6989  321f01            	LD (_printAdventureScreen_Ttmp844), A
 14145                          ; peephole(1): r250 (LD A, x; LD (x), A; LD A, x)->(LD A, x; LD (x), A)
 14146                          ;	LD A, $00
 14147  698c  322001            	LD (_printAdventureScreen_Ttmp844+1), A
 14148  698f  3a8572            	LD A, (_xlocation)
 14149  6992  321f01            	LD (_printAdventureScreen_Ttmp844), A
 14150  6995  2a1d01            	LD HL, (_printAdventureScreen_Ttmp843)
 14151  6998  ed5b1f01          	LD DE, (_printAdventureScreen_Ttmp844)
 14152  699c  19                	ADD HL, DE
 14153  699d  221d01            	LD (_printAdventureScreen_Ttmp843), HL
 14154  69a0  3e03              	LD A, $03
 14155  69a2  321b01            	LD (_printAdventureScreen_Ttmp842), A
 14156  69a5  3e00              	LD A, $00
 14157  69a7  321c01            	LD (_printAdventureScreen_Ttmp842+1), A
 14158                          ; peephole(1): r250 (LD A, x; LD (x), A; LD A, x)->(LD A, x; LD (x), A)
 14159                          ;	LD A, $00
 14160  69aa  322101            	LD (_printAdventureScreen_Ttmp846), A
 14161  69ad  3e00              	LD A, $00
 14162  69af  322201            	LD (_printAdventureScreen_Ttmp846+1), A
 14163  69b2  3a8672            	LD A, (_ylocation)
 14164  69b5  322101            	LD (_printAdventureScreen_Ttmp846), A
 14165  69b8  ed4b2101          	LD BC, (_printAdventureScreen_Ttmp846)
 14166  69bc  ed5b1b01          	LD DE, (_printAdventureScreen_Ttmp842)
 14167  69c0  79                	LD A, C
 14168  69c1  48                	LD C, B
 14169  69c2  210000            	LD HL, 0
 14170  69c5  0610              	LD B, 16
 14171                          _label1048:
 14172  69c7  29                	ADD HL, HL
 14173  69c8  17                	RLA
 14174  69c9  cb11              	RL C
 14175  69cb  3007              	JR NC,_label1048b2
 14176  69cd  19                	ADD HL, DE
 14177  69ce  ce00              	ADC A, 0
 14178  69d0  d2d469            	JP NC,_label1048b2
 14179  69d3  0c                	INC C
 14180                          _label1048b2:
 14181  69d4  10f1              	DJNZ _label1048
 14182  69d6  41                	LD B, C
 14183  69d7  4f                	LD C, A
 14184  69d8  222301            	LD (_printAdventureScreen_Ttmp848), HL
 14185  69db  ed432501          	LD (_printAdventureScreen_Ttmp848+2), BC
 14186  69df  3a2301            	LD A, (_printAdventureScreen_Ttmp848)
 14187  69e2  322701            	LD (_printAdventureScreen_Ttmp850), A
 14188  69e5  3a2401            	LD A, (_printAdventureScreen_Ttmp848+1)
 14189  69e8  322801            	LD (_printAdventureScreen_Ttmp850+1), A
 14190  69eb  2a1d01            	LD HL, (_printAdventureScreen_Ttmp843)
 14191  69ee  ed5b2701          	LD DE, (_printAdventureScreen_Ttmp850)
 14192  69f2  19                	ADD HL, DE
 14193  69f3  221d01            	LD (_printAdventureScreen_Ttmp843), HL
 14194  69f6  e600              	AND $0
 14195  69f8  2a1d01            	LD HL, (_printAdventureScreen_Ttmp843)
 14196  69fb  117271            	LD DE, _exits
 14197  69fe  19                	ADD HL, DE
 14198  69ff  221d01            	LD (_printAdventureScreen_Ttmp843), HL
 14199  6a02  ed5b1d01          	LD DE, (_printAdventureScreen_Ttmp843)
 14200  6a06  1a                	LD A, (DE)
 14201  6a07  325701            	LD (_printAdventureScreen_Ttmp1049), A
 14202  6a0a  3a5701            	LD A, (_printAdventureScreen_Ttmp1049)
 14203  6a0d  47                	LD B, A
 14204  6a0e  cdaa02            	CALL DSDESCRIPTOR
 14205  6a11  dd7e00            	LD A, (IX)
 14206  6a14  322c01            	LD (_printAdventureScreen_Ttmp854), A
 14207  6a17  dd7e01            	LD A, (IX+1)
 14208  6a1a  322a01            	LD (_printAdventureScreen_Ttmp853), A
 14209  6a1d  dd7e02            	LD A, (IX+2)
 14210  6a20  322b01            	LD (_printAdventureScreen_Ttmp853+1), A
 14211  6a23  3a5601            	LD A, (_printAdventureScreen_Ttmp1045)
 14212  6a26  47                	LD B, A
 14213  6a27  cd6501            	CALL DSFREE
 14214  6a2a  3a2c01            	LD A, (_printAdventureScreen_Ttmp854)
 14215  6a2d  4f                	LD C, A
 14216  6a2e  cd4e01            	CALL DSALLOC
 14217  6a31  78                	LD A, B
 14218  6a32  325601            	LD (_printAdventureScreen_Ttmp1045), A
 14219  6a35  3a5601            	LD A, (_printAdventureScreen_Ttmp1045)
 14220  6a38  47                	LD B, A
 14221  6a39  cdaa02            	CALL DSDESCRIPTOR
 14222  6a3c  dd7e00            	LD A, (IX)
 14223                          ; peephole(3): unread
 14224                          ;	LD (_printAdventureScreen_Ttmp856), A
 14225  6a3f  dd7e01            	LD A, (IX+1)
 14226  6a42  322d01            	LD (_printAdventureScreen_Ttmp855), A
 14227  6a45  dd7e02            	LD A, (IX+2)
 14228  6a48  322e01            	LD (_printAdventureScreen_Ttmp855+1), A
 14229  6a4b  2a2a01            	LD HL, (_printAdventureScreen_Ttmp853)
 14230  6a4e  ed5b2d01          	LD DE, (_printAdventureScreen_Ttmp855)
 14231  6a52  3a2c01            	LD A, (_printAdventureScreen_Ttmp854)
 14232  6a55  4f                	LD C, A
 14233  6a56  0600              	LD B, 0
 14234  6a58  cdee02            	CALL DUFFDEVICE
 14235  6a5b  3ab572            	LD A, (_printAdventureScreen_c)
 14236  6a5e  fe00              	CP $00
 14237  6a60  ca206b            	JP Z, _label1051empty
 14238  6a63  3a5601            	LD A, (_printAdventureScreen_Ttmp1045)
 14239  6a66  47                	LD B, A
 14240  6a67  cdaa02            	CALL DSDESCRIPTOR
 14241  6a6a  dd7e00            	LD A, (IX)
 14242  6a6d  323701            	LD (_printAdventureScreen_Ttmp882), A
 14243  6a70  dd7e01            	LD A, (IX+1)
 14244  6a73  322f01            	LD (_printAdventureScreen_Ttmp858), A
 14245  6a76  dd7e02            	LD A, (IX+2)
 14246  6a79  323001            	LD (_printAdventureScreen_Ttmp858+1), A
 14247  6a7c  3a3701            	LD A, (_printAdventureScreen_Ttmp882)
 14248  6a7f  47                	LD B, A
 14249  6a80  3ab572            	LD A, (_printAdventureScreen_c)
 14250  6a83  b8                	CP B
 14251  6a84  3809              	JR C, _label1053
 14252  6a86  2807              	JR Z, _label1053
 14253                          ; peephole(1): r228 (LD A, 0)->(XOR A)
 14254                          ;	LD A, 0
 14255  6a88  af                	XOR A
 14256  6a89  323901            	LD (_printAdventureScreen_Ttmp884), A
 14257  6a8c  c3946a            	JMP _label1053b2
 14258                          _label1053:
 14259  6a8f  3eff              	LD A, $ff
 14260  6a91  323901            	LD (_printAdventureScreen_Ttmp884), A
 14261                          _label1053b2:
 14262  6a94  3a3901            	LD A, (_printAdventureScreen_Ttmp884)
 14263                          ; peephole(1): r319 (XOR $FF)->(CPL)
 14264                          ;	XOR $FF
 14265  6a97  2f                	CPL
 14266  6a98  323901            	LD (_printAdventureScreen_Ttmp884), A
 14267  6a9b  3a3901            	LD A, (_printAdventureScreen_Ttmp884)
 14268  6a9e  fe00              	CP $00
 14269  6aa0  c2206b            	JP NZ, _label1051empty
 14270  6aa3  2a2f01            	LD HL, (_printAdventureScreen_Ttmp858)
 14271  6aa6  110000            	LD DE, 0
 14272  6aa9  3ab572            	LD A, (_printAdventureScreen_c)
 14273  6aac  5f                	LD E, A
 14274  6aad  19                	ADD HL, DE
 14275  6aae  222f01            	LD (_printAdventureScreen_Ttmp858), HL
 14276  6ab1  2a2f01            	LD HL, (_printAdventureScreen_Ttmp858)
 14277  6ab4  2b                	DEC HL
 14278  6ab5  222f01            	LD (_printAdventureScreen_Ttmp858), HL
 14279  6ab8  3a3701            	LD A, (_printAdventureScreen_Ttmp882)
 14280  6abb  323101            	LD (_printAdventureScreen_Ttmp859), A
 14281                          ; peephole(1): r250 (LD A, x; LD (x), A; LD A, x)->(LD A, x; LD (x), A)
 14282                          ;	LD A, (_printAdventureScreen_Ttmp882)
 14283  6abe  47                	LD B, A
 14284  6abf  3ab572            	LD A, (_printAdventureScreen_c)
 14285  6ac2  b8                	CP B
 14286  6ac3  3809              	JR C, _label1055
 14287  6ac5  2807              	JR Z, _label1055
 14288                          ; peephole(1): r228 (LD A, 0)->(XOR A)
 14289                          ;	LD A, 0
 14290  6ac7  af                	XOR A
 14291  6ac8  323901            	LD (_printAdventureScreen_Ttmp884), A
 14292  6acb  c3d36a            	JMP _label1055b2
 14293                          _label1055:
 14294  6ace  3eff              	LD A, $ff
 14295  6ad0  323901            	LD (_printAdventureScreen_Ttmp884), A
 14296                          _label1055b2:
 14297  6ad3  3a3901            	LD A, (_printAdventureScreen_Ttmp884)
 14298                          ; peephole(1): r319 (XOR $FF)->(CPL)
 14299                          ;	XOR $FF
 14300  6ad6  2f                	CPL
 14301  6ad7  323901            	LD (_printAdventureScreen_Ttmp884), A
 14302  6ada  3a3901            	LD A, (_printAdventureScreen_Ttmp884)
 14303  6add  feff              	CP $ff
 14304  6adf  ca206b            	JP Z, _label1051empty
 14305  6ae2  3a5801            	LD A, (_printAdventureScreen_Ttmp1050)
 14306  6ae5  47                	LD B, A
 14307  6ae6  cd6501            	CALL DSFREE
 14308  6ae9  3a3101            	LD A, (_printAdventureScreen_Ttmp859)
 14309  6aec  4f                	LD C, A
 14310  6aed  cd4e01            	CALL DSALLOC
 14311  6af0  78                	LD A, B
 14312  6af1  325801            	LD (_printAdventureScreen_Ttmp1050), A
 14313  6af4  3a5801            	LD A, (_printAdventureScreen_Ttmp1050)
 14314  6af7  47                	LD B, A
 14315  6af8  cdaa02            	CALL DSDESCRIPTOR
 14316  6afb  dd7e00            	LD A, (IX)
 14317  6afe  323901            	LD (_printAdventureScreen_Ttmp884), A
 14318  6b01  dd7e01            	LD A, (IX+1)
 14319  6b04  323b01            	LD (_printAdventureScreen_Ttmp888), A
 14320  6b07  dd7e02            	LD A, (IX+2)
 14321  6b0a  323c01            	LD (_printAdventureScreen_Ttmp888+1), A
 14322  6b0d  2a2f01            	LD HL, (_printAdventureScreen_Ttmp858)
 14323  6b10  ed5b3b01          	LD DE, (_printAdventureScreen_Ttmp888)
 14324  6b14  3a3101            	LD A, (_printAdventureScreen_Ttmp859)
 14325  6b17  4f                	LD C, A
 14326  6b18  0600              	LD B, 0
 14327  6b1a  cdee02            	CALL DUFFDEVICE
 14328  6b1d  c3316b            	jp _label1051done
 14329                          _label1051empty:
 14330  6b20  3a5801            	LD A, (_printAdventureScreen_Ttmp1050)
 14331  6b23  47                	LD B, A
 14332  6b24  cd6501            	CALL DSFREE
 14333  6b27  3e00              	LD A, $00
 14334  6b29  4f                	LD C, A
 14335  6b2a  cd4e01            	CALL DSALLOC
 14336  6b2d  78                	LD A, B
 14337  6b2e  325801            	LD (_printAdventureScreen_Ttmp1050), A
 14338                          _label1051done:
 14339  6b31  3a0000            	LD A, (_printAdventureScreen_Tstr1057)
 14340  6b34  323d01            	LD (_printAdventureScreen_Ttmp889), A
 14341  6b37  3a5801            	LD A, (_printAdventureScreen_Ttmp1050)
 14342  6b3a  47                	LD B, A
 14343  6b3b  cdaa02            	CALL DSDESCRIPTOR
 14344  6b3e  dd7e00            	LD A, (IX)
 14345  6b41  323a01            	LD (_printAdventureScreen_Ttmp887), A
 14346  6b44  dd7e01            	LD A, (IX+1)
 14347  6b47  323f01            	LD (_printAdventureScreen_Ttmp898), A
 14348  6b4a  dd7e02            	LD A, (IX+2)
 14349  6b4d  324001            	LD (_printAdventureScreen_Ttmp898+1), A
 14350  6b50  3a3a01            	LD A, (_printAdventureScreen_Ttmp887)
 14351  6b53  47                	LD B, A
 14352  6b54  3a3d01            	LD A, (_printAdventureScreen_Ttmp889)
 14353  6b57  b8                	CP B
 14354  6b58  c2636b            	JP NZ, _label1060
 14355  6b5b  3eff              	LD A, $ff
 14356  6b5d  323201            	LD (_printAdventureScreen_Ttmp862), A
 14357  6b60  c3686b            	JMP _label1060b2
 14358                          _label1060:
 14359  6b63  3e00              	LD A, $00
 14360  6b65  323201            	LD (_printAdventureScreen_Ttmp862), A
 14361                          _label1060b2:
 14362  6b68  3a3201            	LD A, (_printAdventureScreen_Ttmp862)
 14363  6b6b  fe00              	CP 0
 14364  6b6d  ca736b            	JP Z, _label1061
 14365  6b70  c3766b            	JMP _label1061b2
 14366                          _label1061:
 14367  6b73  c3aa6b            	JMP _label1059
 14368                          _label1061b2:
 14369  6b76  210000            	LD HL, _printAdventureScreen_Tstr1057
 14370  6b79  224b01            	LD (_printAdventureScreen_Ttmp967), HL
 14371  6b7c  2a4b01            	LD HL, (_printAdventureScreen_Ttmp967)
 14372  6b7f  23                	INC HL
 14373  6b80  224b01            	LD (_printAdventureScreen_Ttmp967), HL
 14374  6b83  3a3a01            	LD A, (_printAdventureScreen_Ttmp887)
 14375  6b86  fe00              	CP 0
 14376  6b88  2813              	JR Z, _label1062equal
 14377  6b8a  4f                	LD C, A
 14378  6b8b  2a3f01            	LD HL, (_printAdventureScreen_Ttmp898)
 14379  6b8e  ed5b4b01          	LD DE, (_printAdventureScreen_Ttmp967)
 14380                          _label1062:
 14381  6b92  7e                	LD A, (HL)
 14382  6b93  47                	LD B, A
 14383  6b94  1a                	LD A, (DE)
 14384  6b95  b8                	CP B
 14385  6b96  200d              	JR NZ, _label1062diff
 14386  6b98  13                	INC DE
 14387  6b99  23                	INC HL
 14388  6b9a  0d                	DEC C
 14389  6b9b  20f5              	JR NZ, _label1062
 14390                          _label1062equal:
 14391  6b9d  3eff              	LD A, $ff
 14392  6b9f  323201            	LD (_printAdventureScreen_Ttmp862), A
 14393  6ba2  c3aa6b            	JMP _label1062final
 14394                          _label1062diff:
 14395  6ba5  3e00              	LD A, $00
 14396  6ba7  323201            	LD (_printAdventureScreen_Ttmp862), A
 14397                          _label1062final:
 14398                          _label1059:
 14399  6baa  3a3201            	LD A, (_printAdventureScreen_Ttmp862)
 14400  6bad  fe00              	CP 0
 14401  6baf  cab56b            	JP Z, _label1064
 14402  6bb2  c3b86b            	JMP _label1064b2
 14403                          _label1064:
 14404  6bb5  c3ae6c            	JMP _label1063e0
 14405                          _label1064b2:
 14406                          _label1063t:
 14407                          	; P:256
 14408                          	; L:287
 14409  6bb8  3e04              	LD A, $04
 14410  6bba  321701            	LD (_printAdventureScreen_Ttmp836), A
 14411  6bbd  3e00              	LD A, $00
 14412  6bbf  321d01            	LD (_printAdventureScreen_Ttmp843), A
 14413                          ; peephole(1): r250 (LD A, x; LD (x), A; LD A, x)->(LD A, x; LD (x), A)
 14414                          ;	LD A, $00
 14415  6bc2  321e01            	LD (_printAdventureScreen_Ttmp843+1), A
 14416  6bc5  3e00              	LD A, $00
 14417  6bc7  321f01            	LD (_printAdventureScreen_Ttmp844), A
 14418                          ; peephole(1): r250 (LD A, x; LD (x), A; LD A, x)->(LD A, x; LD (x), A)
 14419                          ;	LD A, $00
 14420  6bca  322001            	LD (_printAdventureScreen_Ttmp844+1), A
 14421  6bcd  3a1701            	LD A, (_printAdventureScreen_Ttmp836)
 14422  6bd0  321f01            	LD (_printAdventureScreen_Ttmp844), A
 14423  6bd3  2a1d01            	LD HL, (_printAdventureScreen_Ttmp843)
 14424  6bd6  ed5b1f01          	LD DE, (_printAdventureScreen_Ttmp844)
 14425  6bda  19                	ADD HL, DE
 14426  6bdb  221d01            	LD (_printAdventureScreen_Ttmp843), HL
 14427  6bde  e600              	AND $0
 14428  6be0  2a1d01            	LD HL, (_printAdventureScreen_Ttmp843)
 14429  6be3  115871            	LD DE, _options
 14430  6be6  19                	ADD HL, DE
 14431  6be7  221d01            	LD (_printAdventureScreen_Ttmp843), HL
 14432  6bea  ed5b1d01          	LD DE, (_printAdventureScreen_Ttmp843)
 14433  6bee  1a                	LD A, (DE)
 14434  6bef  325901            	LD (_printAdventureScreen_Ttmp1068), A
 14435  6bf2  3a0000            	LD A, (_printAdventureScreen_Tstr1065)
 14436  6bf5  321901            	LD (_printAdventureScreen_Ttmp839), A
 14437  6bf8  210000            	LD HL, _printAdventureScreen_Tstr1065
 14438  6bfb  222a01            	LD (_printAdventureScreen_Ttmp853), HL
 14439  6bfe  2a2a01            	LD HL, (_printAdventureScreen_Ttmp853)
 14440  6c01  23                	INC HL
 14441  6c02  222a01            	LD (_printAdventureScreen_Ttmp853), HL
 14442  6c05  3a5901            	LD A, (_printAdventureScreen_Ttmp1068)
 14443  6c08  47                	LD B, A
 14444  6c09  cd6501            	CALL DSFREE
 14445  6c0c  3a1901            	LD A, (_printAdventureScreen_Ttmp839)
 14446  6c0f  4f                	LD C, A
 14447  6c10  cd4e01            	CALL DSALLOC
 14448  6c13  78                	LD A, B
 14449  6c14  325901            	LD (_printAdventureScreen_Ttmp1068), A
 14450  6c17  3a5901            	LD A, (_printAdventureScreen_Ttmp1068)
 14451  6c1a  47                	LD B, A
 14452  6c1b  cdaa02            	CALL DSDESCRIPTOR
 14453  6c1e  dd7e00            	LD A, (IX)
 14454                          ; peephole(3): unread
 14455                          ;	LD (_printAdventureScreen_Ttmp851), A
 14456  6c21  dd7e01            	LD A, (IX+1)
 14457  6c24  322d01            	LD (_printAdventureScreen_Ttmp855), A
 14458  6c27  dd7e02            	LD A, (IX+2)
 14459  6c2a  322e01            	LD (_printAdventureScreen_Ttmp855+1), A
 14460  6c2d  2a2a01            	LD HL, (_printAdventureScreen_Ttmp853)
 14461  6c30  ed5b2d01          	LD DE, (_printAdventureScreen_Ttmp855)
 14462  6c34  3a1901            	LD A, (_printAdventureScreen_Ttmp839)
 14463  6c37  4f                	LD C, A
 14464  6c38  0600              	LD B, 0
 14465  6c3a  cdee02            	CALL DUFFDEVICE
 14466  6c3d  ed5b1d01          	LD DE, (_printAdventureScreen_Ttmp843)
 14467  6c41  3a5901            	LD A, (_printAdventureScreen_Ttmp1068)
 14468  6c44  12                	LD (DE), A
 14469  6c45  3e00              	LD A, $00
 14470  6c47  325901            	LD (_printAdventureScreen_Ttmp1068), A
 14471                          	; L:287
 14472  6c4a  3e04              	LD A, $04
 14473  6c4c  321701            	LD (_printAdventureScreen_Ttmp836), A
 14474  6c4f  3e01              	LD A, $01
 14475  6c51  321801            	LD (_printAdventureScreen_Ttmp837), A
 14476  6c54  3e00              	LD A, $00
 14477  6c56  321b01            	LD (_printAdventureScreen_Ttmp842), A
 14478                          ; peephole(1): r250 (LD A, x; LD (x), A; LD A, x)->(LD A, x; LD (x), A)
 14479                          ;	LD A, $00
 14480  6c59  321c01            	LD (_printAdventureScreen_Ttmp842+1), A
 14481  6c5c  3a1801            	LD A, (_printAdventureScreen_Ttmp837)
 14482  6c5f  321b01            	LD (_printAdventureScreen_Ttmp842), A
 14483  6c62  3e00              	LD A, $00
 14484  6c64  321f01            	LD (_printAdventureScreen_Ttmp844), A
 14485                          ; peephole(1): r250 (LD A, x; LD (x), A; LD A, x)->(LD A, x; LD (x), A)
 14486                          ;	LD A, $00
 14487  6c67  322001            	LD (_printAdventureScreen_Ttmp844+1), A
 14488  6c6a  3e00              	LD A, $00
 14489  6c6c  322101            	LD (_printAdventureScreen_Ttmp846), A
 14490                          ; peephole(1): r250 (LD A, x; LD (x), A; LD A, x)->(LD A, x; LD (x), A)
 14491                          ;	LD A, $00
 14492  6c6f  322201            	LD (_printAdventureScreen_Ttmp846+1), A
 14493  6c72  3a1701            	LD A, (_printAdventureScreen_Ttmp836)
 14494  6c75  322101            	LD (_printAdventureScreen_Ttmp846), A
 14495  6c78  2a1f01            	LD HL, (_printAdventureScreen_Ttmp844)
 14496  6c7b  ed5b2101          	LD DE, (_printAdventureScreen_Ttmp846)
 14497  6c7f  19                	ADD HL, DE
 14498  6c80  221f01            	LD (_printAdventureScreen_Ttmp844), HL
 14499  6c83  3a1f01            	LD A, (_printAdventureScreen_Ttmp844)
 14500  6c86  322701            	LD (_printAdventureScreen_Ttmp850), A
 14501  6c89  3a2001            	LD A, (_printAdventureScreen_Ttmp844+1)
 14502  6c8c  322801            	LD (_printAdventureScreen_Ttmp850+1), A
 14503  6c8f  2a2701            	LD HL, (_printAdventureScreen_Ttmp850)
 14504                          ; peephole(1): r349 (SLA+RL)->(ADD)
 14505                          ;	SLA L
 14506  6c92  29                	ADD HL, HL
 14507                          ;	RL H
 14508  6c93  222701            	LD (_printAdventureScreen_Ttmp850), HL
 14509  6c96  e600              	AND $0
 14510  6c98  2a2701            	LD HL, (_printAdventureScreen_Ttmp850)
 14511  6c9b  114871            	LD DE, _availableoptions
 14512  6c9e  19                	ADD HL, DE
 14513  6c9f  222701            	LD (_printAdventureScreen_Ttmp850), HL
 14514  6ca2  ed5b2701          	LD DE, (_printAdventureScreen_Ttmp850)
 14515  6ca6  2a1b01            	LD HL, (_printAdventureScreen_Ttmp842)
 14516  6ca9  7d                	LD A, L
 14517  6caa  12                	LD (DE), A
 14518  6cab  13                	INC DE
 14519  6cac  7c                	LD A, H
 14520  6cad  12                	LD (DE), A
 14521                          	; P:103
 14522                          	; L:288
 14523                          _label1063f:
 14524                          _label1063e0:
 14525                          	; P:2
 14526                          	; L:289
 14527  6cae  0600              	LD B, 0
 14528  6cb0  3ab572            	LD A, (_printAdventureScreen_c)
 14529  6cb3  47                	LD B, A
 14530  6cb4  3a7e01            	LD A, (_TRtmp944)
 14531  6cb7  80                	ADD A, B
 14532  6cb8  32b572            	LD (_printAdventureScreen_c), A
 14533  6cbb  3ab572            	LD A, (_printAdventureScreen_c)
 14534  6cbe  fe00              	CP $00
 14535  6cc0  cac66c            	JP Z, _label946bis
 14536  6cc3  c3b95e            	jp _label946bf
 14537                          _label946bis:
 14538                          	; P:11
 14539                          	; L:290
 14540                          ; peephole(1): r383 (CALL+RET)->(JP)
 14541                          ;	call printOptions
 14542  6cc6  c3ba2f            	JP printOptions
 14543                          	; P:1
 14544                          	; L:291
 14545                          ;	RET
 14546                          printAdventureScreenafter:
 14547                          	; P:2
 14548                          	; L:292
 14549                          	; P:0
 14550                          	; L:293
 14551  6cc9  c3e86c            	jp initAdventurModeafter
 14552                          initAdventurMode:
 14553                          	; P:2
 14554                          	; L:294
 14555  6ccc  cd2b32            	call resetOptions
 14556                          	; P:1
 14557                          	; L:295
 14558  6ccf  3e02              	LD A, $02
 14559  6cd1  325a01            	LD (_initAdventurMode_Ttmp1076), A
 14560  6cd4  3e00              	LD A, $00
 14561  6cd6  325b01            	LD (_initAdventurMode_Ttmp1076+1), A
 14562  6cd9  3a5a01            	LD A, (_initAdventurMode_Ttmp1076)
 14563  6cdc  32b372            	LD (_gamemode), A
 14564  6cdf  3a5b01            	LD A, (_initAdventurMode_Ttmp1076+1)
 14565  6ce2  32b472            	LD (_gamemode+1), A
 14566                          	; P:8
 14567                          	; L:296
 14568                          ; peephole(1): r383 (CALL+RET)->(JP)
 14569                          ;	call printAdventureScreen
 14570  6ce5  c36954            	JP printAdventureScreen
 14571                          	; P:1
 14572                          	; L:297
 14573                          ;	RET
 14574                          initAdventurModeafter:
 14575                          	; P:2
 14576                          	; L:298
 14577                          	; P:0
 14578                          	; L:299
 14579  6ce8  c3bd6e            	jp updateCreateCharModeafter
 14580                          updateCreateCharMode:
 14581                          	; P:2
 14582                          	; L:300
 14583  6ceb  3a0000            	LD A, (_updateCreateCharMode_Tstr1078)
 14584  6cee  326201            	LD (_updateCreateCharMode_Ttmp1085), A
 14585  6cf1  3ab672            	LD A, (_updateCreateCharMode__l)
 14586  6cf4  47                	LD B, A
 14587  6cf5  cdaa02            	CALL DSDESCRIPTOR
 14588  6cf8  dd7e00            	LD A, (IX)
 14589  6cfb  325f01            	LD (_updateCreateCharMode_Ttmp1083), A
 14590  6cfe  dd7e01            	LD A, (IX+1)
 14591  6d01  325d01            	LD (_updateCreateCharMode_Ttmp1082), A
 14592  6d04  dd7e02            	LD A, (IX+2)
 14593  6d07  325e01            	LD (_updateCreateCharMode_Ttmp1082+1), A
 14594  6d0a  3a5f01            	LD A, (_updateCreateCharMode_Ttmp1083)
 14595  6d0d  47                	LD B, A
 14596  6d0e  3a6201            	LD A, (_updateCreateCharMode_Ttmp1085)
 14597  6d11  b8                	CP B
 14598  6d12  c21d6d            	JP NZ, _label1086
 14599  6d15  3eff              	LD A, $ff
 14600  6d17  325c01            	LD (_updateCreateCharMode_Ttmp1081), A
 14601  6d1a  c3226d            	JMP _label1086b2
 14602                          _label1086:
 14603  6d1d  3e00              	LD A, $00
 14604  6d1f  325c01            	LD (_updateCreateCharMode_Ttmp1081), A
 14605                          _label1086b2:
 14606  6d22  3a5c01            	LD A, (_updateCreateCharMode_Ttmp1081)
 14607  6d25  fe00              	CP 0
 14608  6d27  ca2d6d            	JP Z, _label1087
 14609  6d2a  c3306d            	JMP _label1087b2
 14610                          _label1087:
 14611  6d2d  c3646d            	JMP _label1080
 14612                          _label1087b2:
 14613  6d30  210000            	LD HL, _updateCreateCharMode_Tstr1078
 14614  6d33  226001            	LD (_updateCreateCharMode_Ttmp1084), HL
 14615  6d36  2a6001            	LD HL, (_updateCreateCharMode_Ttmp1084)
 14616  6d39  23                	INC HL
 14617  6d3a  226001            	LD (_updateCreateCharMode_Ttmp1084), HL
 14618  6d3d  3a5f01            	LD A, (_updateCreateCharMode_Ttmp1083)
 14619  6d40  fe00              	CP 0
 14620  6d42  2813              	JR Z, _label1088equal
 14621  6d44  4f                	LD C, A
 14622  6d45  2a5d01            	LD HL, (_updateCreateCharMode_Ttmp1082)
 14623  6d48  ed5b6001          	LD DE, (_updateCreateCharMode_Ttmp1084)
 14624                          _label1088:
 14625  6d4c  7e                	LD A, (HL)
 14626  6d4d  47                	LD B, A
 14627  6d4e  1a                	LD A, (DE)
 14628  6d4f  b8                	CP B
 14629  6d50  200d              	JR NZ, _label1088diff
 14630  6d52  13                	INC DE
 14631  6d53  23                	INC HL
 14632  6d54  0d                	DEC C
 14633  6d55  20f5              	JR NZ, _label1088
 14634                          _label1088equal:
 14635  6d57  3eff              	LD A, $ff
 14636  6d59  325c01            	LD (_updateCreateCharMode_Ttmp1081), A
 14637  6d5c  c3646d            	JMP _label1088final
 14638                          _label1088diff:
 14639  6d5f  3e00              	LD A, $00
 14640  6d61  325c01            	LD (_updateCreateCharMode_Ttmp1081), A
 14641                          _label1088final:
 14642                          _label1080:
 14643  6d64  3e00              	LD A, $00
 14644  6d66  326301            	LD (_updateCreateCharMode_Ttmp1089), A
 14645  6d69  3a6301            	LD A, (_updateCreateCharMode_Ttmp1089)
 14646  6d6c  47                	LD B, A
 14647  6d6d  3a8372            	LD A, (_charPoints)
 14648  6d70  b8                	CP B
 14649  6d71  3809              	JR C, _label1092
 14650  6d73  2807              	JR Z, _label1092
 14651                          ; peephole(1): r228 (LD A, 0)->(XOR A)
 14652                          ;	LD A, 0
 14653  6d75  af                	XOR A
 14654  6d76  326401            	LD (_updateCreateCharMode_Ttmp1091), A
 14655  6d79  c3816d            	JMP _label1092b2
 14656                          _label1092:
 14657  6d7c  3eff              	LD A, $ff
 14658  6d7e  326401            	LD (_updateCreateCharMode_Ttmp1091), A
 14659                          _label1092b2:
 14660  6d81  3a6401            	LD A, (_updateCreateCharMode_Ttmp1091)
 14661                          ; peephole(1): r319 (XOR $FF)->(CPL)
 14662                          ;	XOR $FF
 14663  6d84  2f                	CPL
 14664  6d85  326401            	LD (_updateCreateCharMode_Ttmp1091), A
 14665  6d88  215c01            	LD HL, _updateCreateCharMode_Ttmp1081
 14666  6d8b  dd216401          	LD IX, _updateCreateCharMode_Ttmp1091
 14667  6d8f  116501            	LD DE, _updateCreateCharMode_Ttmp1093
 14668  6d92  7e                	LD A, (HL)
 14669  6d93  dda600            	AND (IX)
 14670  6d96  12                	LD (DE), A
 14671  6d97  3a6501            	LD A, (_updateCreateCharMode_Ttmp1093)
 14672  6d9a  fe00              	CP 0
 14673  6d9c  caa26d            	JP Z, _label1096
 14674  6d9f  c3a56d            	JMP _label1096b2
 14675                          _label1096:
 14676  6da2  c3a86d            	JMP _label1095e0
 14677                          _label1096b2:
 14678                          _label1095t:
 14679                          	; P:92
 14680                          	; L:301
 14681  6da5  cd164a            	call spendcharpoint
 14682                          	; P:1
 14683                          	; L:302
 14684                          _label1095f:
 14685                          _label1095e0:
 14686                          	; P:2
 14687                          	; L:303
 14688  6da8  3a0000            	LD A, (_updateCreateCharMode_Tstr1097)
 14689  6dab  326201            	LD (_updateCreateCharMode_Ttmp1085), A
 14690  6dae  3ab672            	LD A, (_updateCreateCharMode__l)
 14691  6db1  47                	LD B, A
 14692  6db2  cdaa02            	CALL DSDESCRIPTOR
 14693  6db5  dd7e00            	LD A, (IX)
 14694  6db8  325f01            	LD (_updateCreateCharMode_Ttmp1083), A
 14695  6dbb  dd7e01            	LD A, (IX+1)
 14696  6dbe  325d01            	LD (_updateCreateCharMode_Ttmp1082), A
 14697  6dc1  dd7e02            	LD A, (IX+2)
 14698  6dc4  325e01            	LD (_updateCreateCharMode_Ttmp1082+1), A
 14699  6dc7  3a5f01            	LD A, (_updateCreateCharMode_Ttmp1083)
 14700  6dca  47                	LD B, A
 14701  6dcb  3a6201            	LD A, (_updateCreateCharMode_Ttmp1085)
 14702  6dce  b8                	CP B
 14703  6dcf  c2da6d            	JP NZ, _label1100
 14704  6dd2  3eff              	LD A, $ff
 14705  6dd4  325c01            	LD (_updateCreateCharMode_Ttmp1081), A
 14706  6dd7  c3df6d            	JMP _label1100b2
 14707                          _label1100:
 14708  6dda  3e00              	LD A, $00
 14709  6ddc  325c01            	LD (_updateCreateCharMode_Ttmp1081), A
 14710                          _label1100b2:
 14711  6ddf  3a5c01            	LD A, (_updateCreateCharMode_Ttmp1081)
 14712  6de2  fe00              	CP 0
 14713  6de4  caea6d            	JP Z, _label1101
 14714  6de7  c3ed6d            	JMP _label1101b2
 14715                          _label1101:
 14716  6dea  c3216e            	JMP _label1099
 14717                          _label1101b2:
 14718  6ded  210000            	LD HL, _updateCreateCharMode_Tstr1097
 14719  6df0  226001            	LD (_updateCreateCharMode_Ttmp1084), HL
 14720  6df3  2a6001            	LD HL, (_updateCreateCharMode_Ttmp1084)
 14721  6df6  23                	INC HL
 14722  6df7  226001            	LD (_updateCreateCharMode_Ttmp1084), HL
 14723  6dfa  3a5f01            	LD A, (_updateCreateCharMode_Ttmp1083)
 14724  6dfd  fe00              	CP 0
 14725  6dff  2813              	JR Z, _label1102equal
 14726  6e01  4f                	LD C, A
 14727  6e02  2a5d01            	LD HL, (_updateCreateCharMode_Ttmp1082)
 14728  6e05  ed5b6001          	LD DE, (_updateCreateCharMode_Ttmp1084)
 14729                          _label1102:
 14730  6e09  7e                	LD A, (HL)
 14731  6e0a  47                	LD B, A
 14732  6e0b  1a                	LD A, (DE)
 14733  6e0c  b8                	CP B
 14734  6e0d  200d              	JR NZ, _label1102diff
 14735  6e0f  13                	INC DE
 14736  6e10  23                	INC HL
 14737  6e11  0d                	DEC C
 14738  6e12  20f5              	JR NZ, _label1102
 14739                          _label1102equal:
 14740  6e14  3eff              	LD A, $ff
 14741  6e16  325c01            	LD (_updateCreateCharMode_Ttmp1081), A
 14742  6e19  c3216e            	JMP _label1102final
 14743                          _label1102diff:
 14744  6e1c  3e00              	LD A, $00
 14745  6e1e  325c01            	LD (_updateCreateCharMode_Ttmp1081), A
 14746                          _label1102final:
 14747                          _label1099:
 14748  6e21  3a5c01            	LD A, (_updateCreateCharMode_Ttmp1081)
 14749  6e24  fe00              	CP 0
 14750  6e26  ca2c6e            	JP Z, _label1104
 14751  6e29  c32f6e            	JMP _label1104b2
 14752                          _label1104:
 14753  6e2c  c3326e            	JMP _label1103e0
 14754                          _label1104b2:
 14755                          _label1103t:
 14756                          	; P:68
 14757                          	; L:304
 14758  6e2f  cdd34e            	call retractcharpoint
 14759                          	; P:1
 14760                          	; L:305
 14761                          _label1103f:
 14762                          _label1103e0:
 14763                          	; P:2
 14764                          	; L:306
 14765  6e32  3a0000            	LD A, (_updateCreateCharMode_Tstr1105)
 14766  6e35  326201            	LD (_updateCreateCharMode_Ttmp1085), A
 14767  6e38  3ab672            	LD A, (_updateCreateCharMode__l)
 14768  6e3b  47                	LD B, A
 14769  6e3c  cdaa02            	CALL DSDESCRIPTOR
 14770  6e3f  dd7e00            	LD A, (IX)
 14771  6e42  325f01            	LD (_updateCreateCharMode_Ttmp1083), A
 14772  6e45  dd7e01            	LD A, (IX+1)
 14773  6e48  325d01            	LD (_updateCreateCharMode_Ttmp1082), A
 14774  6e4b  dd7e02            	LD A, (IX+2)
 14775  6e4e  325e01            	LD (_updateCreateCharMode_Ttmp1082+1), A
 14776  6e51  3a5f01            	LD A, (_updateCreateCharMode_Ttmp1083)
 14777  6e54  47                	LD B, A
 14778  6e55  3a6201            	LD A, (_updateCreateCharMode_Ttmp1085)
 14779  6e58  b8                	CP B
 14780  6e59  c2646e            	JP NZ, _label1107
 14781  6e5c  3eff              	LD A, $ff
 14782  6e5e  325c01            	LD (_updateCreateCharMode_Ttmp1081), A
 14783  6e61  c3696e            	JMP _label1107b2
 14784                          _label1107:
 14785  6e64  3e00              	LD A, $00
 14786  6e66  325c01            	LD (_updateCreateCharMode_Ttmp1081), A
 14787                          _label1107b2:
 14788  6e69  3a5c01            	LD A, (_updateCreateCharMode_Ttmp1081)
 14789  6e6c  fe00              	CP 0
 14790  6e6e  ca746e            	JP Z, _label1108
 14791  6e71  c3776e            	JMP _label1108b2
 14792                          _label1108:
 14793  6e74  c3ab6e            	JMP _label1106
 14794                          _label1108b2:
 14795  6e77  210000            	LD HL, _updateCreateCharMode_Tstr1105
 14796  6e7a  226001            	LD (_updateCreateCharMode_Ttmp1084), HL
 14797  6e7d  2a6001            	LD HL, (_updateCreateCharMode_Ttmp1084)
 14798  6e80  23                	INC HL
 14799  6e81  226001            	LD (_updateCreateCharMode_Ttmp1084), HL
 14800  6e84  3a5f01            	LD A, (_updateCreateCharMode_Ttmp1083)
 14801  6e87  fe00              	CP 0
 14802  6e89  2813              	JR Z, _label1109equal
 14803  6e8b  4f                	LD C, A
 14804  6e8c  2a5d01            	LD HL, (_updateCreateCharMode_Ttmp1082)
 14805  6e8f  ed5b6001          	LD DE, (_updateCreateCharMode_Ttmp1084)
 14806                          _label1109:
 14807  6e93  7e                	LD A, (HL)
 14808  6e94  47                	LD B, A
 14809  6e95  1a                	LD A, (DE)
 14810  6e96  b8                	CP B
 14811  6e97  200d              	JR NZ, _label1109diff
 14812  6e99  13                	INC DE
 14813  6e9a  23                	INC HL
 14814  6e9b  0d                	DEC C
 14815  6e9c  20f5              	JR NZ, _label1109
 14816                          _label1109equal:
 14817  6e9e  3eff              	LD A, $ff
 14818  6ea0  325c01            	LD (_updateCreateCharMode_Ttmp1081), A
 14819  6ea3  c3ab6e            	JMP _label1109final
 14820                          _label1109diff:
 14821  6ea6  3e00              	LD A, $00
 14822  6ea8  325c01            	LD (_updateCreateCharMode_Ttmp1081), A
 14823                          _label1109final:
 14824                          _label1106:
 14825  6eab  3a5c01            	LD A, (_updateCreateCharMode_Ttmp1081)
 14826  6eae  fe00              	CP 0
 14827  6eb0  cab66e            	JP Z, _label1111
 14828  6eb3  c3b96e            	JMP _label1111b2
 14829                          _label1111:
 14830  6eb6  c3bc6e            	JMP _label1110e0
 14831                          _label1111b2:
 14832                          _label1110t:
 14833                          	; P:68
 14834                          	; L:307
 14835  6eb9  cdcc6c            	call initAdventurMode
 14836                          	; P:1
 14837                          	; L:308
 14838                          _label1110f:
 14839                          _label1110e0:
 14840                          	; P:2
 14841                          	; L:309
 14842  6ebc  c9                	RET
 14843                          updateCreateCharModeafter:
 14844                          	; P:2
 14845                          	; L:310
 14846                          	; P:0
 14847                          	; L:311
 14848                          	; P:0
 14849                          	; L:312
 14850  6ebd  c3c16e            	jp updateAdventurModeafter
 14851                          updateAdventurMode:
 14852                          	; P:2
 14853                          	; L:313
 14854                          	; P:0
 14855                          	; L:314
 14856  6ec0  c9                	RET
 14857                          updateAdventurModeafter:
 14858                          	; P:2
 14859                          	; L:315
 14860                          	; P:0
 14861                          	; L:316
 14862  6ec1  cd4d45            	call initCharScreen
 14863                          	; P:1
 14864                          	; L:317
 14865                          	; P:0
 14866                          	; L:318
 14867                          _label1112:
 14868  6ec4  3e01              	LD A, $01
 14869  6ec6  320000            	LD (_Ttmp1), A
 14870  6ec9  3a0000            	LD A, (_Ttmp1)
 14871  6ecc  fe00              	CP 0
 14872  6ece  cad46e            	JP Z, _label1113
 14873  6ed1  c3d76e            	JMP _label1113b2
 14874                          _label1113:
 14875  6ed4  c3ca70            	JMP _label1112bis
 14876                          _label1113b2:
 14877                          	; P:10
 14878                          	; L:319
 14879  6ed7  3a1f00            	LD A, (_Ttmp1114)
 14880  6eda  47                	LD B, A
 14881  6edb  cd6501            	CALL DSFREE
 14882  6ede  210000            	LD HL, _Tstr1116
 14883  6ee1  cd3701            	CALL DSDEFINE
 14884  6ee4  78                	LD A, B
 14885  6ee5  321f00            	LD (_Ttmp1114), A
 14886  6ee8  3a1f00            	LD A, (_Ttmp1114)
 14887  6eeb  47                	LD B, A
 14888  6eec  cd6d01            	CALL DSWRITE
 14889  6eef  3a1f00            	LD A, (_Ttmp1114)
 14890  6ef2  47                	LD B, A
 14891  6ef3  cdaa02            	CALL DSDESCRIPTOR
 14892  6ef6  dd7e00            	LD A, (IX)
 14893  6ef9  320000            	LD (_Ttmp1), A
 14894  6efc  dd7e01            	LD A, (IX+1)
 14895  6eff  321200            	LD (_Ttmp20), A
 14896  6f02  dd7e02            	LD A, (IX+2)
 14897  6f05  321300            	LD (_Ttmp20+1), A
 14898                          zxinkey_label1118:
 14899                          ; peephole(1): r228 (LD A, 0)->(XOR A)
 14900                          ;	LD A, 0
 14901  6f08  af                	XOR A
 14902  6f09  320000            	LD (_Ttmp1), A
 14903  6f0c  322000            	LD (_Ttmp1115), A
 14904  6f0f  3a085c            	LD A, ($5C08)
 14905  6f12  fe00              	CP 0
 14906  6f14  280c              	JR Z, _label1118nokey
 14907  6f16  322000            	LD (_Ttmp1115), a
 14908  6f19  3eff              	LD A, $FF
 14909  6f1b  320000            	LD (_Ttmp1), A
 14910                          ; peephole(1): r228 (LD A, 0)->(XOR A)
 14911                          ;	LD A, 0
 14912  6f1e  af                	XOR A
 14913  6f1f  32085c            	LD ($5C08), A
 14914                          _label1118nokey:
 14915  6f22  3a0000            	LD A, (_Ttmp1)
 14916  6f25  fe00              	CP 0
 14917  6f27  ca2d6f            	JP Z, _label1119
 14918  6f2a  c3306f            	JMP _label1119b2
 14919                          _label1119:
 14920  6f2d  c3456f            	JMP _label1117nokeyPressed
 14921                          _label1119b2:
 14922  6f30  ed5b1200          	LD DE, (_Ttmp20)
 14923  6f34  3a2000            	LD A, (_Ttmp1115)
 14924  6f37  12                	LD (DE), A
 14925  6f38  3a1f00            	LD A, (_Ttmp1114)
 14926  6f3b  47                	LD B, A
 14927  6f3c  3e01              	LD A, $01
 14928  6f3e  4f                	LD C, A
 14929  6f3f  cdae01            	CALL DSRESIZE
 14930  6f42  c34f6f            	jp _label1117finished
 14931                          _label1117nokeyPressed:
 14932  6f45  3a1f00            	LD A, (_Ttmp1114)
 14933  6f48  47                	LD B, A
 14934  6f49  3e00              	LD A, $00
 14935  6f4b  4f                	LD C, A
 14936  6f4c  cdae01            	CALL DSRESIZE
 14937                          _label1117finished:
 14938  6f4f  3a1f00            	LD A, (_Ttmp1114)
 14939  6f52  47                	LD B, A
 14940  6f53  cdaa02            	CALL DSDESCRIPTOR
 14941  6f56  dd7e00            	LD A, (IX)
 14942  6f59  320800            	LD (_Ttmp8), A
 14943  6f5c  dd7e01            	LD A, (IX+1)
 14944  6f5f  321500            	LD (_Ttmp22), A
 14945  6f62  dd7e02            	LD A, (IX+2)
 14946  6f65  321600            	LD (_Ttmp22+1), A
 14947  6f68  3ab772            	LD A, (_k)
 14948  6f6b  47                	LD B, A
 14949  6f6c  cd6501            	CALL DSFREE
 14950  6f6f  3a0800            	LD A, (_Ttmp8)
 14951  6f72  4f                	LD C, A
 14952  6f73  cd4e01            	CALL DSALLOC
 14953  6f76  78                	LD A, B
 14954  6f77  32b772            	LD (_k), A
 14955  6f7a  3ab772            	LD A, (_k)
 14956  6f7d  47                	LD B, A
 14957  6f7e  cdaa02            	CALL DSDESCRIPTOR
 14958  6f81  dd7e00            	LD A, (IX)
 14959                          ; peephole(3): unread
 14960                          ;	LD (_Ttmp9), A
 14961  6f84  dd7e01            	LD A, (IX+1)
 14962  6f87  322100            	LD (_Ttmp1120), A
 14963  6f8a  dd7e02            	LD A, (IX+2)
 14964  6f8d  322200            	LD (_Ttmp1120+1), A
 14965  6f90  2a1500            	LD HL, (_Ttmp22)
 14966  6f93  ed5b2100          	LD DE, (_Ttmp1120)
 14967  6f97  3a0800            	LD A, (_Ttmp8)
 14968  6f9a  4f                	LD C, A
 14969  6f9b  0600              	LD B, 0
 14970  6f9d  cdee02            	CALL DUFFDEVICE
 14971                          	; P:87
 14972                          	; L:320
 14973  6fa0  3ab772            	LD A, (_k)
 14974  6fa3  47                	LD B, A
 14975  6fa4  cdaa02            	CALL DSDESCRIPTOR
 14976  6fa7  dd7e00            	LD A, (IX)
 14977  6faa  320100            	LD (_Ttmp2), A
 14978  6fad  dd7e01            	LD A, (IX+1)
 14979  6fb0  321200            	LD (_Ttmp20), A
 14980  6fb3  dd7e02            	LD A, (IX+2)
 14981  6fb6  321300            	LD (_Ttmp20+1), A
 14982  6fb9  3a9372            	LD A, (_updatedecide__l)
 14983  6fbc  47                	LD B, A
 14984  6fbd  cd6501            	CALL DSFREE
 14985  6fc0  3a0100            	LD A, (_Ttmp2)
 14986  6fc3  4f                	LD C, A
 14987  6fc4  cd4e01            	CALL DSALLOC
 14988  6fc7  78                	LD A, B
 14989  6fc8  329372            	LD (_updatedecide__l), A
 14990  6fcb  3a9372            	LD A, (_updatedecide__l)
 14991  6fce  47                	LD B, A
 14992  6fcf  cdaa02            	CALL DSDESCRIPTOR
 14993  6fd2  dd7e00            	LD A, (IX)
 14994  6fd5  320800            	LD (_Ttmp8), A
 14995  6fd8  dd7e01            	LD A, (IX+1)
 14996  6fdb  321500            	LD (_Ttmp22), A
 14997  6fde  dd7e02            	LD A, (IX+2)
 14998  6fe1  321600            	LD (_Ttmp22+1), A
 14999  6fe4  2a1200            	LD HL, (_Ttmp20)
 15000  6fe7  ed5b1500          	LD DE, (_Ttmp22)
 15001  6feb  3a0100            	LD A, (_Ttmp2)
 15002  6fee  4f                	LD C, A
 15003  6fef  0600              	LD B, 0
 15004  6ff1  cdee02            	CALL DUFFDEVICE
 15005  6ff4  cd8e36            	call updatedecide
 15006                          	; P:33
 15007                          	; L:321
 15008  6ff7  3e01              	LD A, $01
 15009  6ff9  320200            	LD (_Ttmp5), A
 15010  6ffc  3e00              	LD A, $00
 15011  6ffe  320300            	LD (_Ttmp5+1), A
 15012  7001  3ab372            	LD A, (_gamemode)
 15013  7004  47                	LD B, A
 15014  7005  3a0200            	LD A, (_Ttmp5)
 15015  7008  b8                	CP B
 15016  7009  c21f70            	JP NZ, _label1123
 15017  700c  3ab472            	LD A, (_gamemode+1)
 15018  700f  47                	LD B, A
 15019  7010  3a0300            	LD A, (_Ttmp5+1)
 15020  7013  b8                	CP B
 15021  7014  c21f70            	JP NZ, _label1123
 15022  7017  3eff              	LD A, $ff
 15023  7019  322300            	LD (_Ttmp1122), A
 15024  701c  c32470            	JMP _label1123b2
 15025                          _label1123:
 15026  701f  3e00              	LD A, $00
 15027  7021  322300            	LD (_Ttmp1122), A
 15028                          _label1123b2:
 15029  7024  3a2300            	LD A, (_Ttmp1122)
 15030  7027  fe00              	CP 0
 15031  7029  ca2f70            	JP Z, _label1125
 15032  702c  c33270            	JMP _label1125b2
 15033                          _label1125:
 15034  702f  c38970            	JMP _label1124e0
 15035                          _label1125b2:
 15036                          _label1124t:
 15037                          	; P:29
 15038                          	; L:322
 15039  7032  3ab772            	LD A, (_k)
 15040  7035  47                	LD B, A
 15041  7036  cdaa02            	CALL DSDESCRIPTOR
 15042  7039  dd7e00            	LD A, (IX)
 15043  703c  320100            	LD (_Ttmp2), A
 15044  703f  dd7e01            	LD A, (IX+1)
 15045  7042  321200            	LD (_Ttmp20), A
 15046  7045  dd7e02            	LD A, (IX+2)
 15047  7048  321300            	LD (_Ttmp20+1), A
 15048  704b  3ab672            	LD A, (_updateCreateCharMode__l)
 15049  704e  47                	LD B, A
 15050  704f  cd6501            	CALL DSFREE
 15051  7052  3a0100            	LD A, (_Ttmp2)
 15052  7055  4f                	LD C, A
 15053  7056  cd4e01            	CALL DSALLOC
 15054  7059  78                	LD A, B
 15055  705a  32b672            	LD (_updateCreateCharMode__l), A
 15056  705d  3ab672            	LD A, (_updateCreateCharMode__l)
 15057  7060  47                	LD B, A
 15058  7061  cdaa02            	CALL DSDESCRIPTOR
 15059  7064  dd7e00            	LD A, (IX)
 15060  7067  320800            	LD (_Ttmp8), A
 15061  706a  dd7e01            	LD A, (IX+1)
 15062  706d  321500            	LD (_Ttmp22), A
 15063  7070  dd7e02            	LD A, (IX+2)
 15064  7073  321600            	LD (_Ttmp22+1), A
 15065  7076  2a1200            	LD HL, (_Ttmp20)
 15066  7079  ed5b1500          	LD DE, (_Ttmp22)
 15067  707d  3a0100            	LD A, (_Ttmp2)
 15068  7080  4f                	LD C, A
 15069  7081  0600              	LD B, 0
 15070  7083  cdee02            	CALL DUFFDEVICE
 15071  7086  cdeb6c            	call updateCreateCharMode
 15072                          	; P:33
 15073                          	; L:323
 15074                          _label1124f:
 15075                          _label1124e0:
 15076                          	; P:2
 15077                          	; L:324
 15078  7089  3e02              	LD A, $02
 15079  708b  320200            	LD (_Ttmp5), A
 15080  708e  3e00              	LD A, $00
 15081  7090  320300            	LD (_Ttmp5+1), A
 15082  7093  3ab372            	LD A, (_gamemode)
 15083  7096  47                	LD B, A
 15084  7097  3a0200            	LD A, (_Ttmp5)
 15085  709a  b8                	CP B
 15086  709b  c2b170            	JP NZ, _label1127
 15087  709e  3ab472            	LD A, (_gamemode+1)
 15088  70a1  47                	LD B, A
 15089  70a2  3a0300            	LD A, (_Ttmp5+1)
 15090  70a5  b8                	CP B
 15091  70a6  c2b170            	JP NZ, _label1127
 15092  70a9  3eff              	LD A, $ff
 15093  70ab  322300            	LD (_Ttmp1122), A
 15094  70ae  c3b670            	JMP _label1127b2
 15095                          _label1127:
 15096  70b1  3e00              	LD A, $00
 15097  70b3  322300            	LD (_Ttmp1122), A
 15098                          _label1127b2:
 15099  70b6  3a2300            	LD A, (_Ttmp1122)
 15100  70b9  fe00              	CP 0
 15101  70bb  cac170            	JP Z, _label1129
 15102  70be  c3c470            	JMP _label1129b2
 15103                          _label1129:
 15104  70c1  c3c770            	JMP _label1128e0
 15105                          _label1129b2:
 15106                          _label1128t:
 15107                          	; P:29
 15108                          	; L:325
 15109  70c4  cdc06e            	call updateAdventurMode
 15110                          	; P:1
 15111                          	; L:326
 15112                          _label1128f:
 15113                          _label1128e0:
 15114                          	; P:2
 15115                          	; L:327
 15116  70c7  c3c46e            	jp _label1112
 15117                          _label1112bis:
 15118                          	; P:2
 15119                          	; L:328
 15120                          	; P:0
 15121                          	; L:329
 15122                          	; P:0
 15123                          	; L:330
 15124                          	; P:0
 15125                          _label1130:
 15126  70ca  c3ca70            	jp _label1130
 15127  70cd  1800eda0eda0eda0  DUFFDEVICEL0: db 24,0,237,160,237,160,237,160,237,160,237,160,237,160,237,	160
              eda0eda0eda0eda0  
 15128  70dd  eda0eda0eda0eda0  	db 237,160,237,160,237,160,237,160,237,160,237,160,237,160,237,	160
              eda0eda0eda0eda0  
 15129  70ed  eda0ea0000c9      	db 237,160,234,0,0,	201
 15130  70f3  0000              	DUFFDEVICEL1: defs 2
 15131  70f5  00                	EVERYSTATUS: defs 1
 15132  70f6  0000              	EVERYCOUNTER: defs 2
 15133  70f8  0000              	BITMAPADDRESS: defs 2
 15134  70fa  0000              	COLORMAPADDRESS: defs 2
 15135  70fc  00                	EMPTYTILE: db 0
 15136  70fd  00                	USING: defs 1
 15137  70fe  00                	IMAGEX: defs 1
 15138  70ff  00                	IMAGEY: defs 1
 15139  7100  00                	IMAGEY2: defs 1
 15140  7101  00                	IMAGEW: defs 1
 15141  7102  00                	IMAGEH: defs 1
 15142  7103  00                	IMAGEH2: defs 1
 15143  7104  00                	IMAGEF: defs 1
 15144  7105  00                	IMAGET: defs 1
 15145  7106  000000            	IRQVECTOR: defs 3
 15146  7109  00                	IRQVECTORREADY: defs 1
 15147  710a  00                	TICKSPERSECOND: defs 1
 15148  710b  0000              	ZXTIMER: defs 2
 15149  710d  00                	XCURSYS: defs 1
 15150  710e  00                	YCURSYS: defs 1
 15151  710f  00                	_PEN: defs 1
 15152  7110  00                	_PAPER: defs 1
 15153                          ; peephole(3): unread
 15154                          ;	_windowE: defs 1
 15155                          ; peephole(3): unread
 15156                          ;	_windowS: defs 1
 15157                          ; peephole(3): unread
 15158                          ;	_windowW: defs 1
 15159  7111  00                	TEXTWW: defs 1
 15160                          	_TAB = cstring0
 15161                          ; peephole(3): unread
 15162                          ;	_windowMX: defs 1
 15163                          ; peephole(3): unread
 15164                          ;	_windowMY: defs 1
 15165  7112  00                	PROTOTHREADCT: defs 1
 15166  7113  00000000          	CPURANDOM_SEED: defs 4
 15167  7117  0000              	CURRENTWIDTH: defs 2
 15168  7119  0000              	CURRENTHEIGHT: defs 2
 15169                          ; peephole(3): unread
 15170                          ;	CURRENTTILES: defs 1
 15171                          ; peephole(3): unread
 15172                          ;	CURRENTTILESWIDTH: defs 1
 15173  711b  00                	CURRENTTILESHEIGHT: defs 1
 15174                          ; peephole(3): unread
 15175                          ;	FONTWIDTH: defs 1
 15176                          ; peephole(3): unread
 15177                          ;	FONTHEIGHT: defs 1
 15178                          ; peephole(3): unread
 15179                          ;	XGR: defs 2
 15180                          ; peephole(3): unread
 15181                          ;	YGR: defs 2
 15182  711c  0000              	LINE: defs 2
 15183  711e  00                	TABCOUNT: defs 1
 15184                          ; peephole(3): unread
 15185                          ;	CLIPX1: defs 2
 15186                          ; peephole(3): unread
 15187                          ;	CLIPX2: defs 2
 15188                          ; peephole(3): unread
 15189                          ;	CLIPY1: defs 2
 15190                          ; peephole(3): unread
 15191                          ;	CLIPY2: defs 2
 15192  711f  0000              	ORIGINX: defs 2
 15193  7121  0000              	ORIGINY: defs 2
 15194  7123  0000              	RESOLUTIONX: defs 2
 15195  7125  0000              	RESOLUTIONY: defs 2
 15196  7127  00                	TILEX: defs 1
 15197  7128  00                	TILEY: defs 1
 15198  7129  00                	TILEX2: defs 1
 15199  712a  00                	TILET: defs 1
 15200  712b  00                	TILEW: defs 1
 15201  712c  00                	TILEH: defs 1
 15202  712d  00                	TILEW2: defs 1
 15203  712e  00                	TILEH2: defs 1
 15204  712f  00                	TILEA: defs 1
 15205  7130  0000              	TILEO: defs 2
 15206                          ; peephole(3): unread
 15207                          ;	CURRENTMODE: defs 1
 15208                          ; peephole(3): unread
 15209                          ;	CURRENTTILEMODE: defs 1
 15210  7132  0000              	BLITIMAGEBLITTINGADDR: defs 2
 15211  7134  0000              	BLITTMPPTR: defs 2
 15212  7136  0000              	BLITTMPPTR2: defs 2
 15213  7138  0000000000000000  	FPSCRAP: defs 16
              0000000000000000  
 15214                          ; peephole(3): unread
 15215                          ;	TEXTADDRESS: defs 2
 15216  7148  0000000000000000  	_availableoptions: defs 16
              0000000000000000  
 15217  7158  0000000000000000  	_options: defs 8
 15218  7160  0000000000000000  	_r: defs 9
              00                
 15219  7169  0000000000000000  	_lockeddoors: defs 9
              00                
 15220  7172  0000000000000000  	_exits: defs 9
              00                
 15221  717b  0000000000000000  	_encounters: defs 18
              0000000000000000  
              0000              
 15222  718d  0000000000000000  	_encountername: defs 70
              0000000000000000  
              0000000000000000  
              0000000000000000  
              0000000000000000  
              0000000000000000  
              0000000000000000  
              0000000000000000  
              000000000000      
 15223  71d3  0000000000000000  	_encounterstr: defs 140
              0000000000000000  
              0000000000000000  
              0000000000000000  
              0000000000000000  
              0000000000000000  
              0000000000000000  
              0000000000000000  
              0000000000000000  
              0000000000000000  
              0000000000000000  
              0000000000000000  
              0000000000000000  
              0000000000000000  
              0000000000000000  
              0000000000000000  
              0000000000000000  
              00000000          
 15224  725f  0000000000000000  	_partystr: defs 18
              0000000000000000  
              0000              
 15225  7271  0000000000000000  	_partyskill: defs 18
              0000000000000000  
              0000              
 15226  7283  00                	_charPoints: defs 1
 15227  7284  00                	_charisma: defs 1
 15228  7285  00                	_xlocation: defs 1
 15229  7286  00                	_ylocation: defs 1
 15230  7287  0000              	_optionspointer: defs 2
 15231  7289  0000              	_printPointer_c: defs 2
 15232  728b  0000              	_printOptions_c: defs 2
 15233  728d  0000              	_resetOptions_c: defs 2
 15234  728f  0000              	_optionsdown_c: defs 2
 15235                          ; peephole(3): unread
 15236                          ;	_optionsup_done: defs 1
 15237  7291  0000              	_optionsup_c: defs 2
 15238  7293  00                	_updatedecide__l: db 0
 15239  7294  0000000000000000  	N2DINV: defs 8
 15240  729c  0000000000000000  	N2DBUF: defs 20
              0000000000000000  
              00000000          
 15241  72b0  00                	N2DEND: defs 1
 15242  72b1  0000              	_reprintCreateCharacterScreen_c: defs 2
 15243  72b3  0000              	_gamemode: defs 2
 15244  72b5  00                	_printAdventureScreen_c: defs 1
 15245  72b6  00                	_updateCreateCharMode__l: db 0
 15246  72b7  00                	_k: db 0
 15247                          section data_user
 15248  0000  00                	defs 1
 15249                          section code_user
 15250                          max_free_string = $0400
 15251  0000  00                	_Ttmp1: defs 1
 15252  0001  00                	_Ttmp2: defs 1
 15253                          	_Tstr3 = cstring4
 15254  0002  0000              	_Ttmp5: defs 2
 15255  0004  0000              	_Ttmp6: defs 2
 15256  0006  0000              	_Ttmp7: defs 2
 15257  0008  00                	_Ttmp8: defs 1
 15258                          ; peephole(3): unread
 15259                          ;	_Ttmp9: defs 1
 15260  0009  0000              	_Ttmp11: defs 2
 15261                          ; peephole(3): unread
 15262                          ;	_Ttmp12: defs 1
 15263                          ; peephole(3): unread
 15264                          ;	_Ttmp13: defs 1
 15265  000b  00000000          	_Ttmp15: defs 4
 15266  000f  0000              	_Ttmp17: defs 2
 15267                          ; peephole(3): unread
 15268                          ;	_Ttmp18: defs 1
 15269  0011  00                	_Ttmp19: db 0
 15270  0012  0000              	_Ttmp20: defs 2
 15271  0014  00                	_Ttmp21: defs 1
 15272  0015  0000              	_Ttmp22: defs 2
 15273                          ; peephole(3): unread
 15274                          ;	_Ttmp23: defs 1
 15275                          	_Tstr24 = cstring25
 15276  0017  00                	_Ttmp29: db 0
 15277                          	_Tstr30 = cstring31
 15278  0018  00                	_Ttmp35: db 0
 15279                          	_Tstr36 = cstring37
 15280  0019  00                	_Ttmp41: db 0
 15281                          	_Tstr42 = cstring43
 15282  001a  00                	_Ttmp47: db 0
 15283                          	_Tstr48 = cstring49
 15284  001b  00                	_Ttmp53: db 0
 15285                          	_Tstr54 = cstring55
 15286  001c  00                	_Ttmp59: db 0
 15287                          	_Tstr60 = cstring61
 15288  001d  00                	_Ttmp65: db 0
 15289                          	_Tstr66 = cstring67
 15290  001e  00                	_Ttmp71: db 0
 15291  001f  00                	_Ttmp1114: db 0
 15292  0020  00                	_Ttmp1115: defs 1
 15293                          	_Tstr1116 = cstring303
 15294  0021  0000              	_Ttmp1120: defs 2
 15295  0023  00                	_Ttmp1122: defs 1
 15296                          section data_user
 15297  0001  cd                	defs 1
 15298                          section code_user
 15299  0024  00                	_initGame_Ttmp72: defs 1
 15300  0025  00                	_initGame_Ttmp73: defs 1
 15301  0026  0000              	_initGame_Ttmp75: defs 2
 15302  0028  00                	_initGame_Ttmp76: defs 1
 15303                          ; peephole(3): unread
 15304                          ;	_initGame_Ttmp77: defs 1
 15305  0029  0000              	_initGame_Ttmp80: defs 2
 15306  002b  0000              	_initGame_Ttmp81: defs 2
 15307  002d  0000              	_initGame_Ttmp82: defs 2
 15308                          ; peephole(3): unread
 15309                          ;	_initGame_Ttmp83: defs 1
 15310                          ; peephole(3): unread
 15311                          ;	_initGame_Ttmp84: defs 1
 15312  002f  0000              	_initGame_Ttmp86: defs 2
 15313                          	_initGame_Tstr93 = cstring94
 15314  0031  00000000          	_initGame_Ttmp97: defs 4
 15315                          ; peephole(3): unread
 15316                          ;	_initGame_Ttmp99: defs 1
 15317  0035  00                	_initGame_Ttmp100: db 0
 15318  0036  0000              	_initGame_Ttmp101: defs 2
 15319  0038  00                	_initGame_Ttmp102: defs 1
 15320  0039  0000              	_initGame_Ttmp103: defs 2
 15321                          ; peephole(3): unread
 15322                          ;	_initGame_Ttmp104: defs 1
 15323                          	_initGame_Tstr105 = cstring61
 15324  003b  00                	_initGame_Ttmp109: db 0
 15325                          	_initGame_Tstr110 = cstring94
 15326  003c  00                	_initGame_Ttmp114: db 0
 15327                          	_initGame_Tstr115 = cstring94
 15328  003d  00                	_initGame_Ttmp119: db 0
 15329                          	_initGame_Tstr120 = cstring94
 15330  003e  00                	_initGame_Ttmp124: db 0
 15331                          	_initGame_Tstr125 = cstring94
 15332  003f  00                	_initGame_Ttmp129: db 0
 15333                          	_initGame_Tstr130 = cstring94
 15334  0040  00                	_initGame_Ttmp134: db 0
 15335                          	_initGame_Tstr135 = cstring94
 15336  0041  00                	_initGame_Ttmp139: db 0
 15337                          	_initGame_Tstr140 = cstring94
 15338  0042  00                	_initGame_Ttmp144: db 0
 15339                          	_initGame_Tstr145 = cstring146
 15340  0043  00                	_initGame_Ttmp150: db 0
 15341                          	_initGame_Tstr151 = cstring152
 15342  0044  00                	_initGame_Ttmp156: db 0
 15343                          	_initGame_Tstr157 = cstring158
 15344  0045  00                	_initGame_Ttmp162: db 0
 15345                          	_initGame_Tstr163 = cstring67
 15346  0046  00                	_initGame_Ttmp167: db 0
 15347                          	_initGame_Tstr168 = cstring169
 15348  0047  00                	_initGame_Ttmp173: db 0
 15349                          	_initGame_Tstr174 = cstring55
 15350  0048  00                	_initGame_Ttmp178: db 0
 15351                          	_initGame_Tstr179 = cstring49
 15352  0049  00                	_initGame_Ttmp183: db 0
 15353                          	_initGame_Tstr184 = cstring185
 15354  004a  00                	_initGame_Ttmp189: db 0
 15355                          	_initGame_Tstr190 = cstring191
 15356  004b  00                	_initGame_Ttmp195: db 0
 15357  004c  0000              	_initGame_Ttmp202: defs 2
 15358                          ; peephole(3): unread
 15359                          ;	_initGame_Ttmp203: defs 1
 15360  004e  0000              	_initGame_Ttmp204: defs 2
 15361                          	_initGame_Tstr206 = cstring207
 15362  0050  00                	_initGame_Ttmp211: db 0
 15363                          	_initGame_Tstr212 = cstring207
 15364  0051  00                	_initGame_Ttmp216: db 0
 15365                          	_initGame_Tstr217 = cstring207
 15366  0052  00                	_initGame_Ttmp221: db 0
 15367                          	_initGame_Tstr222 = cstring207
 15368  0053  00                	_initGame_Ttmp226: db 0
 15369                          	_initGame_Tstr227 = cstring207
 15370  0054  00                	_initGame_Ttmp231: db 0
 15371                          	_initGame_Tstr232 = cstring207
 15372  0055  00                	_initGame_Ttmp236: db 0
 15373                          section data_user
 15374  0002  70                	defs 1
 15375                          section code_user
 15376  0056  00                	_printPointer_Ttmp279: defs 1
 15377  0057  0000              	_printPointer_Ttmp280: defs 2
 15378                          ; peephole(3): unread
 15379                          ;	_printPointer_Ttmp283: defs 1
 15380                          ; peephole(3): unread
 15381                          ;	_printPointer_Ttmp285: defs 1
 15382  0059  00                	_printPointer_Ttmp286: defs 1
 15383  005a  00                	_printPointer_Ttmp289: defs 1
 15384  005b  0000              	_printPointer_Ttmp292: defs 2
 15385  005d  0000              	_printPointer_Ttmp293: defs 2
 15386                          ; peephole(3): unread
 15387                          ;	_printPointer_Ttmp297: defs 1
 15388                          ; peephole(3): unread
 15389                          ;	_printPointer_Ttmp299: defs 1
 15390                          	_printPointer_Tstr302 = cstring303
 15391  005f  0000              	_printPointer_Ttmp305: defs 2
 15392                          	_printPointer_Tstr318 = cstring319
 15393                          section data_user
 15394  0003  00                	defs 1
 15395                          section code_user
 15396  0061  00                	_printOptions_Ttmp325: defs 1
 15397  0062  0000              	_printOptions_Ttmp326: defs 2
 15398                          ; peephole(3): unread
 15399                          ;	_printOptions_Ttmp329: defs 1
 15400  0064  00                	_printOptions_Ttmp331: defs 1
 15401  0065  00                	_printOptions_Ttmp332: defs 1
 15402  0066  00                	_printOptions_Ttmp335: defs 1
 15403  0067  0000              	_printOptions_Ttmp343: defs 2
 15404  0069  00                	_printOptions_Ttmp344: defs 1
 15405  006a  0000              	_printOptions_Ttmp345: defs 2
 15406                          ; peephole(3): unread
 15407                          ;	_printOptions_Ttmp349: defs 1
 15408                          ; peephole(3): unread
 15409                          ;	_printOptions_Ttmp351: defs 1
 15410  006c  00                	_printOptions_Ttmp355: db 0
 15411  006d  0000              	_printOptions_Ttmp356: defs 2
 15412  006f  00                	_printOptions_Ttmp357: db 0
 15413  0070  0000              	_printOptions_Ttmp358: defs 2
 15414  0072  0000              	_printOptions_Ttmp359: defs 2
 15415  0074  0000              	_printOptions_Ttmp361: defs 2
 15416                          section data_user
 15417  0004  23                	defs 1
 15418                          section code_user
 15419  0076  00                	_resetOptions_Ttmp368: defs 1
 15420  0077  0000              	_resetOptions_Ttmp369: defs 2
 15421                          ; peephole(3): unread
 15422                          ;	_resetOptions_Ttmp372: defs 1
 15423                          ; peephole(3): unread
 15424                          ;	_resetOptions_Ttmp374: defs 1
 15425                          ; peephole(3): unread
 15426                          ;	_resetOptions_Ttmp375: defs 1
 15427  0079  00                	_resetOptions_Ttmp378: defs 1
 15428  007a  0000              	_resetOptions_Ttmp384: defs 2
 15429  007c  0000              	_resetOptions_Ttmp385: defs 2
 15430  007e  0000              	_resetOptions_Ttmp386: defs 2
 15431                          	_resetOptions_Tstr388 = cstring94
 15432  0080  00                	_resetOptions_Ttmp389: db 0
 15433  0081  0000              	_resetOptions_Ttmp390: defs 2
 15434  0083  0000              	_resetOptions_Ttmp391: defs 2
 15435                          section data_user
 15436  0005  00                	defs 1
 15437                          section code_user
 15438  0085  00                	_optionsdown_Ttmp394: defs 1
 15439  0086  0000              	_optionsdown_Ttmp395: defs 2
 15440                          ; peephole(3): unread
 15441                          ;	_optionsdown_Ttmp398: defs 1
 15442  0088  00                	_optionsdown_Ttmp400: defs 1
 15443                          ; peephole(3): unread
 15444                          ;	_optionsdown_Ttmp401: defs 1
 15445  0089  00                	_optionsdown_Ttmp404: defs 1
 15446  008a  0000              	_optionsdown_Ttmp408: defs 2
 15447  008c  0000              	_optionsdown_Ttmp409: defs 2
 15448                          ; peephole(3): unread
 15449                          ;	_optionsdown_Ttmp411: defs 1
 15450                          ; peephole(3): unread
 15451                          ;	_optionsdown_Ttmp414: defs 1
 15452                          section data_user
 15453  0006  00                	defs 1
 15454                          section code_user
 15455  008e  00                	_optionsup_Ttmp427: defs 1
 15456                          ; peephole(3): unread
 15457                          ;	_optionsup_Ttmp428: defs 1
 15458  008f  0000              	_optionsup_Ttmp429: defs 2
 15459  0091  00                	_optionsup_Ttmp433: defs 1
 15460                          ; peephole(3): unread
 15461                          ;	_optionsup_Ttmp434: defs 1
 15462  0092  00                	_optionsup_Ttmp437: defs 1
 15463  0093  0000              	_optionsup_Ttmp441: defs 2
 15464                          section data_user
 15465  0007  00                	defs 1
 15466                          section code_user
 15467                          	_updatedecide_Tstr454 = cstring455
 15468  0095  00                	_updatedecide_Ttmp457: defs 1
 15469  0096  0000              	_updatedecide_Ttmp458: defs 2
 15470  0098  00                	_updatedecide_Ttmp459: defs 1
 15471  0099  0000              	_updatedecide_Ttmp460: defs 2
 15472  009b  00                	_updatedecide_Ttmp461: defs 1
 15473                          	_updatedecide_Tstr467 = cstring468
 15474                          section data_user
 15475  0008  cd                	defs 1
 15476                          section code_user
 15477  009c  00                	_reprintCreateCharacterScreen_Ttmp475: defs 1
 15478  009d  0000              	_reprintCreateCharacterScreen_Ttmp476: defs 2
 15479  009f  00                	_reprintCreateCharacterScreen_Ttmp479: defs 1
 15480  00a0  00                	_reprintCreateCharacterScreen_Ttmp481: defs 1
 15481  00a1  00                	_reprintCreateCharacterScreen_Ttmp482: defs 1
 15482  00a2  00                	_reprintCreateCharacterScreen_Ttmp485: defs 1
 15483  00a3  00                	_reprintCreateCharacterScreen_Ttmp489: db 0
 15484  00a4  0000              	_reprintCreateCharacterScreen_Ttmp490: defs 2
 15485  00a6  00                	_reprintCreateCharacterScreen_Ttmp491: db 0
 15486  00a7  0000              	_reprintCreateCharacterScreen_Ttmp492: defs 2
 15487  00a9  0000              	_reprintCreateCharacterScreen_Ttmp493: defs 2
 15488                          	_reprintCreateCharacterScreen_Tstr494 = cstring495
 15489  00ab  0000              	_reprintCreateCharacterScreen_Ttmp497: defs 2
 15490  00ad  0000              	_reprintCreateCharacterScreen_Ttmp498: defs 2
 15491  00af  0000              	_reprintCreateCharacterScreen_Ttmp504: defs 2
 15492  00b1  00                	_reprintCreateCharacterScreen_Ttmp505: defs 1
 15493  00b2  0000              	_reprintCreateCharacterScreen_Ttmp506: defs 2
 15494                          ; peephole(3): unread
 15495                          ;	_reprintCreateCharacterScreen_Ttmp510: defs 1
 15496                          ; peephole(3): unread
 15497                          ;	_reprintCreateCharacterScreen_Ttmp512: defs 1
 15498                          	_reprintCreateCharacterScreen_Tstr515 = cstring516
 15499  00b4  00                	_reprintCreateCharacterScreen_Ttmp530: db 0
 15500                          	_reprintCreateCharacterScreen_Tstr531 = cstring532
 15501  00b5  00                	_reprintCreateCharacterScreen_Ttmp539: db 0
 15502  00b6  00                	_reprintCreateCharacterScreen_Ttmp540: db 0
 15503                          	_reprintCreateCharacterScreen_Tstr541 = cstring542
 15504                          	_reprintCreateCharacterScreen_Tstr555 = cstring516
 15505  00b7  00                	_reprintCreateCharacterScreen_Ttmp569: db 0
 15506                          	_reprintCreateCharacterScreen_Tstr570 = cstring532
 15507  00b8  00                	_reprintCreateCharacterScreen_Ttmp577: db 0
 15508  00b9  00                	_reprintCreateCharacterScreen_Ttmp578: db 0
 15509                          	_reprintCreateCharacterScreen_Tstr579 = cstring580
 15510                          	_reprintCreateCharacterScreen_Tstr593 = cstring516
 15511  00ba  00                	_reprintCreateCharacterScreen_Ttmp606: db 0
 15512                          	_reprintCreateCharacterScreen_Tstr607 = cstring532
 15513                          	_reprintCreateCharacterScreen_Tstr615 = cstring516
 15514  00bb  00                	_reprintCreateCharacterScreen_Ttmp622: db 0
 15515                          	_reprintCreateCharacterScreen_Tstr623 = cstring532
 15516                          section data_user
 15517  0009  70                	defs 1
 15518                          section code_user
 15519  00bc  00                	_initCharScreen_Ttmp629: defs 1
 15520  00bd  00                	_initCharScreen_Ttmp630: defs 1
 15521                          ; peephole(3): unread
 15522                          ;	_initCharScreen_Ttmp631: defs 1
 15523  00be  00                	_initCharScreen_Ttmp632: defs 1
 15524  00bf  0000              	_initCharScreen_Ttmp633: defs 2
 15525                          	_initCharScreen_Tstr635 = cstring636
 15526  00c1  0000              	_initCharScreen_Ttmp638: defs 2
 15527  00c3  00                	_initCharScreen_Ttmp641: defs 1
 15528                          	_initCharScreen_Tstr644 = cstring645
 15529                          	_initCharScreen_Tstr651 = cstring652
 15530  00c4  0000              	_initCharScreen_Ttmp661: defs 2
 15531  00c6  0000              	_initCharScreen_Ttmp662: defs 2
 15532  00c8  0000              	_initCharScreen_Ttmp663: defs 2
 15533                          ; peephole(3): unread
 15534                          ;	_initCharScreen_Ttmp664: defs 1
 15535                          ; peephole(3): unread
 15536                          ;	_initCharScreen_Ttmp665: defs 1
 15537  00ca  0000              	_initCharScreen_Ttmp667: defs 2
 15538                          	_initCharScreen_Tstr679 = cstring495
 15539  00cc  00                	_initCharScreen_Ttmp681: db 0
 15540  00cd  0000              	_initCharScreen_Ttmp682: defs 2
 15541                          	_initCharScreen_Tstr683 = cstring542
 15542  00cf  00                	_initCharScreen_Ttmp685: db 0
 15543                          	_initCharScreen_Tstr686 = cstring580
 15544  00d0  00                	_initCharScreen_Ttmp688: db 0
 15545                          section data_user
 15546  000a  00                	defs 1
 15547                          section code_user
 15548  00d1  00                	_spendcharpoint_Ttmp689: defs 1
 15549  00d2  00                	_spendcharpoint_Ttmp690: defs 1
 15550  00d3  00                	_spendcharpoint_Ttmp691: defs 1
 15551  00d4  00                	_spendcharpoint_Ttmp693: db 0
 15552  00d5  0000              	_spendcharpoint_Ttmp694: defs 2
 15553  00d7  0000              	_spendcharpoint_Ttmp695: defs 2
 15554  00d9  00                	_spendcharpoint_Ttmp696: db 0
 15555  00da  0000              	_spendcharpoint_Ttmp697: defs 2
 15556  00dc  0000              	_spendcharpoint_Ttmp698: defs 2
 15557                          	_spendcharpoint_Tstr699 = cstring495
 15558  00de  00                	_spendcharpoint_Ttmp701: defs 1
 15559  00df  0000              	_spendcharpoint_Ttmp702: defs 2
 15560  00e1  0000              	_spendcharpoint_Ttmp703: defs 2
 15561  00e3  00                	_spendcharpoint_Ttmp704: defs 1
 15562                          ; peephole(3): unread
 15563                          ;	_spendcharpoint_Ttmp711: defs 1
 15564  00e4  0000              	_spendcharpoint_Ttmp713: defs 2
 15565  00e6  0000              	_spendcharpoint_Ttmp715: defs 2
 15566                          ; peephole(3): unread
 15567                          ;	_spendcharpoint_Ttmp716: defs 1
 15568                          ; peephole(3): unread
 15569                          ;	_spendcharpoint_Ttmp718: defs 1
 15570                          ; peephole(3): unread
 15571                          ;	_spendcharpoint_Ttmp722: defs 2
 15572  00e8  0000              	_spendcharpoint_Ttmp723: defs 2
 15573  00ea  0000              	_spendcharpoint_Ttmp724: defs 2
 15574                          ; peephole(3): unread
 15575                          ;	_spendcharpoint_Ttmp725: defs 1
 15576                          ; peephole(3): unread
 15577                          ;	_spendcharpoint_Ttmp726: defs 1
 15578  00ec  0000              	_spendcharpoint_Ttmp728: defs 2
 15579  00ee  00                	_spendcharpoint_Ttmp731: db 0
 15580  00ef  00                	_spendcharpoint_Ttmp732: db 0
 15581                          	_spendcharpoint_Tstr733 = cstring542
 15582  00f0  00                	_spendcharpoint_Ttmp750: db 0
 15583  00f1  00                	_spendcharpoint_Ttmp751: db 0
 15584                          	_spendcharpoint_Tstr752 = cstring580
 15585                          section data_user
 15586  000b  00                	defs 1
 15587                          section code_user
 15588  00f2  00                	_retractcharpoint_Ttmp760: db 0
 15589  00f3  0000              	_retractcharpoint_Ttmp761: defs 2
 15590  00f5  0000              	_retractcharpoint_Ttmp762: defs 2
 15591  00f7  00                	_retractcharpoint_Ttmp763: db 0
 15592  00f8  0000              	_retractcharpoint_Ttmp764: defs 2
 15593  00fa  00                	_retractcharpoint_Ttmp765: defs 1
 15594  00fb  0000              	_retractcharpoint_Ttmp766: defs 2
 15595  00fd  00                	_retractcharpoint_Ttmp767: defs 1
 15596                          	_retractcharpoint_Tstr768 = cstring495
 15597  00fe  00                	_retractcharpoint_Ttmp770: defs 1
 15598  00ff  0000              	_retractcharpoint_Ttmp771: defs 2
 15599  0101  00                	_retractcharpoint_Ttmp772: defs 1
 15600  0102  0000              	_retractcharpoint_Ttmp773: defs 2
 15601  0104  00                	_retractcharpoint_Ttmp774: defs 1
 15602  0105  00                	_retractcharpoint_Ttmp778: defs 1
 15603  0106  0000              	_retractcharpoint_Ttmp780: defs 2
 15604  0108  00                	_retractcharpoint_Ttmp781: defs 1
 15605  0109  0000              	_retractcharpoint_Ttmp783: defs 2
 15606                          ; peephole(3): unread
 15607                          ;	_retractcharpoint_Ttmp784: defs 1
 15608                          ; peephole(3): unread
 15609                          ;	_retractcharpoint_Ttmp785: defs 1
 15610  010b  00                	_retractcharpoint_Ttmp787: defs 1
 15611  010c  00                	_retractcharpoint_Ttmp789: defs 1
 15612  010d  0000              	_retractcharpoint_Ttmp797: defs 2
 15613  010f  0000              	_retractcharpoint_Ttmp798: defs 2
 15614  0111  0000              	_retractcharpoint_Ttmp800: defs 2
 15615  0113  00                	_retractcharpoint_Ttmp803: db 0
 15616  0114  00                	_retractcharpoint_Ttmp804: db 0
 15617                          	_retractcharpoint_Tstr805 = cstring542
 15618  0115  00                	_retractcharpoint_Ttmp824: db 0
 15619  0116  00                	_retractcharpoint_Ttmp825: db 0
 15620                          	_retractcharpoint_Tstr826 = cstring580
 15621                          section data_user
 15622  000c  00                	defs 1
 15623                          section code_user
 15624  0117  00                	_printAdventureScreen_Ttmp836: defs 1
 15625  0118  00                	_printAdventureScreen_Ttmp837: defs 1
 15626                          ; peephole(3): unread
 15627                          ;	_printAdventureScreen_Ttmp838: defs 1
 15628  0119  00                	_printAdventureScreen_Ttmp839: defs 1
 15629  011a  00                	_printAdventureScreen_Ttmp841: db 0
 15630  011b  0000              	_printAdventureScreen_Ttmp842: defs 2
 15631  011d  0000              	_printAdventureScreen_Ttmp843: defs 2
 15632  011f  0000              	_printAdventureScreen_Ttmp844: defs 2
 15633  0121  0000              	_printAdventureScreen_Ttmp846: defs 2
 15634  0123  00000000          	_printAdventureScreen_Ttmp848: defs 4
 15635  0127  0000              	_printAdventureScreen_Ttmp850: defs 2
 15636                          ; peephole(3): unread
 15637                          ;	_printAdventureScreen_Ttmp851: defs 1
 15638  0129  00                	_printAdventureScreen_Ttmp852: db 0
 15639  012a  0000              	_printAdventureScreen_Ttmp853: defs 2
 15640  012c  00                	_printAdventureScreen_Ttmp854: defs 1
 15641  012d  0000              	_printAdventureScreen_Ttmp855: defs 2
 15642                          ; peephole(3): unread
 15643                          ;	_printAdventureScreen_Ttmp856: defs 1
 15644  012f  0000              	_printAdventureScreen_Ttmp858: defs 2
 15645  0131  00                	_printAdventureScreen_Ttmp859: defs 1
 15646  0132  00                	_printAdventureScreen_Ttmp862: defs 1
 15647  0133  00                	_printAdventureScreen_Ttmp866: db 0
 15648  0134  00                	_printAdventureScreen_Ttmp870: db 0
 15649  0135  00                	_printAdventureScreen_Ttmp877: db 0
 15650  0136  00                	_printAdventureScreen_Ttmp881: db 0
 15651  0137  00                	_printAdventureScreen_Ttmp882: defs 1
 15652  0138  00                	_printAdventureScreen_Ttmp883: db 0
 15653  0139  00                	_printAdventureScreen_Ttmp884: defs 1
 15654  013a  00                	_printAdventureScreen_Ttmp887: defs 1
 15655  013b  0000              	_printAdventureScreen_Ttmp888: defs 2
 15656  013d  00                	_printAdventureScreen_Ttmp889: defs 1
 15657  013e  00                	_printAdventureScreen_Ttmp892: defs 1
 15658  013f  0000              	_printAdventureScreen_Ttmp898: defs 2
 15659  0141  00                	_printAdventureScreen_Ttmp899: defs 1
 15660  0142  00                	_printAdventureScreen_Ttmp905: db 0
 15661  0143  00                	_printAdventureScreen_Ttmp909: db 0
 15662  0144  00                	_printAdventureScreen_Ttmp910: db 0
 15663  0145  00                	_printAdventureScreen_Ttmp925: db 0
 15664  0146  00                	_printAdventureScreen_Ttmp929: db 0
 15665  0147  00                	_printAdventureScreen_Ttmp930: db 0
 15666  0148  00                	_printAdventureScreen_Ttmp951: db 0
 15667  0149  00                	_printAdventureScreen_Ttmp955: db 0
 15668  014a  00                	_printAdventureScreen_Ttmp956: db 0
 15669                          	_printAdventureScreen_Tstr965 = cstring158
 15670  014b  0000              	_printAdventureScreen_Ttmp967: defs 2
 15671                          	_printAdventureScreen_Tstr973 = cstring974
 15672  014d  00                	_printAdventureScreen_Ttmp976: db 0
 15673  014e  00                	_printAdventureScreen_Ttmp983: db 0
 15674  014f  00                	_printAdventureScreen_Ttmp987: db 0
 15675  0150  00                	_printAdventureScreen_Ttmp988: db 0
 15676                          	_printAdventureScreen_Tstr997 = cstring61
 15677                          	_printAdventureScreen_Tstr1004 = cstring1005
 15678  0151  00                	_printAdventureScreen_Ttmp1007: db 0
 15679  0152  00                	_printAdventureScreen_Ttmp1014: db 0
 15680  0153  00                	_printAdventureScreen_Ttmp1018: db 0
 15681  0154  00                	_printAdventureScreen_Ttmp1019: db 0
 15682                          	_printAdventureScreen_Tstr1028 = cstring146
 15683                          	_printAdventureScreen_Tstr1035 = cstring1036
 15684  0155  00                	_printAdventureScreen_Ttmp1038: db 0
 15685  0156  00                	_printAdventureScreen_Ttmp1045: db 0
 15686  0157  00                	_printAdventureScreen_Ttmp1049: db 0
 15687  0158  00                	_printAdventureScreen_Ttmp1050: db 0
 15688                          	_printAdventureScreen_Tstr1057 = cstring1058
 15689                          	_printAdventureScreen_Tstr1065 = cstring1066
 15690  0159  00                	_printAdventureScreen_Ttmp1068: db 0
 15691                          section data_user
 15692  000d  00                	defs 1
 15693                          section code_user
 15694  015a  0000              	_initAdventurMode_Ttmp1076: defs 2
 15695                          ; peephole(3): unread
 15696                          ;	_initAdventurMode_Ttmp1077: defs 1
 15697                          section data_user
 15698  000e  00                	defs 1
 15699                          section code_user
 15700                          	_updateCreateCharMode_Tstr1078 = cstring1079
 15701  015c  00                	_updateCreateCharMode_Ttmp1081: defs 1
 15702  015d  0000              	_updateCreateCharMode_Ttmp1082: defs 2
 15703  015f  00                	_updateCreateCharMode_Ttmp1083: defs 1
 15704  0160  0000              	_updateCreateCharMode_Ttmp1084: defs 2
 15705  0162  00                	_updateCreateCharMode_Ttmp1085: defs 1
 15706  0163  00                	_updateCreateCharMode_Ttmp1089: defs 1
 15707  0164  00                	_updateCreateCharMode_Ttmp1091: defs 1
 15708  0165  00                	_updateCreateCharMode_Ttmp1093: defs 1
 15709                          	_updateCreateCharMode_Tstr1097 = cstring1098
 15710                          	_updateCreateCharMode_Tstr1105 = cstring303
 15711                          section data_user
 15712  000f  00                	defs 1
 15713                          section code_user
 15714                          section data_user
 15715  0010  00                	defs 1
 15716                          section code_user
 15717  0166  0000              	_TRtmp281: defs 2
 15718  0168  0000              	_TRtmp282: defs 2
 15719  016a  0000              	_TRtmp327: defs 2
 15720  016c  0000              	_TRtmp328: defs 2
 15721  016e  0000              	_TRtmp370: defs 2
 15722  0170  0000              	_TRtmp371: defs 2
 15723  0172  0000              	_TRtmp396: defs 2
 15724  0174  0000              	_TRtmp397: defs 2
 15725  0176  0000              	_TRtmp430: defs 2
 15726  0178  0000              	_TRtmp431: defs 2
 15727  017a  0000              	_TRtmp477: defs 2
 15728  017c  0000              	_TRtmp478: defs 2
 15729  017e  00                	_TRtmp944: defs 1
 15730  017f  00                	_TRtmp945: defs 1
 15731                          section data_user
 15732  0011  00                	defs 1
 15733                          section code_user
 15734                          VARINIT:
 15735  0180  3e00              	LD A, $00
 15736  0182  320000            	LD (DUFFDEVICEL1), A
 15737                          ; peephole(1): r250 (LD A, x; LD (x), A; LD A, x)->(LD A, x; LD (x), A)
 15738                          ;	LD A, $00
 15739  0185  320000            	LD (DUFFDEVICEL1+1), A
 15740  0188  3e00              	LD A, $00
 15741  018a  320000            	LD (EVERYSTATUS), A
 15742                          ; peephole(1): r250 (LD A, x; LD (x), A; LD A, x)->(LD A, x; LD (x), A)
 15743                          ;	LD A, $00
 15744  018d  320000            	LD (EVERYCOUNTER), A
 15745  0190  3e00              	LD A, $00
 15746  0192  320000            	LD (EVERYCOUNTER+1), A
 15747                          ; peephole(1): r250 (LD A, x; LD (x), A; LD A, x)->(LD A, x; LD (x), A)
 15748                          ;	LD A, $00
 15749  0195  320000            	LD (BITMAPADDRESS), A
 15750  0198  3e00              	LD A, $40
 15751  019a  320000            	LD (BITMAPADDRESS+1), A
 15752  019d  3e00              	LD A, $00
 15753  019f  320000            	LD (COLORMAPADDRESS), A
 15754  01a2  3e00              	LD A, $58
 15755  01a4  320000            	LD (COLORMAPADDRESS+1), A
 15756  01a7  3e00              	LD A, $20
 15757  01a9  320000            	LD (EMPTYTILE), A
 15758  01ac  3e00              	LD A, $00
 15759  01ae  320000            	LD (USING), A
 15760                          ; peephole(1): r250 (LD A, x; LD (x), A; LD A, x)->(LD A, x; LD (x), A)
 15761                          ;	LD A, $00
 15762  01b1  320000            	LD (IMAGEX), A
 15763  01b4  3e00              	LD A, $00
 15764  01b6  320000            	LD (IMAGEY), A
 15765                          ; peephole(1): r250 (LD A, x; LD (x), A; LD A, x)->(LD A, x; LD (x), A)
 15766                          ;	LD A, $00
 15767  01b9  320000            	LD (IMAGEY2), A
 15768  01bc  3e00              	LD A, $00
 15769  01be  320000            	LD (IMAGEW), A
 15770                          ; peephole(1): r250 (LD A, x; LD (x), A; LD A, x)->(LD A, x; LD (x), A)
 15771                          ;	LD A, $00
 15772  01c1  320000            	LD (IMAGEH), A
 15773  01c4  3e00              	LD A, $00
 15774  01c6  320000            	LD (IMAGEH2), A
 15775                          ; peephole(1): r250 (LD A, x; LD (x), A; LD A, x)->(LD A, x; LD (x), A)
 15776                          ;	LD A, $00
 15777  01c9  320000            	LD (IMAGEF), A
 15778  01cc  3e00              	LD A, $00
 15779  01ce  320000            	LD (IMAGET), A
 15780                          ; peephole(1): r250 (LD A, x; LD (x), A; LD A, x)->(LD A, x; LD (x), A)
 15781                          ;	LD A, $00
 15782  01d1  320000            	LD (IRQVECTORREADY), A
 15783  01d4  3e00              	LD A, $00
 15784  01d6  320000            	LD (TICKSPERSECOND), A
 15785                          ; peephole(1): r250 (LD A, x; LD (x), A; LD A, x)->(LD A, x; LD (x), A)
 15786                          ;	LD A, $00
 15787  01d9  320000            	LD (ZXTIMER), A
 15788  01dc  3e00              	LD A, $00
 15789  01de  320000            	LD (ZXTIMER+1), A
 15790                          ; peephole(1): r250 (LD A, x; LD (x), A; LD A, x)->(LD A, x; LD (x), A)
 15791                          ;	LD A, $00
 15792  01e1  320000            	LD (XCURSYS), A
 15793  01e4  3e00              	LD A, $00
 15794  01e6  320000            	LD (YCURSYS), A
 15795                          ; peephole(1): r250 (LD A, x; LD (x), A; LD A, x)->(LD A, x; LD (x), A)
 15796                          ;	LD A, $00
 15797  01e9  320000            	LD (_PEN), A
 15798  01ec  3e00              	LD A, $07
 15799  01ee  320000            	LD (_PAPER), A
 15800  01f1  3e00              	LD A, $00
 15801                          ; peephole(3): unread
 15802                          ;	LD (_windowE), A
 15803                          ; peephole(1): r250 (LD A, x; LD (x), A; LD A, x)->(LD A, x; LD (x), A)
 15804                          ;	LD A, $00
 15805                          ; peephole(3): unread
 15806                          ;	LD (_windowS), A
 15807  01f3  3e00              	LD A, $00
 15808                          ; peephole(3): unread
 15809                          ;	LD (_windowW), A
 15810  01f5  3e00              	LD A, $03
 15811  01f7  320000            	LD (TEXTWW), A
 15812  01fa  3e00              	LD A, $00
 15813                          ; peephole(3): unread
 15814                          ;	LD (_windowMX), A
 15815                          ; peephole(1): r250 (LD A, x; LD (x), A; LD A, x)->(LD A, x; LD (x), A)
 15816                          ;	LD A, $00
 15817                          ; peephole(3): unread
 15818                          ;	LD (_windowMY), A
 15819  01fc  3e00              	LD A, $00
 15820  01fe  320000            	LD (PROTOTHREADCT), A
 15821  0201  3e00              	LD A, $ff
 15822  0203  320000            	LD (CPURANDOM_SEED), A
 15823                          ; peephole(1): r250 (LD A, x; LD (x), A; LD A, x)->(LD A, x; LD (x), A)
 15824                          ;	LD A, $ff
 15825  0206  320000            	LD (CPURANDOM_SEED+1), A
 15826  0209  3e00              	LD A, $ff
 15827  020b  320000            	LD (CPURANDOM_SEED+2), A
 15828                          ; peephole(1): r250 (LD A, x; LD (x), A; LD A, x)->(LD A, x; LD (x), A)
 15829                          ;	LD A, $ff
 15830  020e  320000            	LD (CPURANDOM_SEED+3), A
 15831  0211  3e00              	LD A, $00
 15832  0213  320000            	LD (CURRENTWIDTH), A
 15833  0216  3e00              	LD A, $01
 15834  0218  320000            	LD (CURRENTWIDTH+1), A
 15835  021b  3e00              	LD A, $c0
 15836  021d  320000            	LD (CURRENTHEIGHT), A
 15837  0220  3e00              	LD A, $00
 15838  0222  320000            	LD (CURRENTHEIGHT+1), A
 15839  0225  3e00              	LD A, $ff
 15840                          ; peephole(3): unread
 15841                          ;	LD (CURRENTTILES), A
 15842  0227  3e00              	LD A, $20
 15843                          ; peephole(3): unread
 15844                          ;	LD (CURRENTTILESWIDTH), A
 15845  0229  3e00              	LD A, $18
 15846  022b  320000            	LD (CURRENTTILESHEIGHT), A
 15847  022e  3e00              	LD A, $08
 15848                          ; peephole(3): unread
 15849                          ;	LD (FONTWIDTH), A
 15850                          ; peephole(1): r250 (LD A, x; LD (x), A; LD A, x)->(LD A, x; LD (x), A)
 15851                          ;	LD A, $08
 15852                          ; peephole(3): unread
 15853                          ;	LD (FONTHEIGHT), A
 15854  0230  3e00              	LD A, $00
 15855                          ; peephole(3): unread
 15856                          ;	LD (XGR), A
 15857                          ; peephole(1): r250 (LD A, x; LD (x), A; LD A, x)->(LD A, x; LD (x), A)
 15858                          ;	LD A, $00
 15859                          ; peephole(3): unread
 15860                          ;	LD (XGR+1), A
 15861  0232  3e00              	LD A, $00
 15862                          ; peephole(3): unread
 15863                          ;	LD (YGR), A
 15864                          ; peephole(1): r250 (LD A, x; LD (x), A; LD A, x)->(LD A, x; LD (x), A)
 15865                          ;	LD A, $00
 15866                          ; peephole(3): unread
 15867                          ;	LD (YGR+1), A
 15868  0234  3e00              	LD A, $ff
 15869  0236  320000            	LD (LINE), A
 15870                          ; peephole(1): r250 (LD A, x; LD (x), A; LD A, x)->(LD A, x; LD (x), A)
 15871                          ;	LD A, $ff
 15872  0239  320000            	LD (LINE+1), A
 15873  023c  3e00              	LD A, $04
 15874  023e  320000            	LD (TABCOUNT), A
 15875  0241  3e00              	LD A, $00
 15876                          ; peephole(3): unread
 15877                          ;	LD (CLIPX1), A
 15878                          ; peephole(1): r250 (LD A, x; LD (x), A; LD A, x)->(LD A, x; LD (x), A)
 15879                          ;	LD A, $00
 15880                          ; peephole(3): unread
 15881                          ;	LD (CLIPX1+1), A
 15882  0243  3e00              	LD A, $ff
 15883                          ; peephole(3): unread
 15884                          ;	LD (CLIPX2), A
 15885                          ; peephole(4): r407 (LD A, *; LD A, *)->(LD, A)
 15886                          ;	LD A, $00
 15887                          ; peephole(3): unread
 15888                          ;	LD (CLIPX2+1), A
 15889                          ; peephole(1): r250 (LD A, x; LD (x), A; LD A, x)->(LD A, x; LD (x), A)
 15890                          ;	LD A, $00
 15891                          ; peephole(3): unread
 15892                          ;	LD (CLIPY1), A
 15893                          ; peephole(5): r407 (LD A, *; LD A, *)->(LD, A)
 15894                          ;	LD A, $00
 15895                          ; peephole(3): unread
 15896                          ;	LD (CLIPY1+1), A
 15897  0245  3e00              	LD A, $bf
 15898                          ; peephole(3): unread
 15899                          ;	LD (CLIPY2), A
 15900                          ; peephole(4): r407 (LD A, *; LD A, *)->(LD, A)
 15901                          ;	LD A, $00
 15902                          ; peephole(3): unread
 15903                          ;	LD (CLIPY2+1), A
 15904                          ; peephole(1): r250 (LD A, x; LD (x), A; LD A, x)->(LD A, x; LD (x), A)
 15905                          ;	LD A, $00
 15906  0247  320000            	LD (ORIGINX), A
 15907  024a  3e00              	LD A, $00
 15908  024c  320000            	LD (ORIGINX+1), A
 15909                          ; peephole(1): r250 (LD A, x; LD (x), A; LD A, x)->(LD A, x; LD (x), A)
 15910                          ;	LD A, $00
 15911  024f  320000            	LD (ORIGINY), A
 15912  0252  3e00              	LD A, $00
 15913  0254  320000            	LD (ORIGINY+1), A
 15914                          ; peephole(1): r250 (LD A, x; LD (x), A; LD A, x)->(LD A, x; LD (x), A)
 15915                          ;	LD A, $00
 15916  0257  320000            	LD (RESOLUTIONX), A
 15917  025a  3e00              	LD A, $00
 15918  025c  320000            	LD (RESOLUTIONX+1), A
 15919                          ; peephole(1): r250 (LD A, x; LD (x), A; LD A, x)->(LD A, x; LD (x), A)
 15920                          ;	LD A, $00
 15921  025f  320000            	LD (RESOLUTIONY), A
 15922  0262  3e00              	LD A, $00
 15923  0264  320000            	LD (RESOLUTIONY+1), A
 15924                          ; peephole(1): r250 (LD A, x; LD (x), A; LD A, x)->(LD A, x; LD (x), A)
 15925                          ;	LD A, $00
 15926  0267  320000            	LD (TILEX), A
 15927  026a  3e00              	LD A, $00
 15928  026c  320000            	LD (TILEY), A
 15929                          ; peephole(1): r250 (LD A, x; LD (x), A; LD A, x)->(LD A, x; LD (x), A)
 15930                          ;	LD A, $00
 15931  026f  320000            	LD (TILEX2), A
 15932  0272  3e00              	LD A, $00
 15933  0274  320000            	LD (TILET), A
 15934                          ; peephole(1): r250 (LD A, x; LD (x), A; LD A, x)->(LD A, x; LD (x), A)
 15935                          ;	LD A, $00
 15936  0277  320000            	LD (TILEW), A
 15937  027a  3e00              	LD A, $00
 15938  027c  320000            	LD (TILEH), A
 15939                          ; peephole(1): r250 (LD A, x; LD (x), A; LD A, x)->(LD A, x; LD (x), A)
 15940                          ;	LD A, $00
 15941  027f  320000            	LD (TILEW2), A
 15942  0282  3e00              	LD A, $00
 15943  0284  320000            	LD (TILEH2), A
 15944                          ; peephole(1): r250 (LD A, x; LD (x), A; LD A, x)->(LD A, x; LD (x), A)
 15945                          ;	LD A, $00
 15946  0287  320000            	LD (TILEA), A
 15947  028a  3e00              	LD A, $00
 15948  028c  320000            	LD (TILEO), A
 15949                          ; peephole(1): r250 (LD A, x; LD (x), A; LD A, x)->(LD A, x; LD (x), A)
 15950                          ;	LD A, $00
 15951  028f  320000            	LD (TILEO+1), A
 15952  0292  3e00              	LD A, $00
 15953                          ; peephole(3): unread
 15954                          ;	LD (CURRENTMODE), A
 15955  0294  3e00              	LD A, $01
 15956                          ; peephole(3): unread
 15957                          ;	LD (CURRENTTILEMODE), A
 15958                          ; peephole(4): r407 (LD A, *; LD A, *)->(LD, A)
 15959                          ;	LD A, $00
 15960  0296  320000            	LD (BLITIMAGEBLITTINGADDR), A
 15961                          ; peephole(1): r250 (LD A, x; LD (x), A; LD A, x)->(LD A, x; LD (x), A)
 15962                          ;	LD A, $00
 15963  0299  320000            	LD (BLITIMAGEBLITTINGADDR+1), A
 15964  029c  3e00              	LD A, $00
 15965  029e  320000            	LD (BLITTMPPTR), A
 15966                          ; peephole(1): r250 (LD A, x; LD (x), A; LD A, x)->(LD A, x; LD (x), A)
 15967                          ;	LD A, $00
 15968  02a1  320000            	LD (BLITTMPPTR+1), A
 15969  02a4  3e00              	LD A, $00
 15970  02a6  320000            	LD (BLITTMPPTR2), A
 15971                          ; peephole(1): r250 (LD A, x; LD (x), A; LD A, x)->(LD A, x; LD (x), A)
 15972                          ;	LD A, $00
 15973  02a9  320000            	LD (BLITTMPPTR2+1), A
 15974  02ac  3e00              	LD A, $00
 15975                          ; peephole(3): unread
 15976                          ;	LD (TEXTADDRESS), A
 15977                          ; peephole(1): r250 (LD A, x; LD (x), A; LD A, x)->(LD A, x; LD (x), A)
 15978                          ;	LD A, $00
 15979                          ; peephole(3): unread
 15980                          ;	LD (TEXTADDRESS+1), A
 15981  02ae  3e00              	LD A, $00
 15982  02b0  320000            	LD (_charPoints), A
 15983                          ; peephole(1): r250 (LD A, x; LD (x), A; LD A, x)->(LD A, x; LD (x), A)
 15984                          ;	LD A, $00
 15985  02b3  320000            	LD (_charisma), A
 15986  02b6  3e00              	LD A, $00
 15987  02b8  320000            	LD (_xlocation), A
 15988                          ; peephole(1): r250 (LD A, x; LD (x), A; LD A, x)->(LD A, x; LD (x), A)
 15989                          ;	LD A, $00
 15990  02bb  320000            	LD (_ylocation), A
 15991  02be  3e00              	LD A, $00
 15992  02c0  320000            	LD (_optionspointer), A
 15993                          ; peephole(1): r250 (LD A, x; LD (x), A; LD A, x)->(LD A, x; LD (x), A)
 15994                          ;	LD A, $00
 15995  02c3  320000            	LD (_optionspointer+1), A
 15996  02c6  3e00              	LD A, $00
 15997  02c8  320000            	LD (_printPointer_c), A
 15998                          ; peephole(1): r250 (LD A, x; LD (x), A; LD A, x)->(LD A, x; LD (x), A)
 15999                          ;	LD A, $00
 16000  02cb  320000            	LD (_printPointer_c+1), A
 16001  02ce  3e00              	LD A, $00
 16002  02d0  320000            	LD (_printOptions_c), A
 16003                          ; peephole(1): r250 (LD A, x; LD (x), A; LD A, x)->(LD A, x; LD (x), A)
 16004                          ;	LD A, $00
 16005  02d3  320000            	LD (_printOptions_c+1), A
 16006  02d6  3e00              	LD A, $00
 16007  02d8  320000            	LD (_resetOptions_c), A
 16008                          ; peephole(1): r250 (LD A, x; LD (x), A; LD A, x)->(LD A, x; LD (x), A)
 16009                          ;	LD A, $00
 16010  02db  320000            	LD (_resetOptions_c+1), A
 16011  02de  3e00              	LD A, $00
 16012  02e0  320000            	LD (_optionsdown_c), A
 16013                          ; peephole(1): r250 (LD A, x; LD (x), A; LD A, x)->(LD A, x; LD (x), A)
 16014                          ;	LD A, $00
 16015  02e3  320000            	LD (_optionsdown_c+1), A
 16016  02e6  3e00              	LD A, $00
 16017                          ; peephole(3): unread
 16018                          ;	LD (_optionsup_done), A
 16019                          ; peephole(1): r250 (LD A, x; LD (x), A; LD A, x)->(LD A, x; LD (x), A)
 16020                          ;	LD A, $00
 16021  02e8  320000            	LD (_optionsup_c), A
 16022                          ; peephole(4): r250 (LD A, x; LD (x), A; LD A, x)->(LD A, x; LD (x), A)
 16023                          ;	LD A, $00
 16024  02eb  320000            	LD (_optionsup_c+1), A
 16025                          ; peephole(1): r250 (LD A, x; LD (x), A; LD A, x)->(LD A, x; LD (x), A)
 16026                          ;	LD A, $00
 16027  02ee  320000            	LD (_reprintCreateCharacterScreen_c), A
 16028  02f1  3e00              	LD A, $00
 16029  02f3  320000            	LD (_reprintCreateCharacterScreen_c+1), A
 16030                          ; peephole(1): r250 (LD A, x; LD (x), A; LD A, x)->(LD A, x; LD (x), A)
 16031                          ;	LD A, $00
 16032  02f6  320000            	LD (_gamemode), A
 16033  02f9  3e00              	LD A, $00
 16034  02fb  320000            	LD (_gamemode+1), A
 16035                          ; peephole(1): r250 (LD A, x; LD (x), A; LD A, x)->(LD A, x; LD (x), A)
 16036                          ;	LD A, $00
 16037  02fe  320000            	LD (_printAdventureScreen_c), A
 16038  0301  c9                	RET
 16039  0302  006f              	cstring1098: db 1, "o"
 16040  0304  0070              	cstring1079: db 1, "p"
 16041  0306  004d6f7665205765  	cstring1066: db 9, "Move West"
              7374              
 16042  0310  0077              	cstring1058: db 1, "w"
 16043  0312  004d6f766520536f  	cstring1036: db 10, "Move South"
              757468            
 16044  031d  004d6f7665204561  	cstring1005: db 9, "Move East"
              7374              
 16045  0327  004d6f7665204e6f  	cstring974: db 10, "Move North"
              727468            
 16046  0332  006368617220706f  	cstring652: db 17, "char points left:"
              696e7473206c6566  
              743a              
 16047  0344  00737472656e6774  	cstring645: db 28, "strength,skill and charisma."
              682c736b696c6c20  
              616e642063686172  
              69736d612e        
 16048  0361  0064697374726962  	cstring636: db 25, "distribute points between"
              75746520706f696e  
              7473206265747765  
              656e              
 16049  037b  004368617269736d  	cstring580: db 8, "Charisma"
              61                
 16050  0384  00536b696c6c      	cstring542: db 5, "Skill"
 16051  038a  0020202020202020  	cstring532: db 10, "          "
              202020            
 16052  0395  002020            	cstring516: db 2, "  "
 16053  0398  00537472656e6774  	cstring495: db 8, "Strength"
              68                
 16054  03a1  0061              	cstring468: db 1, "a"
 16055  03a3  0071              	cstring455: db 1, "q"
 16056  03a5  003e              	cstring319: db 1, ">"
 16057  03a7  0020              	cstring303: db 1, " "
 16058  03a9  0050726f74657374  	cstring207: db 9, "Protestor"
              6f72              
 16059  03b3  00776e            	cstring191: db 2, "wn"
 16060  03b6  00776e73          	cstring185: db 3, "wns"
 16061  03ba  0077656e73        	cstring169: db 4, "wens"
 16062  03bf  006e              	cstring158: db 1, "n"
 16063  03c1  0065736e          	cstring152: db 3, "esn"
 16064  03c5  0073              	cstring146: db 1, "s"
 16065  03c7  00                	cstring94: db 0, ""
 16066  03c8  007365            	cstring67: db 2, "se"
 16067  03cb  0065              	cstring61: db 1, "e"
 16068  03cd  006e65            	cstring55: db 2, "ne"
 16069  03d0  007377            	cstring49: db 2, "sw"
 16070  03d3  006261736520656e  	cstring43: db 13, "base entrance"
              7472616e6365      
 16071  03e1  006e77            	cstring37: db 2, "nw"
 16072  03e4  00736f757468206f  	cstring31: db 26, "south of the base entrance"
              6620746865206261  
              736520656e747261  
              6e6365            
 16073  03ff  006f757473696465  	cstring25: db 25, "outside the base entrance"
              2074686520626173  
              6520656e7472616e  
              6365              
 16074  0419  006e6f727468206f  	cstring4: db 26, "north of the base entrance"
              6620746865206261  
              736520656e747261  
              6e6365            
 16075  0434  0000              	cstring0: db 1, $09
 16076                          section data_user
 16077  0012  ff                MAXSTRINGS:                   DB 255
 16078  0013  00003a0000000000  DESCRIPTORS:                  DEFS 1020
              0000000000000500  
              000600000f180039  
              0000000000003c00  
              0a710000085c0000  
              0000000000000000  
              0000000000000000  
              0000000b71000000  
              0000000300067100  
              0000000000000000  
              0000000000003800  
              0000001300008001  
              0036040017710023  
              7100187100007100  
              1971002571001a71  
              0026710000000000  
              0001000000000400  
              0005000000000600  
              0007000000000006  
              0000040000000600  
              0000000000000000  
              0000000003000009  
              000000000a000001  
              0000090000000900  
              0000020000000000  
              0000100000000000  
              0700000000eb0000  
              00f1000000000000  
              000d00000000000f  
              00000c0000100000  
              040000000f000000  
              0400000000040000  
              0000000004000000  
              0400000011000000  
              0000140000000000  
              1200001200000012  
              0000000000000200  
              aa02000000000000  
              0000000000000000  
              0003000000000000  
              0000000000000000  
              0300780200990200  
              580200aa02000000  
              030000aa02000003  
              0080003600000300  
              7f00000300000000  
              f37002f470010000  
              f57000f670000000  
              f77058f870004000  
              f970000002fa7000  
              5800fb70002000fc  
              70f90000fd7000fe  
              70000000ff700000  
              7100000001710002  
              7100000c03710404  
              710000fd05710009  
              710000010a71080b  
              7101000f0c71e30d  
              710100000e71000f  
              7100070010710000  
              0000000300117100  
              00000000127101ff  
              00137100147100ff  
              5815710016710000  
              0217710001001871  
              a6c0001971020024  
              1a7100ff00200018  
              001b710008b400fd  
              0000fffd1c71001d  
              710004001e710000  
              03ff40bf0b1f7100  
              00002071ee217102  
              0000227102237102  
              000024710025710c  
              000026710c277100  
              0000287100297101  
              00002a71002b7100  
              000c2c71002d7100  
              00002e710e2f710c  
              0000307106317101  
              007a010032710033  
              7100000034710035  
              7108000036710037  
              7100000000008372  
              0084720000008572  
              0086720000008772  
              0088720000658972  
              148a720000018b72  
              118c721100008d72  
              028e720000008f72  
              1590720000009172  
              00927200b1720000  
              00b27200b3727000  
              cdb47212b5720001  
              0001140900000000  
              ee0200000401000a  
              0000000000110000  
              0000090100010000  
              000004000a050000  
              0000060000070011  
              0000000600000400  
              0000060000000400  
              001c000200000000  
              0300000900000000  
              0a00000100000900  
              0000090000001900  
              0000000000001000  
              0000000007000000  
              0077030000f10000  
              080b0000000d0000  
              0b05000f00000c0a  
              0010000004000000  
              0f00020004080000  
              0004000060710100  
              0100010001000900  
              1700000000001400  
              0200000312000004  
              0000001201000300  
              0000010100020000  
              014e020000020000  
              0d000000aa020000  
              0000000100150200  
              001a001600001200  
              0000150000140000  
              000000ee02000004  
              0000170019000000  
              1700000000000200  
              01000000          
 16079  040f  0004000005000000  WORKING:                      DEFS 1024
              00061a0007000000  
              0000060000040000  
              0006000000040000  
              0300020000010900  
              000009000000000a  
              0000010000090000  
              0009000000020000  
              0000000000100000  
              0000000700000000  
              62040000f1000000  
              0b0000000d00000b  
              00000f00000c0000  
              100000040000000f  
              0000000400000000  
              0400006071000004  
              0000000400000018  
              0000000000140000  
              0000001200001200  
              0000120000180000  
              0065010014000000  
              4e01000018000018  
              000000aa02000000  
              0000010015000000  
              0200160000120000  
              0015000014000000  
              0000ee0200000400  
              0018000000000018  
              0000010000000000  
              0001000004000000  
              0005000006000000  
              0007000000000006  
              0000040000000600  
              0000040000030002  
              0000000003000009  
              000000000a000001  
              0000090000000900  
              0000020000000000  
              0000100000000000  
              07000000004f0500  
              00f10000000b0000  
              000d00000b00000f  
              00000c0000100000  
              040000000f000000  
              0400000000040000  
              6071000004000000  
              0400000019000000  
              0000140000000000  
              1200001200000012  
              0000190000006501  
              00140000004e0100  
              0019000019000000  
              aa02000000000001  
              0015000000020016  
              0000120000001500  
              00140000000000ee  
              0200000400001900  
              0000000019000001  
              0000000001000000  
              0004000005000000  
              0006000007000000  
              0000060000040000  
              0006000000040000  
              0300020000000003  
              000009000000000a  
              0000010000090000  
              0009000000020000  
              0000000000100000  
              0000000700000000  
              3a060000f1000000  
              0b0000000d00000b  
              00000f00000c0000  
              100000040000000f  
              0000000400000000  
              0400006071000004  
              000000040000001a  
              0000000000140000  
              0000001200001200  
              00001200001a0000  
              0065010014000000  
              4e0100001a00001a  
              000000aa02000000  
              0000010015000000  
              0200160000120000  
              0015000014000000  
              0000ee0200000400  
              001a00000000001a  
              0000010000000002  
              0001000000000400  
              0005000000000600  
              0007000000000006  
              0000040000000600  
              0000040000030002  
              0000000003000009  
              000000000a000001  
              0000090000000900  
              0000020000000000  
              0000100000000000  
              0700000000270700  
              00f10000000b0000  
              000d00000b00000f  
              00000c0000100000  
              040000000f000000  
              0400000000040000  
              6071000004000000  
              040000001b000000  
              0000140000000000  
              1200001200000012  
              00001b0000006501  
              00140000004e0100  
              001b00001b000000  
              aa02000000000001  
              0015000000020016  
              0000120000001500  
              00140000000000ee  
              0200000400001b00  
              000000001b000002  
              0000000000000100  
              0004000000000500  
              0006000000000700  
              0000000006000004  
              0000000600000004  
              0000030002000000  
              0003000009000000  
              000a000001000009  
              0000000900000002  
              0000000000000010  
              0000000000070000  
 16080  080f  000014080000f100  TEMPORARY:                    DEFS 1024
              00000b0000000d00  
              000b00000f00000c  
              0000100000040000  
              000f000000040000  
              0000040000607100  
              0004000000040000  
              001c000000000014  
              0000000000120000  
              120000001200001c  
              0000006501001400  
              00004e0100001c00  
              001c000000aa0200  
              0000000001001500  
              0000020016000012  
              0000001500001400  
              00000000ee020000  
              0400001c00000000  
              001c000002000000  
              0001000100000000  
              0400000500000000  
              0600000700000000  
              0006000004000000  
              0600000004000003  
              0002000000000300  
              0009000000000a00  
              0001000009000000  
              0900000002000000  
              0000000010000000  
              0000070000000001  
              090000f10000000b  
              0000000d00000b00  
              000f00000c000010  
              0000040000000f00  
              0000040000000004  
              0000607100000400  
              0000040000001d00  
              0000000014000000  
              0000120000120000  
              001200001d000000  
              650100140000004e  
              0100001d00001d00  
              0000aa0200000000  
              0001001500000002  
              0016000012000000  
              1500001400000000  
              00ee020000040000  
              1d00000000001d00  
              0002000000000100  
              0000000400000500  
              0000000600000700  
              0000000006000004  
              0000000600000004  
              0000030002000000  
              0003000009000000  
              000a000001000009  
              0000000900000002  
              0000000000000010  
              0000000000070000  
              0000ec090000f100  
              00000b0000000d00  
              000b00000f00000c  
              0000100000040000  
              000f000000040000  
              0000040000607100  
              0004000000040000  
              001e000000000014  
              0000000000120000  
              120000001200001e  
              0000006501001400  
              00004e0100001e00  
              001e000000aa0200  
              0000000001001500  
              0000020016000012  
              0000001500001400  
              00000000ee020000  
              0400001e00000000  
              001e0000cd26000f  
              0024000024000083  
              7200000024000003  
              0025000000002600  
              0027000025000026  
              000000002b00002c  
              000000002d00002e  
              00002400002d0000  
              2b0000002d000000  
              2b00002b00002f00  
              002c00003000002f  
              0000002f00000000  
              2f00005f7200002f  
              0000002f00002600  
              0000000000000000  
              2400000300250000  
              0000260000270000  
              2500002600000000  
              2b00002c00000000  
              2d00002e00002400  
              002d00002b000000  
              2d0000002b00002b  
              00002f00002c0000  
              3000002f0000002f  
              000000002f000071  
              7200002f0000002f  
              0000260000000000  
              0000030024000024  
              0000847200000024  
              0000240000857200  
              0100240000240000  
              8672000000240000  
              2500000000290000  
              2a000000002b0000  
              2c00002400002b00  
              00290000002b0000  
              0029000003002600  
              0000002700002d00  
              0000002e00002500  
              002d0000002d0000  
              0026000000000000  
              0010000000000007  
              00000000ce0b0000  
              f100000031000000  
              3300003100002f00  
              0032000030000029  
              0000002f00000029  
              0000000029000069  
              7100002900000029  
              0000003500000000  
              0038000000000036  
 16081  0c0f  ff04              FREE_STRING:                  DB $ff, $04
 16082                          section code_user
 16083                          PROTOTHREADINIT:
 16084  0436  03                	RET
 16085                          ; peephole: pass 1, 558 changes.
 16086                          ; peephole: pass 2, 0 change.
 16087                          ; peephole: pass 3, 63 vars removed.
 16088                          ; peephole: pass 4, 4 changes.
 16089                          ; peephole: pass 5, 1 change.
 16090                          ; peephole: pass 6, 0 change.
 16091                          ; peephole: pass 7, 0 var removed.
 16092                          ; peephole: pass 8, 0 var moved to dp, 0 var inlined.
 16093                          
