2A00                          ORG $2A00
2A00  10CE8000                LDS #$8000
                              IF (((128+vars_after-(*+2))|(127-vars_after+(*+2)))&0x8000)
                              JMP vars_after
                              ELSE
2A04  200A                    BRA vars_after
                              ENDIF
                      ; /*****************************************************************************
                      ;  * ugBASIC - an isomorphic BASIC language compiler for retrocomputers        *
                      ;  *****************************************************************************
                      ;  * Copyright 2021-2023 Marco Spedaletti (asimov@mclink.it)
                      ;  *
                      ;  * Licensed under the Apache License, Version 2.0 (the "License");
                      ;  * you may not use this file except in compliance with the License.
                      ;  * You may obtain a copy of the License at
                      ;  *
                      ;  * http://www.apache.org/licenses/LICENSE-2.0
                      ;  *
                      ;  * Unless required by applicable law or agreed to in writing, software
                      ;  * distributed under the License is distributed on an "AS IS" BASIS,
                      ;  * WITHOUT WARRANTIES OR CONDITIONS OF ANY KIND, either express or implied.
                      ;  * See the License for the specific language governing permissions and
                      ;  * limitations under the License.
                      ;  *----------------------------------------------------------------------------
                      ;  * Concesso in licenza secondo i termini della Licenza Apache, versione 2.0
                      ;  * (la "Licenza"); è proibito usare questo file se non in conformità alla
                      ;  * Licenza. Una copia della Licenza è disponibile all'indirizzo:
                      ;  *
                      ;  * http://www.apache.org/licenses/LICENSE-2.0
                      ;  *
                      ;  * Se non richiesto dalla legislazione vigente o concordato per iscritto,
                      ;  * il software distribuito nei termini della Licenza è distribuito
                      ;  * "COSì COM'è", SENZA GARANZIE O CONDIZIONI DI ALCUN TIPO, esplicite o
                      ;  * implicite. Consultare la Licenza per il testo specifico che regola le
                      ;  * autorizzazioni e le limitazioni previste dalla medesima.
                      ;  ****************************************************************************/
                      ;* * * * * * * * * * * * * * * * * * * * * * * * * * * * * * * * * * * * * * * *
                      ;*                                                                             *
                      ;*                      INTERNAL VARIABLES FOR TRS-80 COLOR COMPUTER           *
                      ;*                                                                             *
                      ;*                             by Marco Spedaletti                             *
                      ;*                                                                             *
                      ;* * * * * * * * * * * * * * * * * * * * * * * * * * * * * * * * * * * * * * * *
                      ; peephole(14): inlined
                      ;TEXTADDRESS         fdb     $0400
2A06  0C00            BITMAPADDRESS       fdb     $0c00
2A08  A000            COLORMAPADDRESS     fdb     $a000
2A0A  A000            MOBADDRESS          fdb     $a000
                      ; peephole(14): inlined
                      ;CURRENTMODE         fcb     $2
                      ; peephole(6): unread
                      ;CURRENTTILEMODE     fcb     1
2A0C  00              EVERYSTATUS        fcb     0
2A0D  04              TABCOUNT            fcb     4
                      ; peephole(6): unread
                      ;XCURS               fcb     0
                      ; peephole(6): unread
                      ;YCURS               fcb     0
2A0E  60              EMPTYTILE           fcb     $60
0010                  TMPPTR equ $10    ; $23
0012                  TMPPTR2 equ $12    ; $25
0014                  MATHPTR0 equ $14
0015                  MATHPTR1 equ $15
0016                  MATHPTR2 equ $16
0017                  MATHPTR3 equ $17
0018                  MATHPTR4 equ $18
0019                  MATHPTR5 equ $19
0020                  MATHPTR6 equ $20
0021                  MATHPTR7 equ $21
0022                  MATHPTR8 equ $22
0023                  MATHPTRB0 equ $23
0024                  MATHPTRB1 equ $24
0025                  MATHPTRB2 equ $25
0026                  MATHPTRB3 equ $26
0027                  MATHPTRB4 equ $27
0028                  MATHPTRB5 equ $28
0029                  MATHPTRB6 equ $29
002A                  MATHPTRB7 equ $2a
002B                  MATHPTRB8 equ $2b
003B                  DSSTATUS equ $3b
003C                  DSSIZE equ $3c
003D                  DSADDRLO equ $3d
003E                  DSADDRHI equ $3e
003F                  DSBANKLO equ $3f
0040                  DSBANKHI equ $40
0041                  COPYOFTEXTADDRESS equ $41
0043                  COPYOFBITMAPADDRESS equ $43
0045                  COPYOFCOLORMAPADDRESS equ $45
0047                  COPYOFTEXTADDRESS2 equ $47
0049                  COPYOFCOLORMAPADDRESS2 equ $49
004A                  DIRECTION equ $4a
004A                  PATTERN equ $4a
004A                  CHARACTERS equ $4a
004B                  CLINEX equ $4b
004C                  CLINEY equ $4c
004A                  BITSTOCONVERT equ $4a
00D3                  XCURSYS equ $D3
00D6                  YCURSYS equ $D6
2A0F  00              BANKSHADOW fcb  0
2A10                  vars_after
                              IF (((128+startup_after-(*+2))|(127-startup_after+(*+2)))&0x8000)
                              JMP startup_after
                              ELSE
2A10  2021                    BRA startup_after
                              ENDIF
                      ; /*****************************************************************************
                      ;  * ugBASIC - an isomorphic BASIC language compiler for retrocomputers        *
                      ;  *****************************************************************************
                      ;  * Copyright 2021-2023 Marco Spedaletti (asimov@mclink.it)
                      ;  *
                      ;  * Licensed under the Apache License, Version 2.0 (the "License");
                      ;  * you may not use this file except in compliance with the License.
                      ;  * You may obtain a copy of the License at
                      ;  *
                      ;  * http://www.apache.org/licenses/LICENSE-2.0
                      ;  *
                      ;  * Unless required by applicable law or agreed to in writing, software
                      ;  * distributed under the License is distributed on an "AS IS" BASIS,
                      ;  * WITHOUT WARRANTIES OR CONDITIONS OF ANY KIND, either express or implied.
                      ;  * See the License for the specific language governing permissions and
                      ;  * limitations under the License.
                      ;  *----------------------------------------------------------------------------
                      ;  * Concesso in licenza secondo i termini della Licenza Apache, versione 2.0
                      ;  * (la "Licenza"); è proibito usare questo file se non in conformità alla
                      ;  * Licenza. Una copia della Licenza è disponibile all'indirizzo:
                      ;  *
                      ;  * http://www.apache.org/licenses/LICENSE-2.0
                      ;  *
                      ;  * Se non richiesto dalla legislazione vigente o concordato per iscritto,
                      ;  * il software distribuito nei termini della Licenza è distribuito
                      ;  * "COSì COM'è", SENZA GARANZIE O CONDIZIONI DI ALCUN TIPO, esplicite o
                      ;  * implicite. Consultare la Licenza per il testo specifico che regola le
                      ;  * autorizzazioni e le limitazioni previste dalla medesima.
                      ;  ****************************************************************************/
                      ;* * * * * * * * * * * * * * * * * * * * * * * * * * * * * * * * * * * * * * * *
                      ;*                                                                             *
                      ;*                          STARTUP ROUTINE ON TRS-80 COLOR COMPUTER           *
                      ;*                                                                             *
                      ;*                             by Marco Spedaletti                             *
                      ;*                                                                             *
                      ;* * * * * * * * * * * * * * * * * * * * * * * * * * * * * * * * * * * * * * * *
2A12                  OLDISVC
2A12  0000                    fdb $0
2A14                  ISVCIRQ
2A14  3406                    PSHS D
2A16  CC0000                  LDD #0
2A19  FD00E3                  STD $00e3
2A1C  3506                    PULS D
2A1E  6E9F2A12                JMP [OLDISVC]
2A22                  COCOSTARTUP
2A22  FC010D                  LDD $010D
2A25  FD2A12                  STD OLDISVC
2A28  CC2A14                  LDD #ISVCIRQ
2A2B  FD010D                  STD $010D
                              
                      ; peephole(1): r351 (LOAD#0)->(CLEAR)
                      ;    LDA #0
2A2E  4F                      CLRA
2A2F  B7011F                  STA $011f
2A32  39                      RTS
2A33                  startup_after
2A33  BD2A22                  JSR COCOSTARTUP
                              IF (((128+c6847vars_after-(*+2))|(127-c6847vars_after+(*+2)))&0x8000)
                              JMP c6847vars_after
                              ELSE
2A36  200A                    BRA c6847vars_after
                              ENDIF
                      ; /*****************************************************************************
                      ;  * ugBASIC - an isomorphic BASIC language compiler for retrocomputers        *
                      ;  *****************************************************************************
                      ;  * Copyright 2021-2023 Marco Spedaletti (asimov@mclink.it)
                      ;  *
                      ;  * Licensed under the Apache License, Version 2.0 (the "License");
                      ;  * you may not use this file except in compliance with the License.
                      ;  * You may obtain a copy of the License at
                      ;  *
                      ;  * http://www.apache.org/licenses/LICENSE-2.0
                      ;  *
                      ;  * Unless required by applicable law or agreed to in writing, software
                      ;  * distributed under the License is distributed on an "AS IS" BASIS,
                      ;  * WITHOUT WARRANTIES OR CONDITIONS OF ANY KIND, either express or implied.
                      ;  * See the License for the specific language governing permissions and
                      ;  * limitations under the License.
                      ;  *----------------------------------------------------------------------------
                      ;  * Concesso in licenza secondo i termini della Licenza Apache, versione 2.0
                      ;  * (la "Licenza"); è proibito usare questo file se non in conformità alla
                      ;  * Licenza. Una copia della Licenza è disponibile all'indirizzo:
                      ;  *
                      ;  * http://www.apache.org/licenses/LICENSE-2.0
                      ;  *
                      ;  * Se non richiesto dalla legislazione vigente o concordato per iscritto,
                      ;  * il software distribuito nei termini della Licenza è distribuito
                      ;  * "COSì COM'è", SENZA GARANZIE O CONDIZIONI DI ALCUN TIPO, esplicite o
                      ;  * implicite. Consultare la Licenza per il testo specifico che regola le
                      ;  * autorizzazioni e le limitazioni previste dalla medesima.
                      ;  ****************************************************************************/
                      ;* * * * * * * * * * * * * * * * * * * * * * * * * * * * * * * * * * * * * * * *
                      ;*                                                                             *
                      ;*                       INTERNAL VARIABLES FOR 6847 HARDWARE                  *
                      ;*                                                                             *
                      ;*                             by Marco Spedaletti                             *
                      ;*                                                                             *
                      ;* * * * * * * * * * * * * * * * * * * * * * * * * * * * * * * * * * * * * * * *
000B                  PLOTDEST equ $0b ; $29
000D                  PLOTCDEST equ $0d ; $27
000F                  PLOTC2DEST equ $0f ; $25
                      ; peephole(6): unread
                      ;XGR    fdb 0
                      ; peephole(6): unread
                      ;YGR    fdb 0
2A38  FFFF            LINE   fcb $ff, $ff
2A3A  0000            ORIGINX    fdb 0
2A3C  0000            ORIGINY    fdb 0
2A3E  0000            RESOLUTIONX    fdb 0
2A40  0000            RESOLUTIONY    fdb 0
                      ; peephole(6): unread
                      ;CLIPX1    fdb 0
                      ; peephole(6): unread
                      ;CLIPY1    fdb 0
                      ; peephole(6): unread
                      ;CLIPX2    fdb 319
                      ; peephole(6): unread
                      ;CLIPY2    fdb 199
                      ; peephole(6): unread
                      ;LASTCOLOR fcb 0
                      ; peephole(14): inlined
                      ;CURRENTWIDTH      fdb 32
                      ; peephole(14): inlined
                      ;CURRENTHEIGHT      fdb 16
                      ; peephole(6): unread
                      ;CURRENTTILESWIDTH      fcb 32
                      ; peephole(6): unread
                      ;CURRENTTILESHEIGHT      fcb 16
                      ; peephole(6): unread
                      ;CURRENTTILES            fcb 128
                      ; peephole(14): inlined
                      ;CURRENTFRAMESIZE   fdb 32*16
                      ; peephole(14): inlined
                      ;CURRENTSL          fcb 32
                      ; peephole(6): unread
                      ;TEXTWW      fcb 3
                      ; peephole(6): unread
                      ;FONTWIDTH       fcb 8
                      ; peephole(6): unread
                      ;FONTHEIGHT      fcb 8
0041                  IMAGEX EQU $41 ; $42
0043                  IMAGEY EQU $43 ; $44
0045                  IMAGEW EQU $45
0046                  IMAGEH EQU $46
0047                  IMAGEH2 EQU $47
0048                  IMAGET EQU $48
0049                  IMAGEF EQU $49
0050                  BLITTMPPTR EQU $50 ; $51
0052                  BLITTMPPTR2 EQU $52 ; $53
0054                  BLITS0 EQU $54
0055                  BLITS1 EQU $55
0056                  BLITS2 EQU $56
0057                  BLITR0 EQU $57
0058                  BLITR1 EQU $58
0059                  BLITR2 EQU $59
0060                  BLITR3 EQU $60
                      ; ------------------------------------------------------------------------------
                      ; BITMAP MODE (MODE #2)
                      ; ------------------------------------------------------------------------------
                      ; PLOTVBASELO
                      ;     fcb <($A000+(0*320)),<($A000+(1*320)),<($A000+(2*320)),<($A000+(3*320))
                      ;     fcb <($A000+(4*320)),<($A000+(5*320)),<($A000+(6*320)),<($A000+(7*320))
                      ;     fcb <($A000+(8*320)),<($A000+(9*320)),<($A000+(10*320)),<($A000+(11*320))
                      ;     fcb <($A000+(12*320)),<($A000+(13*320)),<($A000+(14*320)),<($A000+(15*320))
                      ;     fcb <($A000+(16*320)),<($A000+(17*320)),<($A000+(18*320)),<($A000+(19*320))
                      ;     fcb <($A000+(20*320)),<($A000+(21*320)),<($A000+(22*320)),<($A000+(23*320))
                      ;     fcb <($A000+(24*320))
                      ; PLOTVBASEHI
                      ;     fcb >($A000+(0*320)),>($A000+(1*320)),>($A000+(2*320)),>($A000+(3*320))
                      ;     fcb >($A000+(4*320)),>($A000+(5*320)),>($A000+(6*320)),>($A000+(7*320))
                      ;     fcb >($A000+(8*320)),>($A000+(9*320)),>($A000+(10*320)),>($A000+(11*320))
                      ;     fcb >($A000+(12*320)),>($A000+(13*320)),>($A000+(14*320)),>($A000+(15*320))
                      ;     fcb >($A000+(16*320)),>($A000+(17*320)),>($A000+(18*320)),>($A000+(19*320))
                      ;     fcb >($A000+(20*320)),>($A000+(21*320)),>($A000+(22*320)),>($A000+(23*320))
                      ;     fcb >($A000+(24*320))
                      ; PLOT8LO
                      ;     fcb <(0*8),<(1*8),<(2*8),<(3*8),<(4*8),<(5*8),<(6*8),<(7*8),<(8*8),<(9*8)
                      ;     fcb <(10*8),<(11*8),<(12*8),<(13*8),<(14*8),<(15*8),<(16*8),<(17*8),<(18*8),<(19*8)
                      ;     fcb <(20*8),<(21*8),<(22*8),<(23*8),<(24*8),<(25*8),<(26*8),<(27*8),<(28*8),<(29*8)
                      ;     fcb <(30*8),<(31*8),<(32*8),<(33*8),<(34*8),<(35*8),<(36*8),<(37*8),<(38*8),<(39*8)
                      ; PLOT8HI
                      ;     fcb >(0*8),>(1*8),>(2*8),>(3*8),>(4*8),>(5*8),>(6*8),>(7*8),>(8*8),>(9*8)
                      ;     fcb >(10*8),>(11*8),>(12*8),>(13*8),>(14*8),>(15*8),>(16*8),>(17*8),>(18*8),>(19*8)
                      ;     fcb >(20*8),>(21*8),>(22*8),>(23*8),>(24*8),>(25*8),>(26*8),>(27*8),>(28*8),>(29*8)
                      ;     fcb >(30*8),>(31*8),>(32*8),>(33*8),>(34*8),>(35*8),>(36*8),>(37*8),>(38*8),>(39*8)
                      ; PLOTCVBASELO
                      ;     fcb <($8400+(0*40)),<($8400+(1*40)),<($8400+(2*40)),<($8400+(3*40))
                      ;     fcb <($8400+(4*40)),<($8400+(5*40)),<($8400+(6*40)),<($8400+(7*40))
                      ;     fcb <($8400+(8*40)),<($8400+(9*40)),<($8400+(10*40)),<($8400+(11*40))
                      ;     fcb <($8400+(12*40)),<($8400+(13*40)),<($8400+(14*40)),<($8400+(15*40))
                      ;     fcb <($8400+(16*40)),<($8400+(17*40)),<($8400+(18*40)),<($8400+(19*40))
                      ;     fcb <($8400+(20*40)),<($8400+(21*40)),<($8400+(22*40)),<($8400+(23*40))
                      ;     fcb <($8400+(24*40))
                      ; PLOTCVBASEHI
                      ;     fcb >($8400+(0*40)),>($8400+(1*40)),>($8400+(2*40)),>($8400+(3*40))
                      ;     fcb >($8400+(4*40)),>($8400+(5*40)),>($8400+(6*40)),>($8400+(7*40))
                      ;     fcb >($8400+(8*40)),>($8400+(9*40)),>($8400+(10*40)),>($8400+(11*40))
                      ;     fcb >($8400+(12*40)),>($8400+(13*40)),>($8400+(14*40)),>($8400+(15*40))
                      ;     fcb >($8400+(16*40)),>($8400+(17*40)),>($8400+(18*40)),>($8400+(19*40))
                      ;     fcb >($8400+(20*40)),>($8400+(21*40)),>($8400+(22*40)),>($8400+(23*40))
                      ;     fcb >($8400+(24*40))
                      ; PLOTC2VBASELO
                      ;     fcb <($D800+(0*40)),<($D800+(1*40)),<($D800+(2*40)),<($D800+(3*40))
                      ;     fcb <($D800+(4*40)),<($D800+(5*40)),<($D800+(6*40)),<($D800+(7*40))
                      ;     fcb <($D800+(8*40)),<($D800+(9*40)),<($D800+(10*40)),<($D800+(11*40))
                      ;     fcb <($D800+(12*40)),<($D800+(13*40)),<($D800+(14*40)),<($D800+(15*40))
                      ;     fcb <($D800+(16*40)),<($D800+(17*40)),<($D800+(18*40)),<($D800+(19*40))
                      ;     fcb <($D800+(20*40)),<($D800+(21*40)),<($D800+(22*40)),<($D800+(23*40))
                      ;     fcb <($D800+(24*40))
                      ; PLOTC2VBASEHI
                      ;     fcb >($D800+(0*40)),>($D800+(1*40)),>($D800+(2*40)),>($D800+(3*40))
                      ;     fcb >($D800+(4*40)),>($D800+(5*40)),>($D800+(6*40)),>($D800+(7*40))
                      ;     fcb >($D800+(8*40)),>($D800+(9*40)),>($D800+(10*40)),>($D800+(11*40))
                      ;     fcb >($D800+(12*40)),>($D800+(13*40)),>($D800+(14*40)),>($D800+(15*40))
                      ;     fcb >($D800+(16*40)),>($D800+(17*40)),>($D800+(18*40)),>($D800+(19*40))
                      ;     fcb >($D800+(20*40)),>($D800+(21*40)),>($D800+(22*40)),>($D800+(23*40))
                      ;     fcb >($D800+(24*40))
                      ; ------------------------------------------------------------------------------
                      ; MULTICOLOR MODE (MODE #3)
                      ; ------------------------------------------------------------------------------
                      ; PLOT4LO
                      ;     fcb <(0*4),<(1*4),<(2*4),<(3*4),<(4*4),<(5*4),<(6*4),<(7*4),<(8*4),<(9*4)
                      ;     fcb <(10*4),<(11*4),<(12*4),<(13*4),<(14*4),<(15*4),<(16*4),<(17*4),<(18*4),<(19*4)
                      ;     fcb <(20*4),<(21*4),<(22*4),<(23*4),<(24*4),<(25*4),<(26*4),<(27*4),<(28*4),<(29*4)
                      ;     fcb <(30*4),<(31*4),<(32*4),<(33*4),<(34*4),<(35*4),<(36*4),<(37*4),<(38*4),<(39*4)
                      ;     fcb <(40*4),<(41*4),<(42*4),<(43*4),<(44*4),<(45*4),<(46*4),<(47*4),<(48*4),<(49*4)
                      ;     fcb <(50*4),<(51*4),<(52*4),<(53*4),<(54*4),<(55*4),<(56*4),<(57*4),<(58*4),<(59*4)
                      ;     fcb <(60*4),<(61*4),<(62*4),<(63*4),<(64*4),<(65*4),<(66*4),<(67*4),<(68*4),<(69*4)
                      ;     fcb <(70*4),<(71*4),<(72*4),<(73*4),<(74*4),<(75*4),<(76*4),<(77*4),<(78*4),<(79*4)
                      ; PLOT4HI
                      ;     fcb >(0*4),>(1*4),>(2*4),>(3*4),>(4*4),>(5*4),>(6*4),>(7*4),>(8*4),>(9*4)
                      ;     fcb >(10*4),>(11*4),>(12*4),>(13*4),>(14*4),>(15*4),>(16*4),>(17*4),>(18*4),>(19*4)
                      ;     fcb >(20*4),>(21*4),>(22*4),>(23*4),>(24*4),>(25*4),>(26*4),>(27*4),>(28*4),>(29*4)
                      ;     fcb >(30*4),>(31*4),>(32*4),>(33*4),>(34*4),>(35*4),>(36*4),>(37*4),>(38*4),>(39*4)
                      ;     fcb >(40*4),>(41*4),>(42*4),>(43*4),>(44*4),>(45*4),>(46*4),>(47*4),>(48*4),>(49*4)
                      ;     fcb >(50*4),>(51*4),>(52*4),>(53*4),>(54*4),>(55*4),>(56*4),>(57*4),>(58*4),>(59*4)
                      ;     fcb >(60*4),>(61*4),>(62*4),>(63*4),>(64*4),>(65*4),>(66*4),>(67*4),>(68*4),>(69*4)
                      ;     fcb >(70*4),>(71*4),>(72*4),>(73*4),>(74*4),>(75*4),>(76*4),>(77*4),>(78*4),>(79*4)
2A42                  c6847vars_after
                              IF (((128+c6847startup_after-(*+2))|(127-c6847startup_after+(*+2)))&0x8000)
                              JMP c6847startup_after
                              ELSE
2A42  202B                    BRA c6847startup_after
                              ENDIF
                      ; /*****************************************************************************
                      ;  * ugBASIC - an isomorphic BASIC language compiler for retrocomputers        *
                      ;  *****************************************************************************
                      ;  * Copyright 2021-2023 Marco Spedaletti (asimov@mclink.it)
                      ;  *
                      ;  * Licensed under the Apache License, Version 2.0 (the "License");
                      ;  * you may not use this file except in compliance with the License.
                      ;  * You may obtain a copy of the License at
                      ;  *
                      ;  * http://www.apache.org/licenses/LICENSE-2.0
                      ;  *
                      ;  * Unless required by applicable law or agreed to in writing, software
                      ;  * distributed under the License is distributed on an "AS IS" BASIS,
                      ;  * WITHOUT WARRANTIES OR CONDITIONS OF ANY KIND, either express or implied.
                      ;  * See the License for the specific language governing permissions and
                      ;  * limitations under the License.
                      ;  *----------------------------------------------------------------------------
                      ;  * Concesso in licenza secondo i termini della Licenza Apache, versione 2.0
                      ;  * (la "Licenza"); è proibito usare questo file se non in conformità alla
                      ;  * Licenza. Una copia della Licenza è disponibile all'indirizzo:
                      ;  *
                      ;  * http://www.apache.org/licenses/LICENSE-2.0
                      ;  *
                      ;  * Se non richiesto dalla legislazione vigente o concordato per iscritto,
                      ;  * il software distribuito nei termini della Licenza è distribuito
                      ;  * "COSì COM'è", SENZA GARANZIE O CONDIZIONI DI ALCUN TIPO, esplicite o
                      ;  * implicite. Consultare la Licenza per il testo specifico che regola le
                      ;  * autorizzazioni e le limitazioni previste dalla medesima.
                      ;  ****************************************************************************/
                      ;* * * * * * * * * * * * * * * * * * * * * * * * * * * * * * * * * * * * * * * *
                      ;*                                                                             *
                      ;*                            STARTUP ROUTINE FOR 6847                         *
                      ;*                                                                             *
                      ;*                             by Marco Spedaletti                             *
                      ;*                                                                             *
                      ;* * * * * * * * * * * * * * * * * * * * * * * * * * * * * * * * * * * * * * * *
2A44                  CPUMEMMOVE
2A44  11830000                CMPU #0
2A48  270C                    BEQ CPUMEMMOVEDONE
2A4A                  CPUMEMMOVEL1
2A4A  A6A0                    LDA ,Y+
2A4C  A780                    STA ,X+
2A4E  335F                    LEAU -1,U
2A50  11830000                CMPU #$0
2A54  26F4                    BNE CPUMEMMOVEL1
2A56                  CPUMEMMOVEDONE
2A56  39                      RTS
                              
2A57                  C6847STARTUP
                          ; (4) Default screen mode is semigraphic-4
2A57  B7FFC0                  STA $FFC0
2A5A  B7FFC2                  STA $FFC2
2A5D  B7FFC4                  STA $FFC4
2A60  B6FF22                  LDA $FF22
2A63  847F                    ANDA #$7F
2A65  B7FF22                  STA $FF22  
2A68  B60003                  LDA $03
2A6B  B7FF98                  STA $FF98
2A6E  39                      RTS
2A6F                  c6847startup_after
2A6F  BD2A57                  JSR C6847STARTUP
                              IF (((128+clsText_after-(*+2))|(127-clsText_after+(*+2)))&0x8000)
                              JMP clsText_after
                              ELSE
2A72  2046                    BRA clsText_after
                              ENDIF
                      ; /*****************************************************************************
                      ;  * ugBASIC - an isomorphic BASIC language compiler for retrocomputers        *
                      ;  *****************************************************************************
                      ;  * Copyright 2021-2023 Marco Spedaletti (asimov@mclink.it)
                      ;  *
                      ;  * Licensed under the Apache License, Version 2.0 (the "License");
                      ;  * you may not use this file except in compliance with the License.
                      ;  * You may obtain a copy of the License at
                      ;  *
                      ;  * http://www.apache.org/licenses/LICENSE-2.0
                      ;  *
                      ;  * Unless required by applicable law or agreed to in writing, software
                      ;  * distributed under the License is distributed on an "AS IS" BASIS,
                      ;  * WITHOUT WARRANTIES OR CONDITIONS OF ANY KIND, either express or implied.
                      ;  * See the License for the specific language governing permissions and
                      ;  * limitations under the License.
                      ;  *----------------------------------------------------------------------------
                      ;  * Concesso in licenza secondo i termini della Licenza Apache, versione 2.0
                      ;  * (la "Licenza"); è proibito usare questo file se non in conformità alla
                      ;  * Licenza. Una copia della Licenza è disponibile all'indirizzo:
                      ;  *
                      ;  * http://www.apache.org/licenses/LICENSE-2.0
                      ;  *
                      ;  * Se non richiesto dalla legislazione vigente o concordato per iscritto,
                      ;  * il software distribuito nei termini della Licenza è distribuito
                      ;  * "COSì COM'è", SENZA GARANZIE O CONDIZIONI DI ALCUN TIPO, esplicite o
                      ;  * implicite. Consultare la Licenza per il testo specifico che regola le
                      ;  * autorizzazioni e le limitazioni previste dalla medesima.
                      ;  ****************************************************************************/
                      ;* * * * * * * * * * * * * * * * * * * * * * * * * * * * * * * * * * * * * * * *
                      ;*                                                                             *
                      ;*                       CLEAR SCREEN ROUTINE FOR 6847                         *
                      ;*                                                                             *
                      ;*                             by Marco Spedaletti                             *
                      ;*                                                                             *
                      ;* * * * * * * * * * * * * * * * * * * * * * * * * * * * * * * * * * * * * * * *
2A74                  CLST
                      ; peephole(14): inlined
                      ;       LDA CURRENTMODE
2A74  8602                    LDA #$2
2A75                  CURRENTMODE equ *-1
                      ; peephole(1): r433 (LOAD/STORE,CMP#0)->(LOAD/STORE)
                      ;    CMPA #0
2A76  2603                    BNE CLS0X
2A78  7E2AA6                  JMP CLS0
2A7B                  CLS0X
2A7B  8101                    CMPA #1
2A7D  2603                    BNE CLS1X
2A7F  7E2AA6                  JMP CLS1
2A82                  CLS1X
2A82  8102                    CMPA #2
2A84  2603                    BNE CLS2X
2A86  7E2AA6                  JMP CLS2
2A89                  CLS2X
2A89  8103                    CMPA #3
2A8B  2603                    BNE CLS3X
2A8D  7E2AA6                  JMP CLS3
2A90                  CLS3X
2A90  8104                    CMPA #4
2A92  2603                    BNE CLS4X
2A94  7E2AA6                  JMP CLS4
2A97                  CLS4X
2A97  8105                    CMPA #5
2A99  2603                    BNE CLS5X
2A9B  7E2AA6                  JMP CLS5
2A9E                  CLS5X
2A9E  8106                    CMPA #6
2AA0  2603                    BNE CLS6X
2AA2  7E2AA6                  JMP CLS6
2AA5                  CLS6X
2AA5  39                      RTS
2AA6                  CLS0
2AA6                  CLS1
2AA6                  CLS2
2AA6                  CLS3
2AA6                  CLS4
2AA6                  CLS5
2AA6                  CLS6
2AA6                  CLST2
                      ; peephole(14): inlined
                      ;       LDY TEXTADDRESS
2AA6  108E0400                LDY #$0400
2AA8                  TEXTADDRESS equ *-2
                      ; peephole(14): inlined
                      ;       LDX CURRENTFRAMESIZE
2AAA  8E0200                  LDX #32*16
2AAB                  CURRENTFRAMESIZE equ *-2
2AAD  B62A0E                  LDA EMPTYTILE
2AB0                  CLST3
2AB0  A7A0                    STA ,Y +
2AB2  301F                    LEAX -1,X 
2AB4  8C0000                  CMPX #0
2AB7  26F7                    BNE CLST3
2AB9  39                      RTS
2ABA                  clsText_after
2ABA  BD2A74                  JSR CLST
                              IF (((128+VARINIT-(*+2))|(127-VARINIT+(*+2)))&0x8000)
2ABD  BD46B0                  JSR VARINIT
                              ELSE
                              BSR VARINIT
                              ENDIF
                              ; L:0
                              ; P:219
                              ; L:1
                              ; P:0
                              ; L:2
                              ; P:0
                              ; L:3
                              ; P:0
                              ; L:4
2AC0  B7FFC6                  STA $FFC6
2AC3  B7FFC8                  STA $FFC8
2AC6  B7FFCA                  STA $FFCA
2AC9  B7FFCC                  STA $FFCC
2ACC  B7FFCE                  STA $FFCE
2ACF  B7FFD0                  STA $FFD0
2AD2  B7FFD2                  STA $FFD2
2AD5  B7FFC9                  STA $FFC9
2AD8  B7FFCB                  STA $FFCB
2ADB  B6FF22                  LDA $FF22
2ADE  8A80                    ORA #$80
2AE0  B7FF22                  STA $FF22
2AE3  B7FFC5                  STA $FFC5
2AE6  B7FFC3                  STA $FFC3
2AE9  B7FFC0                  STA $FFC0
2AEC  B6FF22                  LDA $FF22
2AEF  8A40                    ORA #$40
                      ; peephole(2): r419 (STORE*,?,STORE*)->(?,STORE*)
                      ;       STA $FF22
                      ; peephole(1): r335 (STORE*,LOAD*)->(STORE*)
                      ;       LDA $FF22
2AF1  8A20                    ORA #$20
                      ; peephole(2): r419 (STORE*,?,STORE*)->(?,STORE*)
                      ;       STA $FF22
                      ; peephole(1): r335 (STORE*,LOAD*)->(STORE*)
                      ;       LDA $FF22
2AF3  8A10                    ORA #$10
2AF5  B7FF22                  STA $FF22
2AF8  CC0000                  LDD #$0000
                      ; peephole(6): unread
                      ;       STD CLIPX1
                      ; peephole(1): r742 [A=0](LDD#00xx)->(LDB#xx)
                      ;       LDD #$00ff
                      ; peephole(2): r778 [B=0](LDB#ff)->(DECB)
                      ;       LDB #$ff
2AFB  5A                      DECB
                      ; peephole(6): unread
                      ;       STD CLIPX2
                      ; peephole(1): r742 [A=0](LDD#00xx)->(LDB#xx)
                      ;       LDD #$0000
                      ; peephole(2): r351 (LOAD#0)->(CLEAR)
                      ;       LDB #$00
                      ; peephole(7): r362 (LOAD/CLR,LOAD)->(LOAD)
                      ;       CLRB
                      ; peephole(6): unread
                      ;       STD CLIPY1
                      ; peephole(1): r742 [A=0](LDD#00xx)->(LDB#xx)
                      ;       LDD #$00bf
2AFC  C6BF                    LDB #$bf
                      ; peephole(6): unread
                      ;       STD CLIPY2
2AFE  CC1800                  LDD #$1800
2B01  FD2AAB                  STD CURRENTFRAMESIZE
2B04  C620                    LDB #$20
2B06  F72CF8                  STB CURRENTSL
2B09  CC0000                  LDD #$0000
2B0C  FD2A3A                  STD ORIGINX
                      ; peephole(1): r742 [A=0](LDD#00xx)->(LDB#xx)
                      ;       LDD #$0000
                      ; peephole(2): r351 (LOAD#0)->(CLEAR)
                      ;       LDB #$00
                      ; peephole(3): r775 [B=0](CLRB)->()
                      ;       CLRB
2B0F  FD2A3C                  STD ORIGINY
                      ; peephole(3): r784 [B=0](LDB#xx00)->(LDA#xx)
                      ;       LDD #$0100
                      ; peephole(4): r739 [A=0](LDA#1)->(INCA)
                      ;       LDA #$01
2B12  4C                      INCA
2B13  FD2B1D                  STD CURRENTWIDTH
2B16  CC00C0                  LDD #$00c0
2B19  FD2B23                  STD CURRENTHEIGHT
                      ; peephole(14): inlined
                      ;       LDD CURRENTWIDTH
2B1C  CC0020                  LDD #32
2B1D                  CURRENTWIDTH equ *-2
2B1F  FD2A3E                  STD RESOLUTIONX
                      ; peephole(14): inlined
                      ;       LDD CURRENTHEIGHT
2B22  CC0010                  LDD #16
2B23                  CURRENTHEIGHT equ *-2
2B25  FD2A40                  STD RESOLUTIONY
                      ; peephole(7): r362 (LOAD/CLR,LOAD)->(LOAD)
                      ;       LDB #$80
                      ; peephole(6): unread
                      ;       STB CURRENTTILES
                      ; peephole(7): r362 (LOAD/CLR,LOAD)->(LOAD)
                      ;       LDB #$20
                      ; peephole(6): unread
                      ;       STB CURRENTTILESWIDTH
2B28  C618                    LDB #$18
                      ; peephole(6): unread
                      ;       STB CURRENTTILESHEIGHT
                      ; peephole(1): r800 (LDB#,STB,CLRA)->(LDD#,STB)
                      ;       LDB #$0e
2B2A  CC000E                  LDD #$000e
                      ; peephole(6): unread
                      ;       STA CURRENTTILEMODE
                              ; P:58
                              ; L:5
                              ; P:0
                              ; L:6
                      ; peephole(14): direct-page
                      ;       STA _Ttmp1
2B2D  97D9                    STA <_Ttmp1
                      ; peephole(14): direct-page
                      ;       STA _Ttmp4
2B2F  97D8                    STA <_Ttmp4
2B31  F72A75                  STB CURRENTMODE
                      ;       CLRA
                      ; peephole(2): r733 [A=0](CLRA)->()
                      ;       CLRA
                      ; peephole(14): direct-page
                      ;       LDB _Ttmp1
2B34  D6D9                    LDB <_Ttmp1
2B36  F72B40                  STB _Ttmp3+1
                      ; peephole(1): r733 [A=0](CLRA)->()
                      ;       CLRA
                      ; peephole(14): direct-page
                      ;       LDB _Ttmp4
2B39  D6D8                    LDB <_Ttmp4
2B3B  F72B3F                  STB _Ttmp3
                      ; peephole(14): inlined
                      ;       LDD _Ttmp3
2B3E  CC0000                  LDD #1-1
2B3F                  _Ttmp3 equ *-2
2B41  FD2DE2                  STD _Ttmp2
2B44  4F                      CLRA
                      ; peephole(11): unread
                      ;       STA _Ttmp6
                      ; peephole(3): r751 [A=0](STA*,LDB*)->(CLRB)
                      ;       LDB _Ttmp6
2B45  5F                      CLRB
2B46  B72B4D                  STA _Ttmp9
2B49  F72B53                  STB _Ttmp8+1
                      ; peephole(1): r733 [A=0](CLRA)->()
                      ;       CLRA
                      ; peephole(14): inlined
                      ;       LDB _Ttmp9
2B4C  C600                    LDB #1-1
2B4D                  _Ttmp9 equ *-1
2B4E  F72B52                  STB _Ttmp8
                      ; peephole(14): inlined
                      ;       LDD _Ttmp8
2B51  CC0000                  LDD #1-1
2B52                  _Ttmp8 equ *-2
2B54  FD2DE8                  STD _Ttmp7
                              IF (((128+putimage_after-(*+2))|(127-putimage_after+(*+2)))&0x8000)
2B57  7E2DDD                  JMP putimage_after
                              ELSE
                              BRA putimage_after
                              ENDIF
                      ; /*****************************************************************************
                      ;  * ugBASIC - an isomorphic BASIC language compiler for retrocomputers        *
                      ;  *****************************************************************************
                      ;  * Copyright 2021-2023 Marco Spedaletti (asimov@mclink.it)
                      ;  *
                      ;  * Licensed under the Apache License, Version 2.0 (the "License");
                      ;  * you may not use this file except in compliance with the License.
                      ;  * You may obtain a copy of the License at
                      ;  *
                      ;  * http://www.apache.org/licenses/LICENSE-2.0
                      ;  *
                      ;  * Unless required by applicable law or agreed to in writing, software
                      ;  * distributed under the License is distributed on an "AS IS" BASIS,
                      ;  * WITHOUT WARRANTIES OR CONDITIONS OF ANY KIND, either express or implied.
                      ;  * See the License for the specific language governing permissions and
                      ;  * limitations under the License.
                      ;  *----------------------------------------------------------------------------
                      ;  * Concesso in licenza secondo i termini della Licenza Apache, versione 2.0
                      ;  * (la "Licenza"); è proibito usare questo file se non in conformità alla
                      ;  * Licenza. Una copia della Licenza è disponibile all'indirizzo:
                      ;  *
                      ;  * http://www.apache.org/licenses/LICENSE-2.0
                      ;  *
                      ;  * Se non richiesto dalla legislazione vigente o concordato per iscritto,
                      ;  * il software distribuito nei termini della Licenza è distribuito
                      ;  * "COSì COM'è", SENZA GARANZIE O CONDIZIONI DI ALCUN TIPO, esplicite o
                      ;  * implicite. Consultare la Licenza per il testo specifico che regola le
                      ;  * autorizzazioni e le limitazioni previste dalla medesima.
                      ;  ****************************************************************************/
                      ;* * * * * * * * * * * * * * * * * * * * * * * * * * * * * * * * * * * * * * * *
                      ;*                                                                             *
                      ;*                          IMAGES ROUTINE FOR 6847                            *
                      ;*                                                                             *
                      ;*                             by Marco Spedaletti                             *
                      ;*                                                                             *
                      ;* * * * * * * * * * * * * * * * * * * * * * * * * * * * * * * * * * * * * * * *
                      ; ----------------------------------------------------------------------------
                      ; - Put image on bitmap
                      ; ----------------------------------------------------------------------------
2B5A                  PUTIMAGE
2B5A  B62A75                  LDA CURRENTMODE
                      ; peephole(1): r433 (LOAD/STORE,CMP#0)->(LOAD/STORE)
                      ;    CMPA #0
2B5D  2603                    BNE PUTIMAGE0X
2B5F  7E2BC5                  JMP PUTIMAGE0
2B62                  PUTIMAGE0X
2B62  8101                    CMPA #1
2B64  2603                    BNE PUTIMAGE1X
2B66  7E2BC5                  JMP PUTIMAGE1
2B69                  PUTIMAGE1X
2B69  8102                    CMPA #2
2B6B  2603                    BNE PUTIMAGE2X
2B6D  7E2BC6                  JMP PUTIMAGE2
2B70                  PUTIMAGE2X
2B70  8103                    CMPA #3
2B72  2603                    BNE PUTIMAGE3X
2B74  7E2BC7                  JMP PUTIMAGE3
2B77                  PUTIMAGE3X
2B77  8104                    CMPA #4
2B79  2603                    BNE PUTIMAGE4X
2B7B  7E2BC8                  JMP PUTIMAGE4
2B7E                  PUTIMAGE4X
2B7E  8105                    CMPA #5
2B80  2603                    BNE PUTIMAGE5X
2B82  7E2BC9                  JMP PUTIMAGE5
2B85                  PUTIMAGE5X
2B85  8106                    CMPA #6
2B87  2603                    BNE PUTIMAGE6X
2B89  7E2BCA                  JMP PUTIMAGE6
2B8C                  PUTIMAGE6X
2B8C  8107                    CMPA #7
2B8E  2603                    BNE PUTIMAGE7X
2B90  7E2BCB                  JMP PUTIMAGE7
2B93                  PUTIMAGE7X
2B93  8108                    CMPA #8
2B95  2603                    BNE PUTIMAGE8X
2B97  7E2BE7                  JMP PUTIMAGE8
2B9A                  PUTIMAGE8X
2B9A  8109                    CMPA #9
2B9C  2603                    BNE PUTIMAGE9X
2B9E  7E2C05                  JMP PUTIMAGE9
2BA1                  PUTIMAGE9X
2BA1  810A                    CMPA #10
2BA3  2603                    BNE PUTIMAGE10X
2BA5  7E2C23                  JMP PUTIMAGE10
2BA8                  PUTIMAGE10X
2BA8  810B                    CMPA #11
2BAA  2603                    BNE PUTIMAGE11X
2BAC  7E2C41                  JMP PUTIMAGE11
2BAF                  PUTIMAGE11X
2BAF  810C                    CMPA #12
2BB1  2603                    BNE PUTIMAGE12X
2BB3  7E2C5F                  JMP PUTIMAGE12
2BB6                  PUTIMAGE12X
2BB6  810D                    CMPA #13
2BB8  2603                    BNE PUTIMAGE13X
2BBA  7E2C7D                  JMP PUTIMAGE13
2BBD                  PUTIMAGE13X
2BBD  810E                    CMPA #14
2BBF  2603                    BNE PUTIMAGE14X
2BC1  7E2C9B                  JMP PUTIMAGE14
2BC4                  PUTIMAGE14X
2BC4  39                      RTS
2BC5                  PUTIMAGE0
2BC5                  PUTIMAGE1
2BC5  39                      RTS
                      ; The ALPHA SEMIGRAPHICS – 4 mode translates bits 0 through 3 into a 4 x 6 dot 
                      ; element in the standard 8 x 12 dot box. Three data bits may be used to select
                      ; one of eight colors for the entire character box. The extra bit is used to 
                      ; switch to alphanumeric. A 512 byte display memory is required. A density of 
                      ; 64 x 32 elements is available in the display area. The element area is four
                      ; dot-clocks wide by six lines high.
2BC6                  PUTIMAGE2
2BC6  39                      RTS
                      ; The ALPHA SEMIGRAPHICS – 6 mode maps six 4 x 4 dot elements into the standard
                      ; 8 x 12 dot alphanumeric box, a screen density of 64 x 48 elements is available. 
                      ; Six bits are used to generate this map and two data bits may be used to select 
                      ; one of four colors in the display box. A 512 byte display memory is required. 
                      ; The element area is four dot-clocks wide by four lines high.
2BC7                  PUTIMAGE3
2BC7  39                      RTS
                      ; The ALPHA SEMIGRAPHICS – 8 mode maps eight 4 x 3 dot elements into the 
                      ; standard 8 x 12 dot box. This mode requires four memory locations per box 
                      ; and each memory location may specify one of eight colors or black. 
                      ; A 2048 byte display memory is required. A density of 64 x 64 elements is 
                      ; available in the display area. The element area is four dot-clocks wide 
                      ; by three lines high.
2BC8                  PUTIMAGE4
2BC8  39                      RTS
                      ; The ALPHA SEMIGRAPHICS – 12 mode maps twelve 4 x 2 dot elements into the 
                      ; standard 8 x 12 dot box. This mode requires six memory locations per box and 
                      ; each memory location may specify one of eight colors or black. A 3072 byte 
                      ; display memory is required. A density of 64 x 96 elements is available in the
                      ; display area. The element area is four dot-clocks wide by two lineshigh.
2BC9                  PUTIMAGE5
2BC9  39                      RTS
                      ; The ALPHA SEMIGRAPHICS – 24 mode maps twenty-four 4 x 1 dot elements into 
                      ; the standard 8 x 12 dot box. This mode requires twelve memory locations 
                      ; per box and each memory location may specify one of eight colors or black. 
                      ; A 6144 byte display memory is required. A density of 64 x 192
                      ; elements is available in the display are. The element area is four 
                      ; dot-clocks wide by one line high.
2BCA                  PUTIMAGE6
2BCA  39                      RTS
                      ; The 64 x 64 Color Graphics mode generates a display matrix of 64 
                      ; elements wide by 64 elements high. Each element may be one of four 
                      ; colors. A 1K x 8 display memory is required. Each pixel equals 
                      ; four dot-clocks by three scan lines.
2BCB                  PUTIMAGE7
2BCB  BE2A06                  LDX BITMAPADDRESS
2BCE  FC0043                  LDD IMAGEY
2BD1  58                      LSLB
2BD2  49                      ROLA
2BD3  58                      LSLB
2BD4  49                      ROLA
2BD5  58                      LSLB
2BD6  49                      ROLA
2BD7  58                      LSLB
2BD8  49                      ROLA
2BD9  308B                    LEAX D,X 
2BDB  FC0041                  LDD IMAGEX
2BDE  44                      LSRA
2BDF  56                      RORB
2BE0  44                      LSRA
2BE1  56                      RORB
2BE2  308B                    LEAX D,X 
2BE4  7E2D24                  JMP PUTIMAGECOMMONC
                      ; The 128 x 64 Graphics Mode generates a matrix 128 elements wide 
                      ; by 64 elements high. Each element may be either ON or OFF. However, 
                      ; the entire display may be one of two colors, selected by using the 
                      ; color set select pin. A 1K x 8 display memory is required. Each 
                      ; pixel equals two dotclocks by three scan lines.
2BE7                  PUTIMAGE8
2BE7  BE2A06                  LDX BITMAPADDRESS
2BEA  FC0043                  LDD IMAGEY
2BED  58                      LSLB
2BEE  49                      ROLA
2BEF  58                      LSLB
2BF0  49                      ROLA
2BF1  58                      LSLB
2BF2  49                      ROLA
2BF3  58                      LSLB
2BF4  49                      ROLA
2BF5  308B                    LEAX D,X 
2BF7  FC0041                  LDD IMAGEX
2BFA  44                      LSRA
2BFB  56                      RORB
2BFC  44                      LSRA
2BFD  56                      RORB
2BFE  44                      LSRA
2BFF  56                      RORB
2C00  308B                    LEAX D,X 
2C02  7E2CBB                  JMP PUTIMAGECOMMON
                      ; The 128 x 64 Color Graphics mode generates a display matrix 128 
                      ; elements wide by 64 elements high. Each element may be one of four 
                      ; colors. A 2K x 8 display memory is required. Each pixel equals
                      ; two dot-clocks by three scan lines.
2C05                  PUTIMAGE9
2C05  BE2A06                  LDX BITMAPADDRESS
2C08  FC0043                  LDD IMAGEY
2C0B  58                      LSLB
2C0C  49                      ROLA
2C0D  58                      LSLB
2C0E  49                      ROLA
2C0F  58                      LSLB
2C10  49                      ROLA
2C11  58                      LSLB
2C12  49                      ROLA
2C13  58                      LSLB
2C14  49                      ROLA
2C15  308B                    LEAX D,X 
2C17  FC0041                  LDD IMAGEX
2C1A  44                      LSRA
2C1B  56                      RORB
2C1C  44                      LSRA
2C1D  56                      RORB
2C1E  308B                    LEAX D,X 
2C20  7E2D24                  JMP PUTIMAGECOMMONC
                      ; The 128 x 96 Graphics mode generates a display matrix 128 
                      ; elements wide by 96 elements high. Each element may be either 
                      ; ON or OFF. However, the entire display may be one of two colors
                      ; selected by using the color select pin. A 2K x 8 display memory 
                      ; is required. Each pixel equals two dot-clocks by two scan lines.
2C23                  PUTIMAGE10
2C23  BE2A06                  LDX BITMAPADDRESS
2C26  FC0043                  LDD IMAGEY
2C29  58                      LSLB
2C2A  49                      ROLA
2C2B  58                      LSLB
2C2C  49                      ROLA
2C2D  58                      LSLB
2C2E  49                      ROLA
2C2F  58                      LSLB
2C30  49                      ROLA
2C31  308B                    LEAX D,X 
2C33  FC0041                  LDD IMAGEX
2C36  44                      LSRA
2C37  56                      RORB
2C38  44                      LSRA
2C39  56                      RORB
2C3A  44                      LSRA
2C3B  56                      RORB
2C3C  308B                    LEAX D,X 
2C3E  7E2CBB                  JMP PUTIMAGECOMMON
                      ; The 128 x 96 Color Graphics mode generates a display 128 elements 
                      ; wide by 96 elements high. Each element may be one of four colors. 
                      ; A 3K x 8 display memory is required. Each pixel equals two 
                      ; dot-clocks by two scan lines.
2C41                  PUTIMAGE11
2C41  BE2A06                  LDX BITMAPADDRESS
2C44  FC0043                  LDD IMAGEY
2C47  58                      LSLB
2C48  49                      ROLA
2C49  58                      LSLB
2C4A  49                      ROLA
2C4B  58                      LSLB
2C4C  49                      ROLA
2C4D  58                      LSLB
2C4E  49                      ROLA
2C4F  58                      LSLB
2C50  49                      ROLA
2C51  308B                    LEAX D,X 
2C53  FC0041                  LDD IMAGEX
2C56  44                      LSRA
2C57  56                      RORB
2C58  44                      LSRA
2C59  56                      RORB
2C5A  308B                    LEAX D,X 
2C5C  7E2D24                  JMP PUTIMAGECOMMONC
                      ; The 128 x 192 Graphics mode generates a display matrix 128 elements 
                      ; wide by 192 elements high. Each element may be either ON or OFF,
                      ; but the ON elements may be one of two colors selected with color 
                      ; set select pin. A 3K x 8 display memory is required. Each pixel 
                      ; equals two dot-clocks by one scan line.
2C5F                  PUTIMAGE12
2C5F  BE2A06                  LDX BITMAPADDRESS
2C62  FC0043                  LDD IMAGEY
2C65  58                      LSLB
2C66  49                      ROLA
2C67  58                      LSLB
2C68  49                      ROLA
2C69  58                      LSLB
2C6A  49                      ROLA
2C6B  58                      LSLB
2C6C  49                      ROLA
2C6D  308B                    LEAX D,X 
2C6F  FC0041                  LDD IMAGEX
2C72  44                      LSRA
2C73  56                      RORB
2C74  44                      LSRA
2C75  56                      RORB
2C76  44                      LSRA
2C77  56                      RORB
2C78  308B                    LEAX D,X 
2C7A  7E2CBB                  JMP PUTIMAGECOMMON
                      ;  The 128 x 192 Color Graphics mode generates a display 128 elements 
                      ;  wide by 192 elements high. Each element may be one of four colors.
                      ;  A 6K x 8 display memory is required. Each pixel equals two dot-clocks 
                      ;  by one scan line.
2C7D                  PUTIMAGE13
2C7D  BE2A06                  LDX BITMAPADDRESS
2C80  FC0043                  LDD IMAGEY
2C83  58                      LSLB
2C84  49                      ROLA
2C85  58                      LSLB
2C86  49                      ROLA
2C87  58                      LSLB
2C88  49                      ROLA
2C89  58                      LSLB
2C8A  49                      ROLA
2C8B  58                      LSLB
2C8C  49                      ROLA
2C8D  308B                    LEAX D,X 
2C8F  FC0041                  LDD IMAGEX
2C92  44                      LSRA
2C93  56                      RORB
2C94  44                      LSRA
2C95  56                      RORB
2C96  308B                    LEAX D,X 
2C98  7E2D24                  JMP PUTIMAGECOMMONC
                      ; The 256 x 192 Graphics mode generates a display 256 elements wide by 
                      ; 192 elements high. Each element may be either ON or OFF, but the ON 
                      ; element may be one of two colors selected with the color set select pin. 
                      ; A 6K x 8 display memory is required. Each pixel equals one 
                      ; dot-clock by one scan line.
2C9B                  PUTIMAGE14
2C9B  BE2A06                  LDX BITMAPADDRESS
2C9E  FC0043                  LDD IMAGEY
2CA1  58                      LSLB
2CA2  49                      ROLA
2CA3  58                      LSLB
2CA4  49                      ROLA
2CA5  58                      LSLB
2CA6  49                      ROLA
2CA7  58                      LSLB
2CA8  49                      ROLA
2CA9  58                      LSLB
2CAA  49                      ROLA
2CAB  308B                    LEAX D,X 
2CAD  FC0041                  LDD IMAGEX
2CB0  44                      LSRA
2CB1  56                      RORB
2CB2  44                      LSRA
2CB3  56                      RORB
2CB4  44                      LSRA
2CB5  56                      RORB
2CB6  308B                    LEAX D,X 
2CB8  7E2CBB                  JMP PUTIMAGECOMMON
2CBB                  PUTIMAGECOMMON
2CBB  A6A4                    LDA ,Y
2CBD  44                      LSRA
2CBE  44                      LSRA
2CBF  44                      LSRA
2CC0  8100                    CMPA #0
2CC2  2602                    BNE PUTIMAGE2L0
2CC4  8620                    LDA #32
2CC6                  PUTIMAGE2L0
2CC6  B70045                  STA IMAGEW
2CC9  A621                    LDA 1,Y
2CCB  B70046                  STA IMAGEH
2CCE  B70047                  STA IMAGEH2
2CD1  3122                    LEAY 2,Y
2CD3  F60045                  LDB IMAGEW
2CD6  5A                      DECB
2CD7                  PUTIMAGE2L1
2CD7  A6A5                    LDA B,Y
2CD9  A785                    STA B,X
2CDB  5A                      DECB
2CDC  C100                    CMPB #0
2CDE  2CF7                    BGE PUTIMAGE2L1
2CE0  B60049                  LDA IMAGEF
2CE3  8440                    ANDA #64
2CE5  8100                    CMPA #0
2CE7  2721                    BEQ PUTIMAGE2L1N
2CE9  B60049                  LDA IMAGEF
2CEC  8401                    ANDA #1
2CEE  8101                    CMPA #1
2CF0  2710                    BEQ PUTIMAGE2L1N0
2CF2  8A41                    ORA #65
2CF4  B70049                  STA IMAGEF
                      ; peephole(14): inlined
                      ;       LDB CURRENTSL
2CF7  C620                    LDB #32
2CF8                  CURRENTSL equ *-1
2CF9  3085                    LEAX B,X 
2CFB  F60045                  LDB IMAGEW
2CFE  5A                      DECB
2CFF  7E2CD7                  JMP PUTIMAGE2L1
2D02                  PUTIMAGE2L1N0
2D02  B60049                  LDA IMAGEF
2D05  84FE                    ANDA #$FE
2D07  B70049                  STA IMAGEF
2D0A                  PUTIMAGE2L1N
2D0A  F60045                  LDB IMAGEW
2D0D  31A5                    LEAY B,Y 
2D0F  F62CF8                  LDB CURRENTSL
2D12  3085                    LEAX B,X 
2D14  7A0046                  DEC IMAGEH
2D17  F60046                  LDB IMAGEH
                      ; peephole(1): r433 (LOAD/STORE,CMP#0)->(LOAD/STORE)
                      ;    CMPB #0
2D1A  2707                    BEQ PUTIMAGECOMMONE
2D1C  F60045                  LDB IMAGEW
2D1F  5A                      DECB
2D20  7E2CD7                  JMP PUTIMAGE2L1
2D23                  PUTIMAGECOMMONE
2D23  39                      RTS
2D24                  PUTIMAGECOMMONC
2D24  A6A4                    LDA ,Y
2D26  44                      LSRA
2D27  44                      LSRA
2D28  8100                    CMPA #0
2D2A  2602                    BNE PUTIMAGECL0
2D2C  8640                    LDA #64
2D2E                  PUTIMAGECL0
2D2E  B70045                  STA IMAGEW
2D31  A621                    LDA 1,Y
2D33  B70046                  STA IMAGEH
2D36  B70047                  STA IMAGEH2
2D39  3122                    LEAY 2,Y
2D3B  F60045                  LDB IMAGEW
2D3E  5A                      DECB
2D3F                  PUTIMAGE2CL1
2D3F  B60049                  LDA IMAGEF
2D42  8420                    ANDA #32
2D44  8100                    CMPA #0 
2D46  2747                    BEQ PUTIMAGE2CL1DEF
2D48                  PUTIMAGE2YTRANS3L1
                      ; peephole(1): r351 (LOAD#0)->(CLEAR)
                      ;    LDA #0
2D48  4F                      CLRA
2D49  9719                    STA <MATHPTR5
2D4B  A6A5                    LDA B,Y
                          ; 00 01 10 00
2D4D  84C0                    ANDA #$C0
                          ; -> 00 00 00 00
2D4F  2706                    BEQ PUTIMAGE2YTRANS3L1P4X
2D51  9619                    LDA <MATHPTR5
2D53  8AC0                    ORA #$C0
2D55  9719                    STA <MATHPTR5
2D57                  PUTIMAGE2YTRANS3L1P4X
2D57  A6A5                    LDA B,Y
                          ; 00 01 10 00
2D59  8430                    ANDA #$30
                          ; -> 00 01 00 00
2D5B  2706                    BEQ PUTIMAGE2YTRANS3L1P3X
2D5D  9619                    LDA <MATHPTR5
2D5F  8A30                    ORA #$30
                          ; MATH PTR = 00 11 00 00
2D61  9719                    STA <MATHPTR5
2D63                  PUTIMAGE2YTRANS3L1P3X
2D63  A6A5                    LDA B,Y
                          ; 00 01 10 00
2D65  840C                    ANDA #$0C
                          ; -> 00 00 00 00
2D67  2706                    BEQ PUTIMAGE2YTRANS3L1P2X
2D69  9619                    LDA <MATHPTR5
2D6B  8A0C                    ORA #$0C
2D6D  9719                    STA <MATHPTR5
2D6F                  PUTIMAGE2YTRANS3L1P2X
2D6F  A6A5                    LDA B,Y
                          ; 00 01 10 00
2D71  8403                    ANDA #$03
                          ; -> 00 01 00 00
2D73  2706                    BEQ PUTIMAGE2YTRANS3L1P1X
2D75  9619                    LDA <MATHPTR5
2D77  8A03                    ORA #$03
                          ; MATH PTR = 00 11 00 00
2D79  9719                    STA <MATHPTR5
2D7B                  PUTIMAGE2YTRANS3L1P1X
2D7B  9619                    LDA <MATHPTR5
                          ; 00 11 11 00
                      ; peephole(1): r356 (EOR#$FF)->(COM)
                      ;    EORA #$FF
2D7D  43                      COMA
                          ; 11 00 00 11
2D7E  9720                    STA <MATHPTR6
2D80  A685                    LDA B,X
                          ; 00 00 00 00
2D82  9420                    ANDA <MATHPTR6
2D84  9720                    STA <MATHPTR6
                          ; 00 00 00 00
2D86  A6A5                    LDA B,Y
2D88  9419                    ANDA <MATHPTR5
2D8A  9A20                    ORA <MATHPTR6
2D8C  7E2D91                  JMP PUTIMAGE2CL1FINAL
2D8F                  PUTIMAGE2CL1DEF
2D8F  A6A5                    LDA B,Y
2D91                  PUTIMAGE2CL1FINAL
2D91  A785                    STA B,X
2D93  5A                      DECB
2D94  C100                    CMPB #0
2D96  2CA7                    BGE PUTIMAGE2CL1
2D98  B60049                  LDA IMAGEF
2D9B  8440                    ANDA #64
2D9D  8100                    CMPA #0
2D9F  2722                    BEQ PUTIMAGE2CL1N
2DA1  B60049                  LDA IMAGEF
2DA4  8401                    ANDA #1
2DA6  8101                    CMPA #1
2DA8  2711                    BEQ PUTIMAGE2CL1N0
2DAA  8A41                    ORA #65
2DAC  B70049                  STA IMAGEF
2DAF  F62CF8                  LDB CURRENTSL
2DB2  3085                    LEAX B,X 
2DB4  F60045                  LDB IMAGEW
2DB7  5A                      DECB
2DB8  7E2D3F                  JMP PUTIMAGE2CL1
2DBB                  PUTIMAGE2CL1N0
2DBB  B60049                  LDA IMAGEF
2DBE  84FE                    ANDA #$FE
2DC0  B70049                  STA IMAGEF
2DC3                  PUTIMAGE2CL1N
2DC3  F60045                  LDB IMAGEW
2DC6  31A5                    LEAY B,Y 
2DC8  F62CF8                  LDB CURRENTSL
2DCB  3085                    LEAX B,X 
2DCD  7A0046                  DEC IMAGEH
2DD0  F60046                  LDB IMAGEH
                      ; peephole(1): r433 (LOAD/STORE,CMP#0)->(LOAD/STORE)
                      ;    CMPB #0
2DD3  2707                    BEQ PUTIMAGECOMMONCE
2DD5  F60045                  LDB IMAGEW
2DD8  5A                      DECB
2DD9  7E2D3F                  JMP PUTIMAGE2CL1
2DDC                  PUTIMAGECOMMONCE
2DDC  39                      RTS
2DDD                  putimage_after
2DDD  108E2EAE                LDY #_p4
                      ; peephole(14): inlined
                      ;       LDD _Ttmp2
2DE1  CC0000                  LDD #1-1
2DE2                  _Ttmp2 equ *-2
2DE4  FD0041                  STD IMAGEX
                      ; peephole(14): inlined
                      ;       LDD _Ttmp7
2DE7  CC0000                  LDD #1-1
2DE8                  _Ttmp7 equ *-2
2DEA  FD0043                  STD IMAGEY
                      ; peephole(1): r351 (LOAD#0)->(CLEAR)
                      ;       LDA #$00
2DED  4F                      CLRA
2DEE  9749                    STA <IMAGEF
2DF0  8602                    LDA #$02
2DF2  9748                    STA <IMAGET
2DF4  BD2B5A                  JSR PUTIMAGE
                      ; peephole(14): direct-page
                      ;       LDB _Ttmp1
2DF7  D6D9                    LDB <_Ttmp1
                      ; peephole(6): unread
                      ;       STB XGR+1
2DF9  4F                      CLRA
                      ; peephole(6): unread
                      ;       STA _Ttmp12
                      ; peephole(3): r751 [A=0](STA*,LDB*)->(CLRB)
                      ;       LDB _Ttmp12
2DFA  5F                      CLRB
                      ; peephole(11): unread
                      ;       STA _Ttmp13
                      ; peephole(6): unread
                      ;       STB XGR
                      ; peephole(7): r362 (LOAD/CLR,LOAD)->(LOAD)
                      ;       LDB _Ttmp6
                      ; peephole(6): unread
                      ;       STB YGR+1
                      ; peephole(1): r733 [A=0](CLRA)->()
                      ;       CLRA
                      ; peephole(8): r751 [A=0](STA*,LDB*)->(CLRB)
                      ;       LDB _Ttmp13
                      ; peephole(9): r775 [B=0](CLRB)->()
                      ;       CLRB
                      ; peephole(6): unread
                      ;       STB YGR
                              ; P:448
                              ; L:7
2DFB                  _label14repeatx
                              IF (((128+scancode_after-(*+2))|(127-scancode_after+(*+2)))&0x8000)
2DFB  7E2E7D                  JMP scancode_after
                              ELSE
                              BRA scancode_after
                              ENDIF
                      ; /*****************************************************************************
                      ;  * ugBASIC - an isomorphic BASIC language compiler for retrocomputers        *
                      ;  *****************************************************************************
                      ;  * Copyright 2021-2023 Marco Spedaletti (asimov@mclink.it)
                      ;  *
                      ;  * Licensed under the Apache License, Version 2.0 (the "License");
                      ;  * you may not use this file except in compliance with the License.
                      ;  * You may obtain a copy of the License at
                      ;  *
                      ;  * http://www.apache.org/licenses/LICENSE-2.0
                      ;  *
                      ;  * Unless required by applicable law or agreed to in writing, software
                      ;  * distributed under the License is distributed on an "AS IS" BASIS,
                      ;  * WITHOUT WARRANTIES OR CONDITIONS OF ANY KIND, either express or implied.
                      ;  * See the License for the specific language governing permissions and
                      ;  * limitations under the License.
                      ;  *----------------------------------------------------------------------------
                      ;  * Concesso in licenza secondo i termini della Licenza Apache, versione 2.0
                      ;  * (la "Licenza"); è proibito usare questo file se non in conformità alla
                      ;  * Licenza. Una copia della Licenza è disponibile all'indirizzo:
                      ;  *
                      ;  * http://www.apache.org/licenses/LICENSE-2.0
                      ;  *
                      ;  * Se non richiesto dalla legislazione vigente o concordato per iscritto,
                      ;  * il software distribuito nei termini della Licenza è distribuito
                      ;  * "COSì COM'è", SENZA GARANZIE O CONDIZIONI DI ALCUN TIPO, esplicite o
                      ;  * implicite. Consultare la Licenza per il testo specifico che regola le
                      ;  * autorizzazioni e le limitazioni previste dalla medesima.
                      ;  ****************************************************************************/
                      ;* * * * * * * * * * * * * * * * * * * * * * * * * * * * * * * * * * * * * * * *
                      ;*                                                                             *
                      ;*                      KEYBOARD MATRIX DETECTION ON TRS-80 COLOR COMPUTER     *
                      ;*                                                                             *
                      ;*                             by Marco Spedaletti                             *
                      ;*                                                                             *
                      ;* * * * * * * * * * * * * * * * * * * * * * * * * * * * * * * * * * * * * * * *
2DFE                  SCANCODE
                          ; CLR $FF01
                          ; CLR $FF00
                          ; CLR $FF03
2DFE  86FF                    LDA #$FF
2E00  B7FF02                  STA $FF02
2E03  8E2E3D                  LDX #SCANCODEMATRIX
2E06  86FE                    LDA #$FE
2E08                  SCANCODE0
2E08  B7FF02                  STA $FF02
2E0B  F6FF00                  LDB $FF00
                      ; peephole(1): r356 (EOR#$FF)->(COM)
                      ;    EORB #$FF
2E0E  53                      COMB
2E0F  C47F                    ANDB #$7F
2E11  C100                    CMPB #$0
2E13  271C                    BEQ SCANCODENEXT
2E15  1F98                    TFR B, A
2E17                  SCANCODENEXT2A
2E17  1F89                    TFR A, B
2E19  8401                    ANDA #1
2E1B  8101                    CMPA #1
2E1D  2605                    BNE SCANCODENEXT2
2E1F  A684                    LDA ,X 
2E21  7E2E3C                  JMP SCANCODEE
2E24                  SCANCODENEXT2
2E24  1F98                    TFR B, A
2E26  44                      LSRA
2E27  3001                    LEAX 1,X 
2E29  8100                    CMPA #0
2E2B  26EA                    BNE SCANCODENEXT2A
                      ; peephole(1): r351 (LOAD#0)->(CLEAR)
                      ;    LDA #0
2E2D  4F                      CLRA
2E2E  7E2E3C                  JMP SCANCODEE
2E31                  SCANCODENEXT
2E31  1A01                    ORCC #$01
2E33  49                      ROLA
2E34  3008                    LEAX 8,X 
2E36  8C2E75                  CMPX #SCANCODEMATRIXE
2E39  23CD                    BLS SCANCODE0
                      ; peephole(1): r351 (LOAD#0)->(CLEAR)
                      ;    LDA #0
2E3B  4F                      CLRA
2E3C                  SCANCODEE
2E3C  39                      RTS
2E3D                  SCANCODEMATRIX
2E3D  4048505830380D00         fcb '@','H','P','X','0','8',$0d,$00     ; // UNUSED
2E45  414951593139F900         fcb 'A','I','Q','Y','1','9',$F9,$00     ; // CLR, UNUSED
2E4D  424A525A323A0000         fcb 'B','J','R','Z','2',':',$00,$00     ; // BRK, UNUSED
2E55  434B53FA333B0000         fcb 'C','K','S',$FA,'3',';',$00,$00     ; // UP $FA, UNUSED, UNUSED
2E5D  444C54FB342C0000         fcb 'D','L','T',$FB,'4',',',$00,$00     ; // DOWN $FB, UNUSED, UNUSED
2E65  454D55FC352D0000         fcb 'E','M','U',$FC,'5','-',$00,$00     ; // ?? $FC, .., LEFT, UNUSED, UNUSED
2E6D  464E56FD362E0000         fcb 'F','N','V',$FD,'6','.',$00,$00     ; // RIGHT $FD, UNUSED, UNUSED
2E75                  SCANCODEMATRIXE
2E75  374F5720372F00FE         fcb '7','O','W',' ','7','/',$00,$FE     ; // UNUSED, SHIFT
2E7D                  scancode_after
                      ; peephole(1): r351 (LOAD#0)->(CLEAR)
                      ;       LDA #0
2E7D  4F                      CLRA
                      ; peephole(14): direct-page
                      ;       STA _Ttmp4
2E7E  97D8                    STA <_Ttmp4
                      ; peephole(14): direct-page
                      ;       STA _Ttmp1
2E80  97D9                    STA <_Ttmp1
2E82  BD2DFE                  JSR SCANCODE
2E85  8100                    CMPA #0
2E87  2706                    BEQ _label15nokey
                      ; peephole(14): direct-page
                      ;       STA _Ttmp1
2E89  97D9                    STA <_Ttmp1
2E8B  86FF                    LDA #$FF
                      ; peephole(14): direct-page
                      ;       STA _Ttmp4
2E8D  97D8                    STA <_Ttmp4
2E8F                  _label15nokey
                      ; peephole(14): direct-page
                      ;       LDB _Ttmp4
2E8F  D6D8                    LDB <_Ttmp4
                              IF (((128+_label14repeatx-(*+2))|(127-_label14repeatx+(*+2)))&0x8000)
2E91  1026FF66                LBNE _label14repeatx
                              ELSE
                              BNE _label14repeatx
                              ENDIF
2E95                  _label14repeat
                      ; peephole(1): r351 (LOAD#0)->(CLEAR)
                      ;       LDA #0
2E95  4F                      CLRA
                      ; peephole(14): direct-page
                      ;       STA _Ttmp4
2E96  97D8                    STA <_Ttmp4
                      ; peephole(14): direct-page
                      ;       STA _Ttmp1
2E98  97D9                    STA <_Ttmp1
2E9A  BD2DFE                  JSR SCANCODE
2E9D  8100                    CMPA #0
2E9F  2706                    BEQ _label16nokey
                      ; peephole(14): direct-page
                      ;       STA _Ttmp1
2EA1  97D9                    STA <_Ttmp1
2EA3  86FF                    LDA #$FF
                      ; peephole(14): direct-page
                      ;       STA _Ttmp4
2EA5  97D8                    STA <_Ttmp4
2EA7                  _label16nokey
                      ; peephole(14): direct-page
                      ;       LDB _Ttmp4
2EA7  D6D8                    LDB <_Ttmp4
                              IF (((128+_label14repeat-(*+2))|(127-_label14repeat+(*+2)))&0x8000)
                              LBEQ _label14repeat
                              ELSE
2EA9  27EA                    BEQ _label14repeat
                              ENDIF
                              ; P:87
                              ; L:8
                              ; P:0
                              ; L:9
                              ; P:0
                              ; L:10
                              ; P:0
                              ; L:11
                              ; P:0
2EAB                  _label17
                              IF (((128+_label17-(*+2))|(127-_label17+(*+2)))&0x8000)
                              JMP _label17
                              ELSE
2EAB  20FE                    BRA _label17
                              ENDIF
                      ; peephole(6): unread
                      ;_PEN rzb 1
                      ; peephole(6): unread
                      ;_PAPER rzb 1
                      ; peephole(6): unread
                      ;_windowE rzb 1
                      ; peephole(6): unread
                      ;_windowS rzb 1
                      ; peephole(6): unread
                      ;_windowW rzb 1
                      ; peephole(6): unread
                      ;_TAB fcb 1
2EAD  09                      fcc $09
                      ; peephole(6): unread
                      ;_windowMX rzb 1
                      ; peephole(6): unread
                      ;_windowMY rzb 1
2EAE  00C00000000000000000000000000000 _p4 fcb 0,192,0,0,0,0,0,0,0,0,0,0,0,0,0,        0
2EBE  00000000000000000000000000000000         fcb 0,0,0,0,0,0,0,0,0,0,0,0,0,0,0,      0
2ECE  00000000000000000000000000000000         fcb 0,0,0,0,0,0,0,0,0,0,0,0,0,0,0,      0
2EDE  00000000000000000000000000000000         fcb 0,0,0,0,0,0,0,0,0,0,0,0,0,0,0,      0
2EEE  00002492492492492492495492492492         fcb 0,0,36,146,73,36,146,73,36,146,73,84,146,73,36,     146
2EFE  4924A4925556B7FF7A4924924924AAB6         fcb 73,36,164,146,85,86,183,255,122,73,36,146,73,36,170,        182
2F0E  D5FE0000000000000000000400000000         fcb 213,254,0,0,0,0,0,0,0,0,0,4,0,0,0,  0
2F1E  00000002012294A5540000000000012A         fcb 0,0,0,2,1,34,148,165,84,0,0,0,0,0,1,        42
2F2E  AA2B0000000001249248005080000001         fcb 170,43,0,0,0,0,1,36,146,72,0,80,128,0,0,    1
2F3E  0822949090956B5DAA20840100895494         fcb 8,34,148,144,144,149,107,93,170,32,132,1,0,137,84,  148
2F4E  A5DE9249249248000002921412492490         fcb 165,222,146,73,36,146,72,0,0,2,146,20,18,73,36,     144
2F5E  810000088A55556DBD04424824000255         fcb 129,0,0,8,138,85,85,109,189,4,66,72,36,0,2, 85
2F6E  506B0000000000904920004100000000         fcb 80,107,0,0,0,0,0,144,73,32,0,65,0,0,0,      0
2F7E  08228902212AAD56D410000080455156         fcb 8,34,137,2,33,42,173,86,212,16,0,0,128,69,81,       86
2F8E  ABBD0208208100020008882800408208         fcb 171,189,2,8,32,129,0,2,0,8,136,40,0,64,130, 8
2F9E  8010409114AAB5B6D68010200000092A         fcb 128,16,64,145,20,170,181,182,214,128,16,32,0,0,9,   42
2FAE  A8AF2042082048500900021248102080         fcb 168,175,32,66,8,32,72,80,9,0,2,18,72,16,32, 128
2FBE  0A0008004256DEDDBA0904884922A255         fcb 10,0,8,0,66,86,222,221,186,9,4,136,73,34,162,       85
2FCE  4B750000000804124024408802040020         fcb 75,117,0,0,0,8,4,18,64,36,64,136,2,4,0,     32
2FDE  8044849512956B6FAF4080040010912A         fcb 128,68,132,149,18,149,107,111,175,64,128,4,0,16,145,        42
2FEE  A9BF1201090000000480005200002408         fcb 169,191,18,1,9,0,0,0,4,128,0,82,0,0,36,     8
2FFE  0210010049555DBAF5000200400224AD         fcb 2,16,1,0,73,85,93,186,245,0,2,0,64,2,36,    173
300E  56D50090804240A92022240891210004         fcb 86,213,0,144,128,66,64,169,32,34,36,8,145,33,0,     4
301E  10025052492B6EEFB68890842480822A         fcb 16,2,80,82,73,43,110,239,182,136,144,132,36,128,130,        42
302E  A57F000000081202020800A200080240         fcb 165,127,0,0,0,8,18,2,2,8,0,162,0,8,2,       64
303E  8108020092ADBBBADA20000000122156         fcb 129,8,2,0,146,173,187,186,218,32,0,0,0,18,33,       86
304E  ABD52408240000101000881008009000         fcb 171,213,36,8,36,0,0,16,16,0,136,16,8,0,144, 0
305E  00822154492ADDAFEF04842210009456         fcb 0,130,33,84,73,42,221,175,239,4,132,34,16,0,148,    86
306E  AD7F0121010201048288012482400024         fcb 173,127,1,33,1,2,1,4,130,136,1,36,130,64,0, 36
307E  48008002249577FAB50011000492029A         fcb 72,0,128,2,36,149,119,250,181,0,17,0,4,146,2,       154
308E  ABAB0000002090200042201040040900         fcb 171,171,0,0,0,32,144,32,0,66,32,16,64,4,9,  0
309E  00100A512555BEAFDD5000088000904B         fcb 0,16,10,81,37,85,190,175,221,80,0,8,128,0,144,      75
30AE  AAFD4808908001044800848800210004         fcb 170,253,72,8,144,128,1,4,72,0,132,136,0,33,0,       4
30BE  44804084924B6BFAB504812004120536         fcb 68,128,64,132,146,75,107,250,181,4,129,32,4,18,5,   54
30CE  5B6F0080000410400048004A09004020         fcb 91,111,0,128,0,4,16,64,0,72,0,74,9,0,64,    32
30DE  001204249255BEAFDD0008022080A12B         fcb 0,18,4,36,146,85,190,175,221,0,8,2,32,128,161,      43
30EE  AB7B0404082080090900421080101204         fcb 171,123,4,4,8,32,128,9,9,0,66,16,128,16,18, 4
30FE  22002148252B6DFAB244408802080895         fcb 34,0,33,72,37,43,109,250,178,68,64,136,2,8,8,       149
310E  5DDE4040420002004012104410010082         fcb 93,222,64,64,66,0,2,0,64,18,16,68,16,1,0,   130
311E  104200229149EEAFDA0008008001022D         fcb 16,66,0,34,145,73,238,175,218,0,8,0,128,1,2,        45
312E  55770202001048400880011042480800         fcb 85,119,2,2,0,16,72,64,8,128,1,16,66,72,8,   0
313E  021029084A56BBFAB044404210884896         fcb 2,16,41,8,74,86,187,250,176,68,64,66,16,136,72,     150
314E  AFBD2020108200120408884400004090         fcb 175,189,32,32,16,130,0,18,4,8,136,68,0,0,64,        144
315E  810108A51125DEAFDA020220004204AB         fcb 129,1,8,165,17,37,222,175,218,2,2,32,0,66,4,        171
316E  AAEF0001020802004082011010040402         fcb 170,239,0,1,2,8,2,0,64,130,1,16,16,4,4,     2
317E  204802124A9577F55040200110082216         fcb 32,72,2,18,74,149,119,245,80,64,32,1,16,8,34,       22
318E  6DBB0910000020100020404482420000         fcb 109,187,9,16,0,0,32,16,0,32,64,68,130,66,0, 0
319E  040090894855B55DA8100808020102AB         fcb 4,0,144,137,72,85,181,93,168,16,8,8,2,1,2,  171
31AE  56FB2001208202422400111000004250         fcb 86,251,32,1,32,130,2,66,36,0,17,16,0,0,66,  80
31BE  51240442254BFFB6C20482408848201D         fcb 81,36,4,66,37,75,255,182,194,4,130,64,136,72,32,    29
31CE  5BBE0010081020000249084448201002         fcb 91,190,0,16,8,16,32,0,2,73,8,68,72,32,16,   2
31DE  00012228952955BB5040400400051547         fcb 0,1,34,40,149,41,85,187,80,64,64,4,0,5,21,  71
31EE  5AD70900004100220000022002090108         fcb 90,215,9,0,0,65,0,34,0,0,2,32,2,9,1,        8
31FE  1280088522AB7DD6A10408808400012D         fcb 18,128,8,133,34,171,125,214,161,4,8,128,132,0,1,    45
320E  57FD8082440012009224409201001040         fcb 87,253,128,130,68,0,18,0,146,36,64,146,1,0,16,      64
321E  805484512955AD75A820001022490916         fcb 128,84,132,81,41,85,173,117,168,32,0,16,34,73,9,    22
322E  B56F0010001080200081092090010004         fcb 181,111,0,16,0,16,128,32,0,129,9,32,144,1,0,        4
323E  1000010A44AB76AE8202444200004096         fcb 16,0,1,10,68,171,118,174,130,2,68,66,0,0,64,        150
324E  AFFB2400210802048000008800480900         fcb 175,251,36,0,33,8,2,4,128,0,0,136,0,72,9,   0
325E  848248422A55B6F6A0902000010A0496         fcb 132,130,72,66,42,85,182,246,160,144,32,0,1,10,4,    150
326E  AABB0089040040202450885004012044         fcb 170,187,0,137,4,0,64,32,36,80,136,80,4,1,32,        68
327E  10200228852AAB5B0801042248402115         fcb 16,32,2,40,133,42,171,91,8,1,4,34,72,64,33, 21
328E  5BEE4000008422000004420920400800         fcb 91,238,64,0,0,132,34,0,0,4,66,9,32,64,8,    0
329E  02049104514AAAAD4110011000090896         fcb 2,4,145,4,81,74,170,173,65,16,1,16,0,9,8,   150
32AE  AD7F1080400000241200014002108225         fcb 173,127,16,128,64,0,0,36,18,0,1,64,2,16,130,        37
32BE  109000490A2555B6A40080010840020B         fcb 16,144,0,73,10,37,85,182,164,0,128,1,8,64,2,        11
32CE  57EB8412082202008051085400040000         fcb 87,235,132,18,8,34,2,0,128,81,8,84,0,4,0,   0
32DE  88009240A090AADAA04414084204914A         fcb 136,0,146,64,160,144,170,218,160,68,20,8,66,4,145,  74
32EE  B57F4000010048120404420121004220         fcb 181,127,64,0,1,0,72,18,4,4,66,1,33,0,66,    32
32FE  024800120A45256C4400812000400415         fcb 2,72,0,18,10,69,37,108,68,0,129,32,0,64,4,  21
330E  5BF52241201000804100015008221012         fcb 91,245,34,65,32,16,0,128,65,0,1,80,8,34,16, 18
331E  200924812110296F2110000108244286         fcb 32,9,36,129,33,16,41,111,33,16,0,1,8,36,66, 134
332E  ADBFA008040400000042480400000200         fcb 173,191,160,8,4,4,0,0,0,66,72,4,0,0,2,      0
333E  892000284A450AB4C04448104000092A         fcb 137,32,0,40,74,69,10,180,192,68,72,16,64,0,9,       42
334E  AB7B280000809212241002A121224048         fcb 171,123,40,0,0,128,146,18,36,16,2,161,33,34,64,     72
335E  000122020950A55C240004840912410A         fcb 0,1,34,2,9,80,165,92,36,0,4,132,9,18,65,    10
336E  ADDF9244800400400001080808001202         fcb 173,223,146,68,128,4,0,64,0,1,8,8,8,0,18,   2
337E  49280020A40512D50022000040000A4A         fcb 73,40,0,32,164,5,18,213,0,34,0,0,64,0,10,   74
338E  B77B5000244000012288414000110110         fcb 183,123,80,0,36,64,0,1,34,136,65,64,0,17,1, 16
339E  00008914ABD04ABD5100A2220122010A         fcb 0,0,137,20,171,208,74,189,81,0,162,34,1,34,1,       10
33AE  95FF1440000492100020044912442042         fcb 149,255,20,64,0,4,146,16,0,32,4,73,18,68,32,        66
33BE  524820025425116A00100080240094A5         fcb 82,72,32,2,84,37,17,106,0,16,0,128,36,0,148,        165
33CE  6B5B9204824001080802224000010410         fcb 107,91,146,4,130,64,1,8,8,2,34,64,0,1,4,    16
33DE  00020252AB8884BEA882081100080205         fcb 0,2,2,82,171,136,132,190,168,130,8,17,0,8,2,        5
33EE  2DFF2840200200012208009111002005         fcb 45,255,40,64,32,2,0,1,34,8,0,145,17,0,32,   5
33FE  29202089542222B54010800022408955         fcb 41,32,32,137,84,34,34,181,64,16,128,0,34,64,137,    85
340E  B5771608101048400041240800920240         fcb 181,119,22,8,16,16,72,64,0,65,36,8,0,146,2, 64
341E  0009084A571110BB640049240004010A         fcb 0,9,8,74,87,17,16,187,100,0,73,36,0,4,1,    10
342E  ABBB2921020101080900014088009011         fcb 171,187,41,33,2,1,1,8,9,0,1,64,136,0,144,   17
343E  2A4022115884057D8110000111204A45         fcb 42,64,34,17,88,132,5,125,129,16,0,1,17,32,74,       69
344E  56FF0500004000024024242400480909         fcb 86,255,5,0,0,64,0,2,64,36,36,36,0,72,9,     9
345E  0009008A54A0A05ED009091080000122         fcb 0,9,0,138,84,160,160,94,208,9,9,16,128,0,1, 34
346E  AB7F2A44421090800001010044024000         fcb 171,127,42,68,66,16,144,128,0,1,1,0,68,2,64,        0
347E  4540522110080ABB4100400010244A15         fcb 69,64,82,33,16,8,10,187,65,0,64,0,16,36,74, 21
348E  56EF030010080811091024A801200924         fcb 86,239,3,0,16,8,8,17,9,16,36,168,1,32,9,    36
349E  202A01148144805EA844044409020282         fcb 32,42,1,20,129,68,128,94,168,68,4,68,9,2,2, 130
34AE  AB772AA0010000804040810224444001         fcb 171,119,42,160,1,0,0,128,64,64,129,2,36,68,64,      1
34BE  080048422C10257D400041110000092A         fcb 8,0,72,66,44,16,37,125,64,0,65,17,0,0,9,    42
34CE  AFFF0144800244080404084000020248         fcb 175,255,1,68,128,2,68,8,4,4,8,64,0,2,2,     72
34DE  829202108E84001E9222200044484481         fcb 130,146,2,16,142,132,0,30,146,34,32,0,68,72,68,     129
34EE  557F1540209000404020421112A05000         fcb 85,127,21,64,32,144,0,64,64,32,66,17,18,160,80,     0
34FE  2000A4850841257D800808840102022A         fcb 32,0,164,133,8,65,37,125,128,8,8,132,1,2,2, 42
350E  57FF0154040022021104128000020249         fcb 87,255,1,84,4,0,34,2,17,4,18,128,0,2,2,     73
351E  095420214620001E9101002110001289         fcb 9,84,32,33,70,32,0,30,145,1,0,33,16,0,18,   137
352E  2B770AA0200900200420802489201000         fcb 43,119,10,160,32,9,0,32,4,32,128,36,137,32,16,      0
353E  42000A048C8892AF8000440040A24505         fcb 66,0,10,4,140,136,146,175,128,0,68,0,64,162,69,     5
354E  2DFF80A902401010800025000024824A         fcb 45,255,128,169,2,64,16,16,128,0,37,0,0,36,130,      74
355E  104541224480001FC8482088040004A1         fcb 16,69,65,34,68,128,0,31,200,72,32,136,4,0,4,        161
356E  26FF02A010008482111408A049001000         fcb 38,255,2,160,16,0,132,130,17,20,8,160,73,0,16,      0
357E  8410100122249156C10204022022220A         fcb 132,16,16,1,34,36,145,86,193,2,4,2,32,34,34,        10
358E  5BFF205A002400000080840200248248         fcb 91,255,32,90,0,36,0,0,0,128,132,2,0,36,130, 72
359E  428882948940082FC0000020010105A1         fcb 66,136,130,148,137,64,8,47,192,0,0,32,1,1,5,        161
35AE  177F0150890020411004212009001002         fcb 23,127,1,80,137,0,32,65,16,4,33,32,9,0,16,  2
35BE  1002240152910257609125022420220A         fcb 16,2,36,1,82,145,2,87,96,145,37,2,36,32,34, 10
35CE  4BFF082C000102080420090840490890         fcb 75,255,8,44,0,1,2,8,4,32,9,8,64,73,8,       144
35DE  089100A445C8200B6800001100081542         fcb 8,145,0,164,69,200,32,11,104,0,0,17,0,8,21, 66
35EE  15FF2092409010208104844102004205         fcb 21,255,32,146,64,144,16,32,129,4,132,65,2,0,66,     5
35FE  020454095681092FC049110011020211         fcb 2,4,84,9,86,129,9,47,192,73,17,0,17,2,2,    17
360E  4FEF000A240800001040222010240040         fcb 79,239,0,10,36,8,0,0,16,64,34,32,16,36,0,   64
361E  A1220244ABE08003E200808880408988         fcb 161,34,2,68,171,224,128,3,226,0,128,136,128,64,137, 136
362E  0AFF08AA000112120012088001009210         fcb 10,255,8,170,0,1,18,18,0,18,8,128,1,0,146,  16
363E  08008892BD482495D000082008002422         fcb 8,0,136,146,189,72,36,149,208,0,8,32,8,0,36,        34
364E  AFFF000A824000808900442488240109         fcb 175,255,0,10,130,64,0,128,137,0,68,36,136,36,1,     9
365E  009402497F440005E024440482120311         fcb 0,148,2,73,127,68,0,5,224,36,68,4,130,18,3, 17
366E  03FF4425200880000022120001088840         fcb 3,255,68,37,32,8,128,0,0,34,18,0,1,8,136,   64
367E  4A0088AAAAC124A3E480000000802444         fcb 74,0,136,170,170,193,36,163,228,128,0,0,0,128,36,   68
368E  5EFF0202880024122410829040004012         fcb 94,255,2,2,136,0,36,18,36,16,130,144,64,0,64,       18
369E  0124400AFAE80008F002429090110502         fcb 1,36,64,10,250,232,0,8,240,2,66,144,144,17,5,       2
36AE  47FF002AA12401008102280408940900         fcb 71,255,0,42,161,36,1,0,129,2,40,4,8,148,9,  0
36BE  80000A5297A12483E048100404042240         fcb 128,0,10,82,151,161,36,131,224,72,16,4,4,4,34,      64
36CE  9BFF9002800080900010054200008094         fcb 155,255,144,2,128,0,128,144,0,16,5,66,0,0,128,      148
36DE  2952420955A80050F400004040800914         fcb 41,82,66,9,85,168,0,80,244,0,0,64,64,128,9, 20
36EE  4DFF0209680220004902500044042401         fcb 77,255,2,9,104,2,32,0,73,2,80,0,68,4,36,    1
36FE  00000082AFC248057004890404020541         fcb 0,0,0,130,175,194,72,5,112,4,137,4,4,2,5,   65
370E  2BFF0082A120080200900AA000420090         fcb 43,255,0,130,161,32,8,2,0,144,10,160,0,66,0,        144
371E  2495282855E802417A4040222090A408         fcb 36,149,40,40,85,232,2,65,122,64,64,34,32,144,164,   8
372E  2DFF2001500002482004900842009204         fcb 45,255,32,1,80,0,2,72,32,4,144,8,66,0,146,  4
373E  82000245BFA52010B8000800000002A2         fcb 130,0,2,69,191,165,32,16,184,0,8,0,0,0,2,   162
374E  97FF0448A912400004408A8420480120         fcb 151,255,4,72,169,18,64,0,4,64,138,132,32,72,1,      32
375E  11249024AFD00904BC12011092124A10         fcb 17,36,144,36,175,208,9,4,188,18,1,16,146,18,74,     16
376E  56FF1002A80000449012200000008809         fcb 86,255,16,2,168,0,0,68,144,18,32,0,0,0,136, 9
377E  0441050ABEAA40405C80904400801105         fcb 4,65,5,10,190,170,64,64,92,128,144,68,0,128,17,     5
378E  2DFF0200A44012000100152212084040         fcb 45,255,2,0,164,64,18,0,1,0,21,34,18,8,64,   64
379E  A028A0A2BFD204121C10040010020540         fcb 160,40,160,162,191,210,4,18,28,16,4,0,16,2,5,       64
37AE  97FF0090681240200824A00000800A14         fcb 151,255,0,144,104,18,64,32,8,36,160,0,0,128,10,     20
37BE  0A02141AFF244100AE02102240909012         fcb 10,2,20,26,255,36,65,0,174,2,16,34,64,144,144,      18
37CE  6DFF20023500100940002A8890420082         fcb 109,255,32,2,53,0,16,9,64,0,42,136,144,66,0,        130
37DE  0151454ABFD210942E80811004001680         fcb 1,81,69,74,191,210,16,148,46,128,129,16,4,0,22,     128
37EE  57FF0400941004800A4A102000109220         fcb 87,255,4,0,148,16,4,128,10,74,16,32,0,16,146,       32
37FE  900A22ABFEA88001171008022048812A         fcb 144,10,34,171,254,168,128,1,23,16,8,2,32,72,129,    42
380E  BBFF0090550900080000950204000104         fcb 187,255,0,144,85,9,0,8,0,0,149,2,4,0,1,     4
381E  0AA2B49577A424908B84408000042900         fcb 10,162,180,149,119,164,36,144,139,132,64,128,0,4,41,        0
382E  2DFF2000280040424124400890889051         fcb 45,255,32,0,40,0,64,66,65,36,64,8,144,136,144,      81
383E  20148AAAFEA880042B00082224000A25         fcb 32,20,138,170,254,168,128,4,43,0,8,34,36,0,10,      37
384E  BBFF04120F4012000802548000040A08         fcb 187,255,4,18,15,64,18,0,8,2,84,128,0,4,10,  8
385E  09456AAB7FA411220BC1041101224284         fcb 9,69,106,171,127,164,17,34,11,193,4,17,1,34,66,     132
386E  5FFF0100501200210090100084400082         fcb 95,255,1,0,80,18,0,33,0,144,16,0,132,64,0,  130
387E  8012955BF55104008590200020001422         fcb 128,18,149,91,245,81,4,0,133,144,32,0,32,0,20,      34
388E  ABFF20800E8082084402952442015450         fcb 171,255,32,128,14,128,130,8,68,2,149,36,66,1,84,    80
389E  4A94AB6D7DA8409423C8028008888512         fcb 74,148,171,109,125,168,64,148,35,200,2,128,8,136,133,       18
38AE  BFFF0012120020000090400000480804         fcb 191,255,0,18,18,0,32,0,0,144,64,0,0,72,8,   4
38BE  0002AAABFED208010AE1082900221104         fcb 0,2,170,171,254,210,8,1,10,225,8,41,0,34,17,        4
38CE  ABFF08010BA402411012548048000922         fcb 171,255,8,1,11,164,2,65,16,18,84,128,72,0,9,        34
38DE  A4AAAADDBF52424841E04000440004A4         fcb 164,170,170,221,191,82,66,72,65,224,64,0,68,0,4,    164
38EE  BFFF2100044020104480802502224048         fcb 191,255,33,0,4,64,32,16,68,128,128,37,2,34,64,      72
38FE  000556ABEAD0000215F0040800112902         fcb 0,5,86,171,234,208,0,2,21,240,4,8,0,17,41,  2
390E  5BFF00484351110400142A0000100A02         fcb 91,255,0,72,67,81,17,4,0,20,42,0,0,16,10,   2
391E  52A0AB5DFF55249100F2024224800811         fcb 82,160,171,93,255,85,36,145,0,242,2,66,36,128,8,    17
392E  5FFF08010904000002414022488040A0         fcb 95,255,8,1,9,4,0,0,2,65,64,34,72,128,64,    160
393E  8015556FB5A000004AF0900000090504         fcb 128,21,85,111,181,160,0,0,74,240,144,0,0,9,5,       4
394E  B7FF820002D004509004290008121014         fcb 183,255,130,0,2,208,4,80,144,4,41,0,8,18,16,        20
395E  2904556BFEAA489200F80108908020A2         fcb 41,4,85,107,254,170,72,146,0,248,1,8,144,128,32,    162
396E  5FFF0090414490040251401000000441         fcb 95,255,0,144,65,68,144,4,2,81,64,16,0,0,4,  65
397E  0042955FD5A00200A578084204110A09         fcb 0,66,149,95,213,160,2,0,165,120,8,66,4,17,10,       9
398E  37FF200209500100420414024A894214         fcb 55,255,32,2,9,80,1,0,66,4,20,2,74,137,66,   20
399E  4A105576FEAA2088017A400000000009         fcb 74,16,85,118,254,170,32,136,1,122,64,0,0,0,0,       9
39AE  5BFF040820A4082400A2810800200041         fcb 91,255,4,8,32,164,8,36,0,162,129,8,0,32,0,  65
39BE  108A955FB5D0002252F0044122492522         fcb 16,138,149,95,181,208,0,34,82,240,4,65,34,73,37,    34
39CE  5FFF008000B240022410504001044A08         fcb 95,255,0,128,0,178,64,2,36,16,80,64,1,4,74, 8
39DE  84404555DD524A000038020800000002         fcb 132,64,69,85,221,82,74,0,0,56,2,8,0,0,0,    2
39EE  57FF20020848048001050404A0400092         fcb 87,255,32,2,8,72,4,128,1,5,4,4,160,64,0,    146
39FE  20152ABF77A0009252E2404121089111         fcb 32,21,42,191,119,160,0,146,82,226,64,65,33,8,145,   17
3A0E  5FFF0220422A20111050A00012124481         fcb 95,255,2,32,66,42,32,17,16,80,160,0,18,18,68,       129
3A1E  1280954BB5B44802103010200840008A         fcb 18,128,149,75,181,180,72,2,16,48,16,32,8,64,0,      138
3A2E  ABFF100100A082004505049000801028         fcb 171,255,16,1,0,160,130,0,69,5,4,144,0,128,16,       40
3A3E  842A2575DDC002A08541040800089002         fcb 132,42,37,117,221,192,2,160,133,65,4,8,0,8,144,     2
3A4E  BFFF0110101C00440090A0010011090A         fcb 191,255,1,16,16,28,0,68,0,144,160,1,0,17,9, 10
3A5E  21009296ED72500850500104A2040892         fcb 33,0,146,150,237,114,80,8,80,80,1,4,162,4,8,        146
3A6E  8BFF0800025122000004020849040240         fcb 139,255,8,0,2,81,34,0,0,4,2,8,73,4,2,       64
3A7E  884A2AB5578005420500800000800005         fcb 136,74,42,181,87,128,5,66,5,0,128,0,0,128,0,        5
3A8E  77FF80848014002494A550400020900A         fcb 119,255,128,132,128,20,0,36,148,165,80,64,0,32,144, 10
3A9E  420084AB7AE89020528848A210212222         fcb 66,0,132,171,122,232,144,32,82,136,72,162,16,33,34, 34
3AAE  9FFF0010202A91000000010444800540         fcb 159,255,0,16,32,42,145,0,0,0,1,4,68,128,5,  64
3ABE  90AA2AAD97422509080002004008080B         fcb 144,170,42,173,151,66,37,9,8,0,2,0,64,8,8,  11
3ACE  57FF240009040000449520000009202A         fcb 87,255,36,0,9,4,0,0,68,149,32,0,0,9,32,     42
3ADE  0401412AB5D00000A444000809010242         fcb 4,1,65,42,181,208,0,0,164,68,0,8,9,1,2,     66
3AEE  ABFF0104002A88A40020084220401501         fcb 171,255,1,4,0,42,136,164,0,32,8,66,32,64,21,        1
3AFE  51242AAADF612A95400120820040400A         fcb 81,36,42,170,223,97,42,149,64,1,32,130,0,64,64,     10
3B0E  AFFF004120044002250A801002048054         fcb 175,255,0,65,32,4,64,2,37,10,128,16,2,4,128,        84
3B1E  082108AAA5A80201C220042048081042         fcb 8,33,8,170,165,168,2,1,194,32,4,32,72,8,16, 66
3B2E  ABFF4800091208100040240110202A82         fcb 171,255,72,0,9,18,8,16,0,64,36,1,16,32,42,  130
3B3E  A288A52AB76AA9579000200201020415         fcb 162,136,165,42,183,106,169,87,144,0,32,2,1,2,4,     21
3B4E  5FFF0008000A84811215008000010028         fcb 95,255,0,8,0,10,132,129,18,21,0,128,0,1,0,  40
3B5E  1004214A95A80405C109011000208101         fcb 16,4,33,74,149,168,4,5,193,9,1,16,0,32,129, 1
3B6E  4BFF04820085000004A0042492104A85         fcb 75,255,4,130,0,133,0,0,4,160,4,36,146,16,74,        133
3B7E  04A28A296BDA525F8820100250802016         fcb 4,162,138,41,107,218,82,95,136,32,16,2,80,128,32,   22
3B8E  AFFF20412404A024400AA000010A2020         fcb 175,255,32,65,36,4,160,36,64,10,160,0,1,10,32,      32
3B9E  A4105155555A0905C000044008240882         fcb 164,16,81,85,85,90,9,5,192,0,4,64,8,36,8,   130
3BAE  ABFF00000042090115500204A0008A94         fcb 171,255,0,0,0,66,9,1,21,80,2,4,160,0,138,   148
3BBE  0104852555F4825FC20900110001000A         fcb 1,4,133,37,85,244,130,95,194,9,0,17,0,1,0,  10
3BCE  D7FF1210201340200002012008442042         fcb 215,255,18,16,32,19,64,32,0,2,1,32,8,68,32, 66
3BDE  A8A424AA5AB452AEE080210001102241         fcb 168,164,36,170,90,180,82,174,224,128,33,0,1,16,34,  65
3BEE  5BFF0042090088041554900221010A94         fcb 91,255,0,66,9,0,136,4,21,84,144,2,33,1,10,  148
3BFE  04029252AAF5092F880884114801080A         fcb 4,2,146,82,170,245,9,47,136,8,132,17,72,1,8,        10
3C0E  CFFF880000054480812000200008A042         fcb 207,255,136,0,0,5,68,128,129,32,0,32,0,8,160,       66
3C1E  A150910AAAB4A55FE040008800880041         fcb 161,80,145,10,170,180,165,95,224,64,0,136,0,136,0,  65
3C2E  65FF021104912022084A890210820A28         fcb 101,255,2,17,4,145,32,34,8,74,137,2,16,130,10,      40
3C3E  14080AA92BEA92AFD204200048212415         fcb 20,8,10,169,43,234,146,175,210,4,32,0,72,33,36,     21
3C4E  57FF408020012200422040208450A285         fcb 87,255,64,128,32,1,34,0,66,32,64,32,132,80,162,     133
3C5E  414AA0A4A8BAAAAFE002044202000101         fcb 65,74,160,164,168,186,170,175,224,2,4,66,2,0,1,     1
3C6E  55FF0008808888200914000000040850         fcb 85,255,0,8,128,136,136,32,9,20,0,0,0,4,8,   80
3C7E  280015152BE5697EE12020102011104A         fcb 40,0,21,21,43,229,105,126,225,32,32,16,32,17,16,    74
3C8E  D5FF244004014212414209042202A205         fcb 213,255,36,64,4,1,66,18,65,66,9,4,34,2,162, 5
3C9E  02AA905294BB554FF802020208880402         fcb 2,170,144,82,148,187,85,79,248,2,2,2,8,136,4,       2
3CAE  4AFF0008409250001020804100A00950         fcb 74,255,0,8,64,146,80,0,16,32,128,65,0,160,9,        80
3CBE  A800250955EDDABFE010104002010092         fcb 168,0,37,9,85,237,218,191,224,16,16,64,2,1,0,       146
3CCE  A7FF220410004242052848101009490A         fcb 167,255,34,4,16,0,66,66,5,40,72,16,16,9,73, 10
3CDE  095524AA5556D5AEF480802240402402         fcb 9,85,36,170,85,86,213,174,244,128,128,34,64,64,36,  2
3CEE  D0FF00800209281091020201044410A1         fcb 208,255,0,128,2,9,40,16,145,2,2,1,4,68,16,  161
3CFE  420089052AEAAAF7E004080010110095         fcb 66,0,137,5,42,234,170,247,224,4,8,0,16,17,0,        149
3D0E  57FF0802404140000950404842208A14         fcb 87,255,8,2,64,65,64,0,9,80,64,72,66,32,138, 20
3D1E  1054415096B5B55FF020011102084401         fcb 16,84,65,80,150,181,181,95,240,32,1,17,2,8,68,      1
3D2E  517F409011002A4882440800000A20A1         fcb 81,127,64,144,17,0,42,72,130,68,8,0,0,10,32,        161
3D3E  45022A4AAB56AAB7D202440000001095         fcb 69,2,42,74,171,86,170,183,210,2,68,0,0,0,16,        149
3D4E  56FF0000000920001120024249410A14         fcb 86,255,0,0,0,9,32,0,17,32,2,66,73,65,10,    20
3D5E  105102252AD5ADB5E110004448890081         fcb 16,81,2,37,42,213,173,181,225,16,0,68,72,137,0,     129
3D6E  52BF2409084088248889000800124141         fcb 82,191,36,9,8,64,136,36,136,137,0,8,0,18,65,        65
3D7E  4508A891555552DD4001210002004A2A         fcb 69,8,168,145,85,85,82,221,64,1,33,0,2,0,74, 42
3D8E  ADFF02408200A5000A40480024905414         fcb 173,255,2,64,130,0,165,0,10,64,72,0,36,144,84,      20
3D9E  204404891555556D5080102240440082         fcb 32,68,4,137,21,85,85,109,80,128,16,34,64,68,0,      130
3DAE  A6BF0000004810124110024480040141         fcb 166,191,0,0,0,72,16,18,65,16,2,68,128,4,1,  65
3DBE  1512A124AAAAAAB50024000000015455         fcb 21,18,161,36,170,170,170,181,0,36,0,0,0,1,84,       85
3DCE  5BFF9008900491002942400009215428         fcb 91,255,144,8,144,4,145,0,41,66,64,0,9,33,84,        40
3DDE  809028924AAAAAD50400090849100511         fcb 128,144,40,146,74,170,170,213,4,0,9,8,73,16,5,      17
3DEE  4AAB04800400440884100842400A0282         fcb 74,171,4,128,4,0,68,8,132,16,8,66,64,10,2,  130
3DFE  28050425294AAAAA40224041000040A4         fcb 40,5,4,37,41,74,170,170,64,34,64,65,0,0,64, 164
3E0E  AAFE0044024420401280042009405051         fcb 170,254,0,68,2,68,32,64,18,128,4,32,9,64,80,        81
3E1E  0550A510A529554B1100000020922425         fcb 5,80,165,16,165,41,85,75,17,0,0,0,32,146,36,        37
3E2E  2ABF2001200094094924800040120A08         fcb 42,191,32,1,32,0,148,9,73,36,128,0,64,18,10,        8
3E3E  A004008A94A6A4AB8010242408000910         fcb 160,4,0,138,148,166,164,171,128,16,36,36,8,0,9,     16
3E4E  ABFB0210002001000900411204814144         fcb 171,251,2,16,0,32,1,0,9,0,65,18,4,129,65,   68
3E5E  155154A4A528AA558409010002094095         fcb 21,81,84,164,165,40,170,85,132,9,1,0,2,9,64,        149
3E6E  2AFF108089095044A4A0100040282821         fcb 42,255,16,128,137,9,80,68,164,160,16,0,64,40,40,    33
3E7E  20040209129652AE9080000480801524         fcb 32,4,2,9,18,150,82,174,144,128,0,4,128,128,21,      36
3E8E  ABFF0004000014201212088812050529         fcb 171,255,0,4,0,0,20,32,18,18,8,136,18,5,5,   41
3E9E  055151494892AAB78000242010449095         fcb 5,81,81,73,72,146,170,183,128,0,36,32,16,68,144,    149
3EAE  5AFF104044408104A900000200805002         fcb 90,255,16,64,68,64,129,4,169,0,0,2,0,128,80,        2
3EBE  50040822252A92AF8849010200100522         fcb 80,4,8,34,37,42,146,175,136,73,1,2,0,16,5,  34
3ECE  ADFD8210000428000488444048520550         fcb 173,253,130,16,0,4,40,0,4,136,68,64,72,82,5,        80
3EDE  0952A289294A50BBC200200092025129         fcb 9,82,162,137,41,74,80,187,194,0,32,0,146,2,81,      41
3EEE  256F080442208125590200110204A00A         fcb 37,111,8,4,66,32,129,37,89,2,0,17,2,4,160,  10
3EFE  82000852442A8ADE8008012000888495         fcb 130,0,8,82,68,42,138,222,128,8,1,32,0,136,132,      149
3F0E  5DBB0080100048004440220820201540         fcb 93,187,0,128,16,0,72,0,68,64,34,8,32,32,21, 64
3F1E  50554A0112AA4A5FD04108121004524A         fcb 80,85,74,1,18,170,74,95,208,65,8,18,16,4,82,        74
3F2E  ADFF401202241124AA820080020A402A         fcb 173,255,64,18,2,36,17,36,170,130,0,128,2,10,64,     42
3F3E  0A001154445155F76404400082412955         fcb 10,0,17,84,68,81,85,247,100,4,64,0,130,65,41,       85
3F4E  DFBF1200810008042811080110821501         fcb 223,191,18,0,129,0,8,4,40,17,8,1,16,130,21, 1
3F5E  42AA8811251A925B7100048000088555         fcb 66,170,136,17,37,26,146,91,113,0,4,128,0,8,133,     85
3F6E  55FB00402012811145004090422080A4         fcb 85,251,0,64,32,18,129,17,69,0,64,144,66,32,128,     164
3F7E  1000428A48E94ABFDC402024484254AA         fcb 16,0,66,138,72,233,74,191,220,64,32,36,72,66,84,    170
3F8E  FFEF0004100028805440080400045420         fcb 255,239,0,4,16,0,40,128,84,64,8,4,0,4,84,   32
3F9E  8AAA2842222AA2A57609000002100495         fcb 138,170,40,66,34,42,162,165,118,9,0,0,2,16,4,       149
3FAE  257B4920048080152110008022490215         fcb 37,123,73,32,4,128,128,21,33,16,0,128,34,73,2,      21
3FBE  200105288AD554ADDD40121100055125         fcb 32,1,5,40,138,213,84,173,221,64,18,17,0,5,81,       37
3FCE  5BFD0001002412009402482110005280         fcb 91,253,0,1,0,36,18,0,148,2,72,33,16,0,82,   128
3FDE  12A8A104A2AA52AA6F48008048A01494         fcb 18,168,161,4,162,170,82,170,111,72,0,128,72,160,20, 148
3FEE  AAAF0810200084954810000802490055         fcb 170,175,8,16,32,0,132,149,72,16,0,8,2,73,0, 85
3FFE  0402085014A114ADBBA24008020A894B         fcb 4,2,8,80,20,161,20,173,187,162,64,8,2,10,137,       75
400E  5FFB408402202000A281010080002A00         fcb 95,251,64,132,2,32,32,0,162,129,1,0,128,0,42,       0
401E  A0A8A50A9294922AADD012010040A4AA         fcb 160,168,165,10,146,148,146,42,173,208,18,1,0,64,164,        170
402E  AADF04011009092A4808480424950152         fcb 170,223,4,1,16,9,9,42,72,8,72,4,36,149,1,   82
403E  140200408925255D57E0008840142A52         fcb 20,2,0,64,137,37,37,93,87,224,0,136,64,20,42,       82
404E  DFF7002001004001200001200000A810         fcb 223,247,0,32,1,0,64,1,32,0,1,32,0,0,168,    16
405E  82A8AA54A490896AAAFA40000901012A         fcb 130,168,170,84,164,144,137,106,170,250,64,0,9,1,1,  42
406E  A57B2201100414949488200222400504         fcb 165,123,34,1,16,4,20,148,148,136,32,2,34,64,5,      4
407E  50020082124A555957B010888048AA95         fcb 80,2,0,130,18,74,85,89,87,176,16,136,128,72,170,    149
408E  7BDF0088012080054041091010152052         fcb 123,223,0,136,1,32,128,5,64,65,9,16,16,21,32,       82
409E  055154509221456D55FA040024021255         fcb 5,81,84,80,146,33,69,109,85,250,4,0,36,2,18,        85
40AE  4EFB2001100225509008004402004A84         fcb 78,251,32,1,16,2,37,80,144,8,0,68,2,0,74,   132
40BE  A808020A4914AAD8AB5880880129494A         fcb 168,8,2,10,73,20,170,216,171,88,128,136,1,41,73,    74
40CE  BBDF12200820000A4200401081220020         fcb 187,223,18,32,8,32,0,10,66,0,64,16,129,34,0,        32
40DE  0142A8A248922B6CA9FE100120045556         fcb 1,66,168,162,72,146,43,108,169,254,16,1,32,4,85,    86
40EE  DFFF000882025249108912242008AA8A         fcb 223,255,0,8,130,2,82,73,16,137,18,36,32,8,170,      138
40FE  A828020892494AD92B5942480952AAAB         fcb 168,40,2,8,146,73,74,217,43,89,66,72,9,82,170,      171
410E  77EF0080001000448000000208800020         fcb 119,239,0,128,0,16,0,68,128,0,0,2,8,128,0,  32
411E  050552A4824A56EC557D2000000212A9         fcb 5,5,82,164,130,74,86,236,85,125,32,0,0,2,18,        169
412E  5B7B240442412912488809000224AA8A         fcb 91,123,36,4,66,65,41,18,72,136,9,0,2,36,170,        138
413E  90A00808281155B22ADA480A40208895         fcb 144,160,8,8,40,17,85,178,42,218,72,10,64,32,136,    149
414E  5FEF00202000004900424010A0000020         fcb 95,239,0,32,32,0,0,73,0,66,64,16,160,0,0,   32
415E  841542A542892DBA957B224009144492         fcb 132,21,66,165,66,137,45,186,149,123,34,64,9,20,68,  146
416E  A57F1202002449144800010404925548         fcb 165,127,18,2,0,36,73,20,72,0,1,4,4,146,85,  72
417E  512028081444ABD456DC900220012925         fcb 81,32,40,8,20,68,171,212,86,220,144,2,32,1,41,      37
418E  5FED008009020845042208402000000A         fcb 95,237,0,128,9,2,8,69,4,34,8,64,32,0,0,     10
419E  090A85454252AAFB1557552004488494         fcb 9,10,133,69,66,82,170,251,21,87,85,32,4,72,132,     148
41AE  ABFF0021200042284000800404952AA1         fcb 171,255,0,33,32,0,66,40,64,0,128,4,4,149,42,        161
41BE  40A0209010892DAA4ADA90048004524A         fcb 64,160,32,144,16,137,45,170,74,218,144,4,128,4,82,  74
41CE  AF772408009010820110422120010014         fcb 175,119,36,8,0,144,16,130,1,16,66,33,32,1,0,        20
41DE  140A948A9449557D0AAAAAA011211252         fcb 20,10,148,138,148,73,85,125,10,170,170,160,17,33,18,        82
41EE  ABBF0000120444544800080004805541         fcb 171,191,0,0,18,4,68,84,72,0,8,0,4,128,85,   65
41FE  42A021204224AECAA557540204084915         fcb 66,160,33,32,66,36,174,202,165,87,84,2,4,8,73,      21
420E  5FEB82448002012200920024202A0014         fcb 95,235,130,68,128,2,1,34,0,146,0,36,32,42,0,        20
421E  1015090A1112537E8AABA55080850944         fcb 16,21,9,10,17,18,83,126,138,171,165,80,128,133,9,   68
422E  A57B100001205448440084810900AAA2         fcb 165,123,16,0,1,32,84,72,68,0,132,129,9,0,170,       162
423E  A500A0A14A495DAEA556D5002020A4AB         fcb 165,0,160,161,74,73,93,174,165,86,213,0,32,32,164,  171
424E  5FDF0110480002520010201000440208         fcb 95,223,1,16,72,0,2,82,0,16,32,16,0,68,2,    8
425E  01541428404AA56FA2ABEAAA020A1229         fcb 1,84,20,40,64,74,165,111,162,171,234,170,2,10,18,   41
426E  6AFB10040092108822020201281128A5         fcb 106,251,16,4,0,146,16,136,34,2,2,1,40,17,40,        165
427E  5402820515115BBF4956AA902091494A         fcb 84,2,130,5,21,17,91,191,73,86,170,144,32,145,73,    74
428E  B7BF0082080082290081008802800221         fcb 183,191,0,130,8,0,130,41,0,129,0,136,2,128,2,       33
429E  00A8515040852AAFE56BEA4908082525         fcb 0,168,81,80,64,133,42,175,229,107,234,73,8,8,37,    37
42AE  5DEB1200804828A02020402080154894         fcb 93,235,18,0,128,72,40,160,32,32,64,32,128,21,72,    148
42BE  550208051452ADBFA8AFF59001029095         fcb 85,2,8,5,20,82,173,191,168,175,245,144,1,2,144,     149
42CE  57BE80104202051A0410240408800482         fcb 87,190,128,16,66,2,5,26,4,16,36,4,8,128,4,  130
42DE  40514550450955AFD255BD4A48200A52         fcb 64,81,69,80,69,9,85,175,210,85,189,74,72,32,10,     82
42EE  DFD70100080080A02002009120089029         fcb 223,215,1,0,8,0,128,160,32,2,0,145,32,8,144,        41
42FE  2A08200510A4AAFFEAABEAA901094295         fcb 42,8,32,5,16,164,170,255,234,171,234,169,1,9,66,    149
430E  6BFD109200482A550480100402440289         fcb 107,253,16,146,0,72,42,85,4,128,16,4,2,68,2,        137
431E  2145155044255B2FF52DFED42008284A         fcb 33,69,21,80,68,37,91,47,245,45,254,212,32,8,40,     74
432E  BFEF0000420101280022042110014820         fcb 191,239,0,0,66,1,1,40,0,34,4,33,16,1,72,    32
433E  4A20800A911255FFEAABB55509229555         fcb 74,32,128,10,145,18,85,255,234,171,181,85,9,34,149, 85
434E  6F7D4400101054A9241041008090010A         fcb 111,125,68,0,16,16,84,169,36,16,65,0,128,144,1,     10
435E  211455400492AA57FE9BFFD5400042AA         fcb 33,20,85,64,4,146,170,87,254,155,255,213,64,0,66,   170
436E  B7EF009202420248000200241204A441         fcb 183,239,0,146,2,66,2,72,0,2,0,36,18,4,164,  65
437E  14A2002AA10956FFEAADD5549114944A         fcb 20,162,0,42,161,9,86,255,234,173,213,84,145,20,148, 74
438E  AFBB1000800052550481140000200028         fcb 175,187,16,0,128,0,82,85,4,129,20,0,0,32,0, 40
439E  4412AA801444AAFBFE86FED64880052A         fcb 68,18,170,128,20,68,170,251,254,134,254,214,72,128,5,       42
43AE  B5DD0440211209284020411291092482         fcb 181,221,4,64,33,18,9,40,64,32,65,18,145,9,36,       130
43BE  9280002A812AADDFF75BFBA92012A245         fcb 146,128,0,42,129,42,173,223,247,91,251,169,32,18,162,       69
43CE  5FF78024080248A42208008108400410         fcb 95,247,128,36,8,2,72,164,34,8,0,129,8,64,4, 16
43DE  00AAAA80288155EDFBC55EED2A002955         fcb 0,170,170,128,40,129,85,237,251,197,94,237,42,0,41, 85
43EE  55BF0400008085280000201402129085         fcb 85,191,4,0,0,128,133,40,0,0,32,20,2,18,144, 133
43FE  541000554454AFFFFEADFBB5409484AA         fcb 84,16,0,85,68,84,175,255,254,173,251,181,64,148,132,        170
440E  AFEB4202442850A51245088241000420         fcb 175,235,66,2,68,40,80,165,18,69,8,130,65,0,4,       32
441E  014AAA00210AABFBFFE55ED55A005225         fcb 1,74,170,0,33,10,171,251,255,229,94,213,90,0,82,    37
442E  6AFB004800020A50001000101052910A         fcb 106,251,0,72,0,2,10,80,0,16,0,16,16,82,145, 10
443E  AA5104AA0A525FEFF6B6FDB4A14A0955         fcb 170,81,4,170,10,82,95,239,246,182,253,180,161,74,9, 85
444E  5FBE10002481495A4100A48904000840         fcb 95,190,16,0,36,129,73,90,65,0,164,137,4,0,8,        64
445E  02B4A200A00956FAFFD55EF554004912         fcb 2,180,162,0,160,9,86,250,255,213,94,245,84,0,73,    18
446E  A5D70444802422441048080001128295         fcb 165,215,4,68,128,36,34,68,16,72,8,0,1,18,130,       149
447E  555748AA0AA57FFFFB6ABF5AA94504A5         fcb 85,87,72,170,10,165,127,255,251,106,191,90,169,69,4,        165
448E  5FFB8000020112B2820542A490909000         fcb 95,251,128,0,2,1,18,178,130,5,66,164,144,144,144,   0
449E  02E3E500A02497F7FFEAD7DAA420A229         fcb 2,227,229,0,160,36,151,247,255,234,215,218,164,32,162,      41
44AE  555D0420484888A810402800000424A5         fcb 85,93,4,32,72,72,136,168,16,64,40,0,0,4,36, 165
44BE  5D4DF0AA0A937DFDFB597D7555081495         fcb 93,77,240,170,10,147,125,253,251,89,125,117,85,8,20,        149
44CE  5FF72102000442248212824912410410         fcb 95,247,33,2,0,4,66,36,130,18,130,73,18,65,4,        16
44DE  4B45BD42A08BCF7FBFDA2FDAA542854A         fcb 75,69,189,66,160,139,207,127,191,218,47,218,165,66,133,     74
44EE  D7FF0010092295522480288040104145         fcb 215,255,0,16,9,34,149,82,36,128,40,128,64,16,65,    69
44FE  2A837AB014775DFBFAF55EB529105155         fcb 42,131,122,176,20,119,93,251,250,245,94,181,41,16,81,       85
450E  5FDB0800401080A920090424048A2824         fcb 95,219,8,0,64,16,128,169,32,9,4,36,4,138,40,        36
451E  ABD7FEBFD7BFEFFDFFBD57FDA5920412         fcb 171,215,254,191,215,191,239,253,255,189,87,253,165,146,4,   18
452E  AADD224909042AA80A80510110208209         fcb 170,221,34,73,9,4,42,168,10,128,81,1,16,32,130,     9
453E  5D0BAB6FFFFF5B7F7AEABEAA5544A949         fcb 93,11,171,111,255,255,91,127,122,234,190,170,85,68,169,     73
454E  57EF0000002100AAA05208A8810A1144         fcb 87,239,0,0,0,33,0,170,160,82,8,168,129,10,17,       68
455E  A50BF5BB7DEBEFBBFF7F57BF4AA00449         fcb 165,11,245,187,125,235,239,187,255,127,87,191,74,160,4,     73
456E  29750004448895401500A2000840A422         fcb 41,117,0,4,68,136,149,64,21,0,162,0,8,64,164,       34
457E  BE0BBAEFFFFF5BFEDDB55FD5554A4294         fcb 190,11,186,239,255,255,91,254,221,181,95,213,85,74,66,      148
458E  AB5B49202044815A81241092422A012A         fcb 171,91,73,32,32,68,129,90,129,36,16,146,66,42,1,    42
459E  A68AF53FDF6FEFDBFEBFAABAA6A01045         fcb 166,138,245,63,223,111,239,219,254,191,170,186,166,160,16,  69
45AE  55DD000204102AA0544144208080A845         fcb 85,221,0,2,4,16,42,160,84,65,68,32,128,128,168,     69
45BE  5A076AEBFFFBB6FEFF6D5FD6AA954529         fcb 90,7,106,235,255,251,182,254,255,109,95,214,170,149,69,     41
45CE  2EF70880010200AA02482114242A0512         fcb 46,247,8,128,1,2,0,170,2,72,33,20,36,42,5,  18
45DE  AE9776BEFBFFB7FBB75FA576AB502125         fcb 174,151,118,190,251,255,183,251,183,95,165,118,171,80,33,   37
45EE  53BD2022444895215100140081409055         fcb 83,189,32,34,68,72,149,33,81,0,20,0,129,64,144,     85
45FE  5417EAAFAEADDDBDFDAD5FAD550A0849         fcb 84,23,234,175,174,173,221,189,253,173,95,173,85,10,8,       73
460E  55550400000000100824802020000400         fcb 85,85,4,0,0,0,0,16,8,36,128,32,32,0,4,      0
461E  00000000200000000000000000808000         fcb 0,0,0,0,32,0,0,0,0,0,0,0,0,128,128, 0
462E  00000021200009000080020800240000         fcb 0,0,0,33,32,0,9,0,0,128,2,8,0,36,0, 0
463E  91001100048404000482004200001200         fcb 145,0,17,0,4,132,4,0,4,130,0,66,0,0,18,     0
464E  11004210049240024000410212004248         fcb 17,0,66,16,4,146,64,2,64,0,65,2,18,0,66,    72
465E  00910091002040884010402092120024         fcb 0,145,0,145,0,32,64,136,64,16,64,32,146,18,0,       36
466E  80240000000000900824000000040000         fcb 128,36,0,0,0,0,0,144,8,36,0,0,0,4,0,        0
467E  08000800200202010001080000800100         fcb 8,0,8,0,32,2,2,1,0,1,8,0,0,128,1,   0
468E  08001104900808000200109041211004         fcb 8,0,17,4,144,8,8,0,2,0,16,144,65,33,16,     4
469E  80088004090020401240020400004800         fcb 128,8,128,4,9,0,32,64,18,64,2,4,0,0,72,     0
46AE  0080                    fcb 0,128
                      ; peephole(14): direct-page
                      ;_Ttmp1 rzb 1
00D9                  _Ttmp1 equ $d9
                      ; peephole(14): inlined
                      ;_Ttmp2 rzb 2
                      ; peephole(14): inlined
                      ;_Ttmp3 rzb 2
                      ; peephole(14): direct-page
                      ;_Ttmp4 rzb 1
00D8                  _Ttmp4 equ $d8
                      ; peephole(6): unread
                      ;_Ttmp5 rzb 1
                      ; peephole(11): unread
                      ;_Ttmp6 rzb 1
                      ; peephole(14): inlined
                      ;_Ttmp7 rzb 2
                      ; peephole(14): inlined
                      ;_Ttmp8 rzb 2
                      ; peephole(14): inlined
                      ;_Ttmp9 rzb 1
                      ; peephole(6): unread
                      ;_Ttmp10 rzb 1
                      ; peephole(6): unread
                      ;_Ttmp12 rzb 1
                      ; peephole(11): unread
                      ;_Ttmp13 rzb 1
46B0                  VARINIT
                      ; peephole(1): r800 (LDB#,STB,CLRA)->(LDD#,STB)
                      ;       LDB #$01
46B0  CC0001                  LDD #$0001
                      ; peephole(6): unread
                      ;       STA _PAPER
                      ; peephole(6): unread
                      ;       STA _windowE
                      ; peephole(1): r733 [A=0](CLRA)->()
                      ;       CLRA
                      ; peephole(6): unread
                      ;       STA _windowS
                      ; peephole(1): r733 [A=0](CLRA)->()
                      ;       CLRA
                      ; peephole(6): unread
                      ;       STA _windowW
                      ; peephole(1): r733 [A=0](CLRA)->()
                      ;       CLRA
                      ; peephole(6): unread
                      ;       STA _windowMX
                      ; peephole(1): r733 [A=0](CLRA)->()
                      ;       CLRA
                      ; peephole(6): unread
                      ;       STA _windowMY
                      ; peephole(6): unread
                      ;       STB _PEN
                      ;       CLRA
                      ; peephole(2): r733 [A=0](CLRA)->()
                      ;       CLRA
46B3  39                      RTS
                      ; peephole: pass 1, 30 changes.
                      ; peephole: pass 2, 7 changes.
                      ; peephole: pass 3, 4 changes.
                      ; peephole: pass 4, 1 change.
                      ; peephole: pass 5, 0 change.
                      ; peephole: pass 6, 27 vars removed.
                      ; peephole: pass 7, 4 changes.
                      ; peephole: pass 8, 1 change.
                      ; peephole: pass 9, 1 change.
                      ; peephole: pass 10, 0 change.
                      ; peephole: pass 11, 2 vars removed.
                      ; peephole: pass 12, 0 change.
                      ; peephole: pass 13, 0 var removed.
                      ; peephole: pass 14, 2 vars moved to dp, 11 vars inlined.
